 Server

 Timestamp is 697d645b (Sat Jan 31 10:09:31 2026)

 Preferred load address is 00400000

 Start         Length     Name                   Class
 0001:00000000 0014fcd2H .text                   CODE
 0001:0014fce0 000089e2H .text$x                 CODE
 0001:001586d0 00000ee6H .text$yc                CODE
 0001:001595c0 0000069aH .text$yd                CODE
 0002:00000000 000005f0H .idata$5                DATA
 0002:000005f0 00000004H .CRT$XCA                DATA
 0002:000005f4 0000000cH .CRT$XCC                DATA
 0002:00000600 0000000cH .CRT$XCL                DATA
 0002:0000060c 000001c0H .CRT$XCU                DATA
 0002:000007cc 00000004H .CRT$XCZ                DATA
 0002:000007d0 00000004H .CRT$XIA                DATA
 0002:000007d4 00000014H .CRT$XIC                DATA
 0002:000007e8 00000004H .CRT$XIY                DATA
 0002:000007ec 00000004H .CRT$XIZ                DATA
 0002:000007f0 00000004H .CRT$XPA                DATA
 0002:000007f4 00000004H .CRT$XPX                DATA
 0002:000007f8 00000004H .CRT$XPXA               DATA
 0002:000007fc 00000004H .CRT$XPZ                DATA
 0002:00000800 00000004H .CRT$XTA                DATA
 0002:00000804 00000004H .CRT$XTZ                DATA
 0002:00000810 0001377bH .rdata                  DATA
 0002:00013f8c 000050c8H .rdata$r                DATA
 0002:00019054 00000004H .rtc$IAA                DATA
 0002:00019058 00000004H .rtc$IZZ                DATA
 0002:0001905c 00000004H .rtc$TAA                DATA
 0002:00019060 00000004H .rtc$TZZ                DATA
 0002:00019068 0000afd4H .xdata$x                DATA
 0002:0002403c 00000000H ATL$__a                 DATA
 0002:0002403c 00000000H ATL$__z                 DATA
 0002:0002403c 00000020H .didat$2                DATA
 0002:0002405c 00000020H .didat$3                DATA
 0002:0002407c 0000000cH .didat$4                DATA
 0002:00024088 00000030H .didat$6                DATA
 0002:000240b8 0000000cH .didat$7                DATA
 0002:000240c4 000000c8H .idata$2                DATA
 0002:0002418c 00000014H .idata$3                DATA
 0002:000241a0 000005f0H .idata$4                DATA
 0002:00024790 000015ceH .idata$6                DATA
 0002:00025d5e 00000000H .edata                  DATA
 0003:00000000 00005f6fH .data                   DATA
 0003:00005f70 0000000cH .didat$5                DATA
 0003:00005f80 01244720H .bss                    DATA
 0004:00000000 00000fd0H .rsrc$01                DATA
 0004:00000fd0 00012cf0H .rsrc$02                DATA

  Address         Publics by Value              Rva+Base       Lib:Object

 0000:00000000       ___safe_se_handler_count   00000000     <absolute>
 0000:00000000       __except_list              00000000     <absolute>
 0000:00000000       ___safe_se_handler_table   00000000     <absolute>
 0000:00000000       ___ImageBase               00400000     <linker-defined>
 0001:00000000       ??0CRipel@@QAE@XZ          00401000 f   AccessoriUpTable.obj
 0001:00000090       ??1CRipel@@QAE@XZ          00401090 f   AccessoriUpTable.obj
 0001:00000150       ??0CAccessoriUpTable@@QAE@XZ 00401150 f   AccessoriUpTable.obj
 0001:00000170       ??1CAccessoriUpTable@@UAE@XZ 00401170 f   AccessoriUpTable.obj
 0001:00000190       ??_ECAccessoriUpTable@@UAEPAXI@Z 00401190 f i AccessoriUpTable.obj
 0001:00000190       ??_GCAccessoriUpTable@@UAEPAXI@Z 00401190 f i AccessoriUpTable.obj
 0001:000001c0       ?RemoveAll@CWordArray@@QAEXXZ 004011c0 f i AccessoriUpTable.obj
 0001:000001e0       ?GetRuntimeClass@CAccessoriUpTableSet@@UBEPAUCRuntimeClass@@XZ 004011e0 f   AccessoriUpTableSet.obj
 0001:000001f0       ??0CAccessoriUpTableSet@@QAE@PAVCDatabase@@@Z 004011f0 f   AccessoriUpTableSet.obj
 0001:000002c0       ?GetDefaultConnect@CAccessoriUpTableSet@@UAE?AV?$CStringT@DV?$StrTraitMFC@DV?$ChTraitsCRT@D@ATL@@@@@ATL@@XZ 004012c0 f   AccessoriUpTableSet.obj
 0001:000002f0       ?GetDefaultSQL@CAccessoriUpTableSet@@UAE?AV?$CStringT@DV?$StrTraitMFC@DV?$ChTraitsCRT@D@ATL@@@@@ATL@@XZ 004012f0 f   AccessoriUpTableSet.obj
 0001:00000320       ?DoFieldExchange@CAccessoriUpTableSet@@UAEXPAVCFieldExchange@@@Z 00401320 f   AccessoriUpTableSet.obj
 0001:000003c0       ??3CObject@@SGXPAX@Z       004013c0 f i AccessoriUpTableSet.obj
 0001:000003e0       ?ThrowDBException@CRecordset@@UAEXFPAX@Z 004013e0 f i AccessoriUpTableSet.obj
 0001:00000420       ?SetFieldType@CFieldExchange@@QAEXI@Z 00401420 f i AccessoriUpTableSet.obj
 0001:00000440       ??0?$CStringT@DV?$StrTraitMFC@DV?$ChTraitsCRT@D@ATL@@@@@ATL@@QAE@XZ 00401440 f i AccessoriUpTableSet.obj
 0001:00000460       ??0?$CStringT@DV?$StrTraitMFC@DV?$ChTraitsCRT@D@ATL@@@@@ATL@@QAE@PBD@Z 00401460 f i AccessoriUpTableSet.obj
 0001:000004e0       ??1?$CStringT@DV?$StrTraitMFC@DV?$ChTraitsCRT@D@ATL@@@@@ATL@@QAE@XZ 004014e0 f i AccessoriUpTableSet.obj
 0001:00000500       ??4?$CStringT@DV?$StrTraitMFC@DV?$ChTraitsCRT@D@ATL@@@@@ATL@@QAEAAV01@PBD@Z 00401500 f i AccessoriUpTableSet.obj
 0001:00000520       ?CheckImplicitLoad@?$CStringT@DV?$StrTraitMFC@DV?$ChTraitsCRT@D@ATL@@@@@ATL@@AAE_NPBX@Z 00401520 f i AccessoriUpTableSet.obj
 0001:00000570       ?LoadStringA@?$CStringT@DV?$StrTraitMFC@DV?$ChTraitsCRT@D@ATL@@@@@ATL@@QAEHI@Z 00401570 f i AccessoriUpTableSet.obj
 0001:000005b0       ?LoadStringA@?$CStringT@DV?$StrTraitMFC@DV?$ChTraitsCRT@D@ATL@@@@@ATL@@QAEHPAUHINSTANCE__@@I@Z 004015b0 f i AccessoriUpTableSet.obj
 0001:00000640       ?AtlGetStringResourceImage@ATL@@YAPBUATLSTRINGRESOURCEIMAGE@1@PAUHINSTANCE__@@I@Z 00401640 f i AccessoriUpTableSet.obj
 0001:00000690       ?_AtlGetStringResourceImage@ATL@@YAPBUATLSTRINGRESOURCEIMAGE@1@PAUHINSTANCE__@@PAUHRSRC__@@I@Z 00401690 f i AccessoriUpTableSet.obj
 0001:00000740       ?GetBuffer@?$CSimpleStringT@D$0A@@ATL@@QAEPADH@Z 00401740 f i AccessoriUpTableSet.obj
 0001:00000760       ??0?$CSimpleStringT@D$0A@@ATL@@QAE@PAUIAtlStringMgr@1@@Z 00401760 f i AccessoriUpTableSet.obj
 0001:000007b0       ?AtlThrowImpl@ATL@@YGXJ@Z  004017b0 f i AccessoriUpTableSet.obj
 0001:000007d0       ??1?$CSimpleStringT@D$0A@@ATL@@QAE@XZ 004017d0 f i AccessoriUpTableSet.obj
 0001:000007f0       ?Release@CStringData@ATL@@QAEXXZ 004017f0 f i AccessoriUpTableSet.obj
 0001:00000830       ??4?$CSimpleStringT@D$0A@@ATL@@QAEAAV01@PBD@Z 00401830 f i AccessoriUpTableSet.obj
 0001:00000850       ?GetData@?$CSimpleStringT@D$0A@@ATL@@ABEPAUCStringData@2@XZ 00401850 f i AccessoriUpTableSet.obj
 0001:00000870       ?PrepareWrite@?$CSimpleStringT@D$0A@@ATL@@AAEPADH@Z 00401870 f i AccessoriUpTableSet.obj
 0001:000008c0       ?FindStringResourceInstance@?$StrTraitMFC@DV?$ChTraitsCRT@D@ATL@@@@SAPAUHINSTANCE__@@I@Z 004018c0 f i AccessoriUpTableSet.obj
 0001:000008d0       ?GetDefaultManager@?$StrTraitMFC@DV?$ChTraitsCRT@D@ATL@@@@SAPAUIAtlStringMgr@ATL@@XZ 004018d0 f i AccessoriUpTableSet.obj
 0001:000008e0       ?ReleaseBufferSetLength@?$CSimpleStringT@D$0A@@ATL@@QAEXH@Z 004018e0 f i AccessoriUpTableSet.obj
 0001:00000900       ?SetLength@?$CSimpleStringT@D$0A@@ATL@@AAEXH@Z 00401900 f i AccessoriUpTableSet.obj
 0001:00000950       ?SetString@?$CSimpleStringT@D$0A@@ATL@@QAEXPBD@Z 00401950 f i AccessoriUpTableSet.obj
 0001:00000980       ?SetString@?$CSimpleStringT@D$0A@@ATL@@QAEXPBDH@Z 00401980 f i AccessoriUpTableSet.obj
 0001:00000a30       ?GetLength@?$CSimpleStringT@D$0A@@ATL@@QBEHXZ 00401a30 f i AccessoriUpTableSet.obj
 0001:00000a50       ?Empty@?$CSimpleStringT@D$0A@@ATL@@QAEXXZ 00401a50 f i AccessoriUpTableSet.obj
 0001:00000ac0       ?IsLocked@CStringData@ATL@@QBE_NXZ 00401ac0 f i AccessoriUpTableSet.obj
 0001:00000ae0       ?Attach@?$CSimpleStringT@D$0A@@ATL@@AAEXPAUCStringData@2@@Z 00401ae0 f i AccessoriUpTableSet.obj
 0001:00000b00       ?data@CStringData@ATL@@QAEPAXXZ 00401b00 f i AccessoriUpTableSet.obj
 0001:00000b20       ?PrepareWrite2@?$CSimpleStringT@D$0A@@ATL@@AAEXH@Z 00401b20 f i AccessoriUpTableSet.obj
 0001:00000bc0       ?IsShared@CStringData@ATL@@QBE_NXZ 00401bc0 f i AccessoriUpTableSet.obj
 0001:00000be0       ?GetBaseTypeLength@?$ChTraitsCRT@D@ATL@@SAHPB_WH@Z 00401be0 f i AccessoriUpTableSet.obj
 0001:00000c10       ?_AtlGetConversionACP@ATL@@YGIXZ 00401c10 f i AccessoriUpTableSet.obj
 0001:00000c20       ?ConvertToBaseType@?$ChTraitsCRT@D@ATL@@SAXPADHPB_WH@Z 00401c20 f i AccessoriUpTableSet.obj
 0001:00000c50       ?GetAllocLength@?$CSimpleStringT@D$0A@@ATL@@QBEHXZ 00401c50 f i AccessoriUpTableSet.obj
 0001:00000c70       ?CopyChars@?$CSimpleStringT@D$0A@@ATL@@SAXPADIPBDH@Z 00401c70 f i AccessoriUpTableSet.obj
 0001:00000c90       ?CopyCharsOverlapped@?$CSimpleStringT@D$0A@@ATL@@SAXPADIPBDH@Z 00401c90 f i AccessoriUpTableSet.obj
 0001:00000cb0       ?StringLength@?$CSimpleStringT@D$0A@@ATL@@SAHPBD@Z 00401cb0 f i AccessoriUpTableSet.obj
 0001:00000cd0       ?Fork@?$CSimpleStringT@D$0A@@ATL@@AAEXH@Z 00401cd0 f i AccessoriUpTableSet.obj
 0001:00000d90       ?ThrowMemoryException@?$CSimpleStringT@D$0A@@ATL@@KAXXZ 00401d90 f i AccessoriUpTableSet.obj
 0001:00000da0       ?Reallocate@?$CSimpleStringT@D$0A@@ATL@@AAEXH@Z 00401da0 f i AccessoriUpTableSet.obj
 0001:00000e10       ?GetRuntimeClass@CAddEventItemTableSet@@UBEPAUCRuntimeClass@@XZ 00401e10 f   AddEventItemTableSet.obj
 0001:00000e20       ??0CAddEventItemTableSet@@QAE@PAVCDatabase@@@Z 00401e20 f   AddEventItemTableSet.obj
 0001:00000ef0       ?GetDefaultConnect@CAddEventItemTableSet@@UAE?AV?$CStringT@DV?$StrTraitMFC@DV?$ChTraitsCRT@D@ATL@@@@@ATL@@XZ 00401ef0 f   AddEventItemTableSet.obj
 0001:00000f20       ?GetDefaultSQL@CAddEventItemTableSet@@UAE?AV?$CStringT@DV?$StrTraitMFC@DV?$ChTraitsCRT@D@ATL@@@@@ATL@@XZ 00401f20 f   AddEventItemTableSet.obj
 0001:00000f50       ?DoFieldExchange@CAddEventItemTableSet@@UAEXPAVCFieldExchange@@@Z 00401f50 f   AddEventItemTableSet.obj
 0001:00001000       ??0CBoxEventTable@@QAE@XZ  00402000 f   BoxEventTable.obj
 0001:00001030       ??1CBoxEventTable@@UAE@XZ  00402030 f   BoxEventTable.obj
 0001:00001050       ??_GCBoxEventTable@@UAEPAXI@Z 00402050 f i BoxEventTable.obj
 0001:00001050       ??_ECBoxEventTable@@UAEPAXI@Z 00402050 f i BoxEventTable.obj
 0001:00001080       ?GetRuntimeClass@CBoxEventTableSet@@UBEPAUCRuntimeClass@@XZ 00402080 f   BoxEventTableSet.obj
 0001:00001090       ??0CBoxEventTableSet@@QAE@PAVCDatabase@@@Z 00402090 f   BoxEventTableSet.obj
 0001:00001160       ?GetDefaultConnect@CBoxEventTableSet@@UAE?AV?$CStringT@DV?$StrTraitMFC@DV?$ChTraitsCRT@D@ATL@@@@@ATL@@XZ 00402160 f   BoxEventTableSet.obj
 0001:00001190       ?GetDefaultSQL@CBoxEventTableSet@@UAE?AV?$CStringT@DV?$StrTraitMFC@DV?$ChTraitsCRT@D@ATL@@@@@ATL@@XZ 00402190 f   BoxEventTableSet.obj
 0001:000011c0       ?DoFieldExchange@CBoxEventTableSet@@UAEXPAVCFieldExchange@@@Z 004021c0 f   BoxEventTableSet.obj
 0001:00001260       ??_ECBoxEventTableSet@@UAEPAXI@Z 00402260 f i BoxEventTableSet.obj
 0001:00001260       ??_GCBoxEventTableSet@@UAEPAXI@Z 00402260 f i BoxEventTableSet.obj
 0001:00001290       ??1CBoxEventTableSet@@UAE@XZ 00402290 f i BoxEventTableSet.obj
 0001:000012c0       ??0CBufferEx@@QAE@H@Z      004022c0 f   BufferEx.obj
 0001:00001320       ??1CBufferEx@@UAE@XZ       00402320 f   BufferEx.obj
 0001:00001350       ?AddData@CBufferEx@@QAEXPADH@Z 00402350 f   BufferEx.obj
 0001:000013b0       ?AddLongString@CBufferEx@@QAEXPADH@Z 004023b0 f   BufferEx.obj
 0001:00001440       ?Add@CBufferEx@@QAEXPADH@Z 00402440 f   BufferEx.obj
 0001:000014c0       ?Add@CBufferEx@@QAEXE@Z    004024c0 f   BufferEx.obj
 0001:00001500       ?Add@CBufferEx@@QAEXG@Z    00402500 f   BufferEx.obj
 0001:00001550       ?Add@CBufferEx@@QAEXF@Z    00402550 f   BufferEx.obj
 0001:000015a0       ?Add@CBufferEx@@QAEXH@Z    004025a0 f   BufferEx.obj
 0001:000015f0       ?Add@CBufferEx@@QAEXK@Z    004025f0 f   BufferEx.obj
 0001:00001640       ?GetLength@CBufferEx@@QAEHXZ 00402640 f   BufferEx.obj
 0001:00001660       ??_ECBufferEx@@UAEPAXI@Z   00402660 f i BufferEx.obj
 0001:00001660       ??_GCBufferEx@@UAEPAXI@Z   00402660 f i BufferEx.obj
 0001:00001690       ??0CBSocket@@QAE@XZ        00402690 f   CBSocket.obj
 0001:00001720       ??0CBSocket@@QAE@H@Z       00402720 f   CBSocket.obj
 0001:000017c0       ??1CBSocket@@UAE@XZ        004027c0 f   CBSocket.obj
 0001:000017e0       ?Init@CBSocket@@UAEHH@Z    004027e0 f   CBSocket.obj
 0001:000018b0       ?DxSend@CBSocket@@QAEHHPAD@Z 004028b0 f   CBSocket.obj
 0001:00001980       ?B_Send@CBSocket@@QAEHHPAD@Z 00402980 f   CBSocket.obj
 0001:000019e0       ?B_OnSend@CBSocket@@QAEXH@Z 004029e0 f   CBSocket.obj
 0001:00001a30       ?B_OnClose@CBSocket@@QAEXH@Z 00402a30 f   CBSocket.obj
 0001:00001a50       ?ParseCommand@CBSocket@@QAEXH@Z 00402a50 f   CBSocket.obj
 0001:00001ae0       ?ReceiveData@CBSocket@@QAEXPADH@Z 00402ae0 f   CBSocket.obj
 0001:00001e00       ?RecycleRead@CBSocket@@QAEHXZ 00402e00 f   CBSocket.obj
 0001:00001e20       ?SockCloseProcess@CBSocket@@UAEHH@Z 00402e20 f   CBSocket.obj
 0001:00001e40       ?SendSockCloseProcess@CBSocket@@QAEHH@Z 00402e40 f   CBSocket.obj
 0001:00001e60       ?B_Close@CBSocket@@QAEXXZ  00402e60 f   CBSocket.obj
 0001:00001f50       ?PostSendData@CBSocket@@QAEHXZ 00402f50 f   CBSocket.obj
 0001:00001fa0       ?SocketDisConnect@CBSocket@@UAEHXZ 00402fa0 f   CBSocket.obj
 0001:00001fb0       ?B_SoftClose@CBSocket@@QAEXXZ 00402fb0 f   CBSocket.obj
 0001:00002070       ??_GCBSocket@@UAEPAXI@Z    00403070 f i CBSocket.obj
 0001:00002070       ??_ECBSocket@@UAEPAXI@Z    00403070 f i CBSocket.obj
 0001:000020a0       ?GetIOCPLastError@CIOCPSocket@@QAEKXZ 004030a0 f i CBSocket.obj
 0001:000020a0       ?GetCount@CObList@@QBEHXZ  004030a0 f i Compress.obj
 0001:000020a0       ?GetCount@CPtrList@@QBEHXZ 004030a0 f i COM.obj
 0001:000020c0       ??0WAIT_RECV_DATA@@QAE@XZ  004030c0 f i CBSocket.obj
 0001:00002120       ??_EWAIT_RECV_DATA@@UAEPAXI@Z 00403120 f i CBSocket.obj
 0001:00002120       ??_GWAIT_RECV_DATA@@UAEPAXI@Z 00403120 f i CBSocket.obj
 0001:00002150       ??1WAIT_RECV_DATA@@UAE@XZ  00403150 f i CBSocket.obj
 0001:000021e0       ??1_Container_base_aux@std@@QAE@XZ 004031e0 f i COM.obj
 0001:000021e0       ??1CObject@@UAE@XZ         004031e0 f i CBSocket.obj
 0001:000021f0       ??2CObject@@SGPAXI@Z       004031f0 f i CBSocket.obj
 0001:00002210       ??0CellInfo@@QAE@XZ        00403210 f   CELL.obj
 0001:00002290       ??1CellInfo@@QAE@XZ        00403290 f   CELL.obj
 0001:00002320       ?Add@CellInfo@@QAEXH@Z     00403320 f   CELL.obj
 0001:00002360       ?Delete@CellInfo@@QAEXH@Z  00403360 f   CELL.obj
 0001:000023e0       ?Get@CellInfo@@QAEXAAV?$CArray@HH@@@Z 004033e0 f   CELL.obj
 0001:00002450       ?DeleteItem@CellInfo@@QAEXVCPoint@@@Z 00403450 f   CELL.obj
 0001:000024d0       ?AddItem@CellInfo@@QAEXVCPoint@@@Z 004034d0 f   CELL.obj
 0001:00002510       ?GetItem@CellInfo@@QAEXAAV?$CArray@VCPoint@@V1@@@@Z 00403510 f   CELL.obj
 0001:00002580       ??0CELL@@QAE@VCSize@@HPAVCOM@@@Z 00403580 f   CELL.obj
 0001:00002730       ??1CELL@@QAE@XZ            00403730 f   CELL.obj
 0001:00002750       ?RemoveCellData@CELL@@IAEXXZ 00403750 f   CELL.obj
 0001:000027d0       ?GetCellIndex@CELL@@QAE?AVCPoint@@HH@Z 004037d0 f   CELL.obj
 0001:00002920       ?GetDirection@CELL@@QAEHHHHH@Z 00403920 f   CELL.obj
 0001:000029e0       ?GetDirection@CELL@@QAEHVCPoint@@0@Z 004039e0 f   CELL.obj
 0001:00002aa0       ?AddCell@CELL@@QAEXVCPoint@@H@Z 00403aa0 f   CELL.obj
 0001:00002fb0       ?DeleteCell@CELL@@QAEXVCPoint@@H@Z 00403fb0 f   CELL.obj
 0001:00003530       ?ChangeCell@CELL@@QAEXVCPoint@@0H@Z 00404530 f   CELL.obj
 0001:00003f70       ?DeleteItemCell@CELL@@QAEXVCPoint@@0@Z 00404f70 f   CELL.obj
 0001:00003f80       ?DeleteCellCoordinate@CELL@@QAEXVCPoint@@0@Z 00404f80 f   CELL.obj
 0001:00003fb0       ?ChangeItemCell@CELL@@QAEXAAV?$CTypedPtrArray@VCPtrArray@@PAVItemList@@@@VCPoint@@1H@Z 00404fb0 f   CELL.obj
 0001:00004150       ?ChangeMoneyCell@CELL@@QAEXKVCPoint@@0H@Z 00405150 f   CELL.obj
 0001:00004310       ?AddItemCell@CELL@@QAEXHVCPoint@@H@Z 00405310 f   CELL.obj
 0001:00004790       ?GetMapItemList@CELL@@QAEHAAV?$CTypedPtrArray@VCPtrArray@@PAVItemList@@@@AAKVCPoint@@H@Z 00405790 f   CELL.obj
 0001:00004860       ?GetViewMapItemList@CELL@@QAEHAAV?$CTypedPtrArray@VCPtrArray@@PAVItemList@@@@AAKVCPoint@@H@Z 00405860 f   CELL.obj
 0001:000049c0       ?GetNpc@CELL@@QAEPAVCNpc@@H@Z 004059c0 f   CELL.obj
 0001:00004a40       ?AddCellFromTownPotal@CELL@@QAEXVCPoint@@H@Z 00405a40 f   CELL.obj
 0001:00004dc0       ?DeleteCellFromTownPotal@CELL@@QAEXVCPoint@@H@Z 00405dc0 f   CELL.obj
 0001:000051a0       ??_ECellInfo@@QAEPAXI@Z    004061a0 f i CELL.obj
 0001:00005210       ??0?$CTypedPtrArray@VCPtrArray@@PAVItemList@@@@QAE@XZ 00406210 f i CELL.obj
 0001:00005230       ??0?$CArray@VCPoint@@V1@@@QAE@XZ 00406230 f i CELL.obj
 0001:00005280       ?RemoveAll@?$CArray@VCPoint@@V1@@@QAEXXZ 00406280 f i CELL.obj
 0001:000052a0       ?ElementAt@?$CArray@VCPoint@@V1@@@QAEAAVCPoint@@H@Z 004062a0 f i CELL.obj
 0001:000052a0       ?GetAt@?$CArray@VCPoint@@V1@@@QAEAAVCPoint@@H@Z 004062a0 f i CELL.obj
 0001:000052e0       ?Add@?$CArray@VCPoint@@V1@@@QAEHVCPoint@@@Z 004062e0 f i CELL.obj
 0001:00005310       ??A?$CArray@VCPoint@@V1@@@QAEAAVCPoint@@H@Z 00406310 f i CELL.obj
 0001:00005330       ?RemoveAt@?$CArray@VCPoint@@V1@@@QAEXHH@Z 00406330 f i CELL.obj
 0001:000053f0       ?memmove_s@Checked@ATL@@YAXPAXIPBXI@Z 004063f0 f i CELL.obj
 0001:00005420       ?AfxCrtErrorCheck@@YAHH@Z  00406420 f i CELL.obj
 0001:000054d0       ??1?$CArray@VCPoint@@V1@@@UAE@XZ 004064d0 f i CELL.obj
 0001:00005530       ?Serialize@?$CArray@VCPoint@@V1@@@UAEXAAVCArchive@@@Z 00406530 f i CELL.obj
 0001:000055a0       ??0?$CArray@HH@@QAE@XZ     004065a0 f i CELL.obj
 0001:000055f0       ?RemoveAll@?$CArray@HH@@QAEXXZ 004065f0 f i CELL.obj
 0001:00005610       ?Add@?$CArray@HH@@QAEHH@Z  00406610 f i CELL.obj
 0001:00005640       ??A?$CArray@HH@@QAEAAHH@Z  00406640 f i CELL.obj
 0001:00005660       ?RemoveAt@?$CArray@HH@@QAEXHH@Z 00406660 f i CELL.obj
 0001:00005720       ??1?$CArray@HH@@UAE@XZ     00406720 f i CELL.obj
 0001:00005780       ?Serialize@?$CArray@HH@@UAEXAAVCArchive@@@Z 00406780 f i CELL.obj
 0001:000057f0       ??_E?$CArray@VCPoint@@V1@@@UAEPAXI@Z 004067f0 f i CELL.obj
 0001:000057f0       ??_G?$CArray@VCPoint@@V1@@@UAEPAXI@Z 004067f0 f i CELL.obj
 0001:00005820       ??_E?$CArray@HH@@UAEPAXI@Z 00406820 f i CELL.obj
 0001:00005820       ??_G?$CArray@HH@@UAEPAXI@Z 00406820 f i CELL.obj
 0001:00005850       ?SetSize@?$CArray@VCPoint@@V1@@@QAEXHH@Z 00406850 f i CELL.obj
 0001:00005c00       ??2@YAPAXIPAX@Z            00406c00 f i CELL.obj
 0001:00005c10       ?memcpy_s@Checked@ATL@@YAXPAXIPBXI@Z 00406c10 f i CELL.obj
 0001:00005c40       ?SetAtGrow@?$CArray@VCPoint@@V1@@@QAEXHVCPoint@@@Z 00406c40 f i CELL.obj
 0001:00005c90       ??$SerializeElements@VCPoint@@@@YGXAAVCArchive@@PAVCPoint@@H@Z 00406c90 f i CELL.obj
 0001:00005d90       ?SetSize@?$CArray@HH@@QAEXHH@Z 00406d90 f i CELL.obj
 0001:000060f0       ?GetAt@?$CArray@HH@@QAEAAHH@Z 004070f0 f i CELL.obj
 0001:000060f0       ?ElementAt@?$CArray@HH@@QAEAAHH@Z 004070f0 f i CELL.obj
 0001:00006130       ?SetAtGrow@?$CArray@HH@@QAEXHH@Z 00407130 f i CELL.obj
 0001:00006180       ??$SerializeElements@H@@YGXAAVCArchive@@PAHH@Z 00407180 f i CELL.obj
 0001:00006280       ??0CPoint@@QAE@HH@Z        00407280 f i CELL.obj
 0001:000062b0       ?PtInRect@CRect@@QBEHUtagPOINT@@@Z 004072b0 f i CELL.obj
 0001:000062d0       ?SetRect@CRect@@QAEXHHHH@Z 004072d0 f i CELL.obj
 0001:00006300       ?RemoveAll@CPtrArray@@QAEXXZ 00407300 f i CELL.obj
 0001:00006300       ?RemoveAll@CDWordArray@@QAEXXZ 00407300 f i COM.obj
 0001:00006320       ?Add@CUIntArray@@QAEHI@Z   00407320 f i USER2.obj
 0001:00006320       ?Add@CDWordArray@@QAEHK@Z  00407320 f i COM.obj
 0001:00006320       ?Add@CPtrArray@@QAEHPAX@Z  00407320 f i CELL.obj
 0001:00006350       ?IsStoring@CArchive@@QBEHXZ 00407350 f i CELL.obj
 0001:00006370       ?EnsureRead@CArchive@@QAEXPAXI@Z 00407370 f i CELL.obj
 0001:000063b0       ??0CCircularBuffer@@QAE@H@Z 004073b0 f   CircularBuffer.obj
 0001:00006410       ??1CCircularBuffer@@UAE@XZ 00407410 f   CircularBuffer.obj
 0001:00006450       ??_ECCircularBuffer@@UAEPAXI@Z 00407450 f i CircularBuffer.obj
 0001:00006450       ??_GCCircularBuffer@@UAEPAXI@Z 00407450 f i CircularBuffer.obj
 0001:00006480       ?GetRuntimeClass@CCityNpcTableSet@@UBEPAUCRuntimeClass@@XZ 00407480 f   CityNpcTableSet.obj
 0001:00006490       ??0CCityNpcTableSet@@QAE@PAVCDatabase@@@Z 00407490 f   CityNpcTableSet.obj
 0001:000066d0       ?GetDefaultConnect@CCityNpcTableSet@@UAE?AV?$CStringT@DV?$StrTraitMFC@DV?$ChTraitsCRT@D@ATL@@@@@ATL@@XZ 004076d0 f   CityNpcTableSet.obj
 0001:00006700       ?GetDefaultSQL@CCityNpcTableSet@@UAE?AV?$CStringT@DV?$StrTraitMFC@DV?$ChTraitsCRT@D@ATL@@@@@ATL@@XZ 00407700 f   CityNpcTableSet.obj
 0001:00006730       ?DoFieldExchange@CCityNpcTableSet@@UAEXPAVCFieldExchange@@@Z 00407730 f   CityNpcTableSet.obj
 0001:00006ac0       ?SendThreadMain@@YAIPAX@Z  00407ac0 f   COM.obj
 0001:00006cf0       ?TimerThread@@YAIPAX@Z     00407cf0 f   COM.obj
 0001:00007070       ?EventTimerThread@@YAIPAX@Z 00408070 f   COM.obj
 0001:000070b0       ??0COM@@QAE@XZ             004080b0 f   COM.obj
 0001:00007160       ??1COM@@UAE@XZ             00408160 f   COM.obj
 0001:00007260       ?DeleteAll@COM@@IAEXXZ     00408260 f   COM.obj
 0001:00007280       ?DeleteThrowItemArray@COM@@QAEXXZ 00408280 f   COM.obj
 0001:00007300       ?InitThrowItemArray@COM@@QAEXXZ 00408300 f   COM.obj
 0001:00007440       ?ThrowItemAdd@COM@@QAE_NPAVItemList@@HHH@Z 00408440 f   COM.obj
 0001:00007500       ?ItemGetID@COM@@QAEPAVCThrowItem@@XZ 00408500 f   COM.obj
 0001:00007570       ?ItemUseInset@COM@@QAEXPAVCThrowItem@@@Z 00408570 f   COM.obj
 0001:000075b0       ?ThrowItemDel@COM@@QAEXPAVCThrowItem@@@Z 004085b0 f   COM.obj
 0001:00007660       ?ThrowItemRefresh@COM@@QAEXXZ 00408660 f   COM.obj
 0001:00007a90       ?Init@COM@@QAEHH@Z         00408a90 f   COM.obj
 0001:00007bd0       ?SendItemFieldInfo@COM@@QAEXEPAVItemList@@HHH@Z 00408bd0 f   COM.obj
 0001:00007d00       ?SendInsight@COM@@QAEXPADHHHH@Z 00408d00 f   COM.obj
 0001:00007de0       ?CreateTimerThread@COM@@QAEHXZ 00408de0 f   COM.obj
 0001:00007e70       ?CreateEventTimerThread@COM@@QAEHXZ 00408e70 f   COM.obj
 0001:00007ea0       ?SetWeatherZone@COM@@QAEXHEE@Z 00408ea0 f   COM.obj
 0001:00008010       ?SendTimeToAll@COM@@QAEXXZ 00409010 f   COM.obj
 0001:00008080       ?GetCPUCount@COM@@QAEXXZ   00409080 f   COM.obj
 0001:000080b0       ?Send@COM@@QAEXPAU_SEND_DATA@@@Z 004090b0 f   COM.obj
 0001:00008770       ?Send@COM@@QAEXPAVUSER@@PADH@Z 00409770 f   COM.obj
 0001:000087a0       ?SetThrowItem@COM@@QAEHPAVItemList@@HHH@Z 004097a0 f   COM.obj
 0001:00008a80       ?DelThrowItem@COM@@QAEXXZ  00409a80 f   COM.obj
 0001:00008e90       ?CheckGuildWarTime@COM@@QAEXXZ 00409e90 f   COM.obj
 0001:00009300       ?SendGuildWarBegin@COM@@QAEXPAVCStore@@@Z 0040a300 f   COM.obj
 0001:00009920       ?SendGuildWarEnd@COM@@QAEXPAVCStore@@@Z 0040a920 f   COM.obj
 0001:00009ba0       ?UpdateStoreMem2DB@COM@@IAEXPAVCStore@@@Z 0040aba0 f   COM.obj
 0001:00009e50       ?CheckGuildWarSchedule@COM@@QAEXPAVCStore@@@Z 0040ae50 f   COM.obj
 0001:00009ee0       ?Announce@COM@@QAEXPADE@Z  0040aee0 f   COM.obj
 0001:00009fd0       ?SendAll@COM@@QAEXPADH@Z   0040afd0 f   COM.obj
 0001:0000a080       ?AnnounceZone@COM@@QAEXPADEH@Z 0040b080 f   COM.obj
 0001:0000a180       ?GetUser@COM@@QAEPAVUSER@@PAD@Z 0040b180 f   COM.obj
 0001:0000a290       ?GetUserUid@COM@@QAEPAVUSER@@H@Z 0040b290 f   COM.obj
 0001:0000a2d0       ?UpdateUserCount@COM@@QAEXXZ 0040b2d0 f   COM.obj
 0001:0000a480       ?CheckMessageTime@COM@@QAEXXZ 0040b480 f   COM.obj
 0001:0000a7b0       ?CheckEmoTime@COM@@QAEXXZ  0040b7b0 f   COM.obj
 0001:0000a9d0       ?CheckBaoZangTime@COM@@QAEXXZ 0040b9d0 f   COM.obj
 0001:0000a9e0       ?Add_DGB_Massage@COM@@QAEHPADH@Z 0040b9e0 f   COM.obj
 0001:0000aab0       ?Check_DGB_Massage@COM@@QAEXXZ 0040bab0 f   COM.obj
 0001:0000abf0       ?SubQLPKDASAITime@COM@@QAEXXZ 0040bbf0 f   COM.obj
 0001:0000ad50       ?SetPKDaSai@COM@@QAEXXZ    0040bd50 f   COM.obj
 0001:0000af40       ?UpdateLiXianTime@COM@@QAEXXZ 0040bf40 f   COM.obj
 0001:0000afb0       ?CheckFortressWarTime@COM@@QAEXXZ 0040bfb0 f   COM.obj
 0001:0000b8a0       ?ReUpdateFortress2DB@COM@@QAEXPAVCGuildFortress@@@Z 0040c8a0 f   COM.obj
 0001:0000bc30       ?SendFortressWarBegin@COM@@QAEXPAVCGuildFortress@@@Z 0040cc30 f   COM.obj
 0001:0000c240       ?SendFortressWarEnd@COM@@QAEXPAVCGuildFortress@@@Z 0040d240 f   COM.obj
 0001:0000c480       ?RemoveUserInGuildHouse@COM@@QAEXXZ 0040d480 f   COM.obj
 0001:0000c570       ?UpdateFortress2DB@COM@@QAEXPAVCGuildFortress@@@Z 0040d570 f   COM.obj
 0001:0000c850       ?UpdateFortressMem2DB@COM@@QAEXPAVCGuildFortress@@@Z 0040d850 f   COM.obj
 0001:0000c860       ?LoadFortressCityDegree@COM@@QAEXPAVCGuildFortress@@@Z 0040d860 f   COM.obj
 0001:0000c870       ?SetFortressWarTime@COM@@QAEXPAVCGuildFortress@@@Z 0040d870 f   COM.obj
 0001:0000cdb0       ?UpdateMemFortressWarType@COM@@QAEXPAVCGuildFortress@@@Z 0040ddb0 f   COM.obj
 0001:0000ce60       ?CheckViolenceInFortress@COM@@QAEXXZ 0040de60 f   COM.obj
 0001:0000d2b0       ?SetFortressViolenceTime@COM@@QAEXPAVCGuildFortress@@HH@Z 0040e2b0 f   COM.obj
 0001:0000d560       ?SetNpcToViolenceFortressWarEnd@COM@@QAEXPAVCGuildFortress@@@Z 0040e560 f   COM.obj
 0001:0000d6a0       ?GetUserPKDaSai@COM@@QAEXXZ 0040e6a0 f   COM.obj
 0001:0000d9f0       ?GetUserPKEnd@COM@@QAEXXZ  0040e9f0 f   COM.obj
 0001:0000ddb0       ?SubPKJiangLi@COM@@QAEXPADH@Z 0040edb0 f   COM.obj
 0001:0000df20       ?GetTSDay@COM@@QAEXXZ      0040ef20 f   COM.obj
 0001:0000e080       ?GetVIPDay@COM@@QAEXXZ     0040f080 f   COM.obj
 0001:0000e1e0       ?GetFUExpTime@COM@@QAEXXZ  0040f1e0 f   COM.obj
 0001:0000e340       ?GetUserPaiMing@COM@@QAEHXZ 0040f340 f   COM.obj
 0001:0000e7a0       ?DeleteAllBanIP@COM@@QAEHXZ 0040f7a0 f   COM.obj
 0001:0000e9f0       ??_ECOM@@UAEPAXI@Z         0040f9f0 f i COM.obj
 0001:0000e9f0       ??_GCOM@@UAEPAXI@Z         0040f9f0 f i COM.obj
 0001:0000ea20       ??_FCPtrList@@QAEXXZ       0040fa20 f i COM.obj
 0001:0000ea40       ??0_SEND_DATA@@QAE@XZ      0040fa40 f i COM.obj
 0001:0000ea60       ?_Mynode@?$_Const_iterator@$00@?$list@PAVCBufferEx@@V?$allocator@PAVCBufferEx@@@std@@@std@@QBEPAU_Node@?$_List_nod@PAVCBufferEx@@V?$allocator@PAVCBufferEx@@@std@@@3@XZ 0040fa60 f i COM.obj
 0001:0000ea60       ??BCBufferEx@@QAEPADXZ     0040fa60 f i COM.obj
 0001:0000ea60       ?GetHeadPosition@CObList@@QBEPAU__POSITION@@XZ 0040fa60 f i Compress.obj
 0001:0000ea60       ?GetDataPtr@CCompressData@@QAEPADXZ 0040fa60 f i Compress.obj
 0001:0000ea80       ??0CTimeSpan@ATL@@QAE@XZ   0040fa80 f i COM.obj
 0001:0000ea80       ??0CTime@ATL@@QAE@XZ       0040fa80 f i GuildFortressSet.obj
 0001:0000eaa0       ??0CTimeSpan@ATL@@QAE@JHHH@Z 0040faa0 f i COM.obj
 0001:0000eb20       ?GetDays@CTimeSpan@ATL@@QBE_JXZ 0040fb20 f i COM.obj
 0001:0000eb50       ?GetTotalHours@CTimeSpan@ATL@@QBE_JXZ 0040fb50 f i COM.obj
 0001:0000eb80       ?GetTotalMinutes@CTimeSpan@ATL@@QBE_JXZ 0040fb80 f i COM.obj
 0001:0000eba0       ??0CTime@ATL@@QAE@HHHHHHH@Z 0040fba0 f i COM.obj
 0001:0000ed60       ??0CTime@ATL@@QAE@ABU_SYSTEMTIME@@H@Z 0040fd60 f i COM.obj
 0001:0000ee00       ??0CTimeSpan@ATL@@QAE@_J@Z 0040fe00 f i COM.obj
 0001:0000ee00       ??0CTime@ATL@@QAE@_J@Z     0040fe00 f i COM.obj
 0001:0000ee20       ??YCTime@ATL@@QAEAAV01@VCTimeSpan@1@@Z 0040fe20 f i COM.obj
 0001:0000ee50       ?GetTimeSpan@CTimeSpan@ATL@@QBE_JXZ 0040fe50 f i COM.obj
 0001:0000ee70       ??GCTime@ATL@@QBE?AVCTimeSpan@1@V01@@Z 0040fe70 f i COM.obj
 0001:0000eea0       ?CompareNoCase@?$CStringT@DV?$StrTraitMFC@DV?$ChTraitsCRT@D@ATL@@@@@ATL@@QBEHPBD@Z 0040fea0 f i COM.obj
 0001:0000eef0       ?AtlIsValidString@ATL@@YAHPBDI@Z 0040fef0 f i COM.obj
 0001:0000ef00       ??0?$list@PAVCBufferEx@@V?$allocator@PAVCBufferEx@@@std@@@std@@QAE@XZ 0040ff00 f i COM.obj
 0001:0000ef80       ??1?$list@PAVCBufferEx@@V?$allocator@PAVCBufferEx@@@std@@@std@@QAE@XZ 0040ff80 f i COM.obj
 0001:0000efe0       ?begin@?$list@PAVCBufferEx@@V?$allocator@PAVCBufferEx@@@std@@@std@@QAE?AV?$_Iterator@$00@12@XZ 0040ffe0 f i COM.obj
 0001:0000f010       ?GetYear@CTime@ATL@@QBEHXZ 00410010 f i COM.obj
 0001:0000f050       ?GetLocalTm@CTime@ATL@@QBEPAUtm@@PAU3@@Z 00410050 f i COM.obj
 0001:0000f0c0       ?GetUnCompressDataLength@CCompressManager@@QAEJXZ 004100c0 f i USER.obj
 0001:0000f0c0       ?size@?$list@PAVCBufferEx@@V?$allocator@PAVCBufferEx@@@std@@@std@@QBEIXZ 004100c0 f i COM.obj
 0001:0000f0e0       ?GetMonth@CTime@ATL@@QBEHXZ 004100e0 f i COM.obj
 0001:0000f120       ?pop_front@?$list@PAVCBufferEx@@V?$allocator@PAVCBufferEx@@@std@@@std@@QAEXXZ 00410120 f i COM.obj
 0001:0000f160       ?GetDay@CTime@ATL@@QBEHXZ  00410160 f i COM.obj
 0001:0000f1a0       ?push_back@?$list@PAVCBufferEx@@V?$allocator@PAVCBufferEx@@@std@@@std@@QAEXABQAVCBufferEx@@@Z 004101a0 f i COM.obj
 0001:0000f1e0       ??D?$_Iterator@$00@?$list@PAVCBufferEx@@V?$allocator@PAVCBufferEx@@@std@@@std@@QBEAAPAVCBufferEx@@XZ 004101e0 f i COM.obj
 0001:0000f200       ??1?$_List_val@PAVCBufferEx@@V?$allocator@PAVCBufferEx@@@std@@@std@@QAE@XZ 00410200 f i COM.obj
 0001:0000f220       ??1?$_List_ptr@PAVCBufferEx@@V?$allocator@PAVCBufferEx@@@std@@@std@@QAE@XZ 00410220 f i COM.obj
 0001:0000f240       ??1?$_List_nod@PAVCBufferEx@@V?$allocator@PAVCBufferEx@@@std@@@std@@QAE@XZ 00410240 f i COM.obj
 0001:0000f260       ?StringCompareIgnore@?$ChTraitsCRT@D@ATL@@SAHPBD0@Z 00410260 f i COM.obj
 0001:0000f280       ?_Nextnode@?$list@PAVCBufferEx@@V?$allocator@PAVCBufferEx@@@std@@@std@@KAAAPAU_Node@?$_List_nod@PAVCBufferEx@@V?$allocator@PAVCBufferEx@@@std@@@2@PAU342@@Z 00410280 f i COM.obj
 0001:0000f290       ?end@?$list@PAVCBufferEx@@V?$allocator@PAVCBufferEx@@@std@@@std@@QAE?AV?$_Iterator@$00@12@XZ 00410290 f i COM.obj
 0001:0000f2c0       ?_Insert@?$list@PAVCBufferEx@@V?$allocator@PAVCBufferEx@@@std@@@std@@QAEXV?$_Const_iterator@$00@12@ABQAVCBufferEx@@@Z 004102c0 f i COM.obj
 0001:0000f340       ?erase@?$list@PAVCBufferEx@@V?$allocator@PAVCBufferEx@@@std@@@std@@QAE?AV?$_Iterator@$00@12@V?$_Const_iterator@$00@12@@Z 00410340 f i COM.obj
 0001:0000f410       ?_Buynode@?$list@PAVCBufferEx@@V?$allocator@PAVCBufferEx@@@std@@@std@@IAEPAU_Node@?$_List_nod@PAVCBufferEx@@V?$allocator@PAVCBufferEx@@@std@@@2@XZ 00410410 f i COM.obj
 0001:0000f510       ?_Tidy@?$list@PAVCBufferEx@@V?$allocator@PAVCBufferEx@@@std@@@std@@IAEXXZ 00410510 f i COM.obj
 0001:0000f580       ??0?$_List_val@PAVCBufferEx@@V?$allocator@PAVCBufferEx@@@std@@@std@@QAE@V?$allocator@PAVCBufferEx@@@1@@Z 00410580 f i COM.obj
 0001:0000f5c0       ??1?$_Container_base_aux_alloc_real@V?$allocator@PAVCBufferEx@@@std@@@std@@IAE@XZ 004105c0 f i COM.obj
 0001:0000f620       ??0?$_Iterator@$00@?$list@PAVCBufferEx@@V?$allocator@PAVCBufferEx@@@std@@@std@@QAE@PAU_Node@?$_List_nod@PAVCBufferEx@@V?$allocator@PAVCBufferEx@@@std@@@2@PBV12@@Z 00410620 f i COM.obj
 0001:0000f640       ??D?$_Const_iterator@$00@?$list@PAVCBufferEx@@V?$allocator@PAVCBufferEx@@@std@@@std@@QBEABQAVCBufferEx@@XZ 00410640 f i COM.obj
 0001:0000f6a0       ?_Getmycont@_Iterator_base_aux@std@@QBEPBV_Container_base_aux@2@XZ 004106a0 f i COM.obj
 0001:0000f6d0       ?_Getcont@_Aux_cont@std@@QBEPBV_Container_base_aux@2@XZ 004106d0 f i COM.obj
 0001:0000f6d0       ??B?$CSimpleStringT@D$0A@@ATL@@QBEPBDXZ 004106d0 f i COM.obj
 0001:0000f6d0       ?GetString@?$CSimpleStringT@D$0A@@ATL@@QBEPBDXZ 004106d0 f i AccessoriUpTableSet.obj
 0001:0000f6e0       ?_Has_container@_Iterator_base_aux@std@@QBE_NXZ 004106e0 f i COM.obj
 0001:0000f700       ?_Prevnode@?$list@PAVCBufferEx@@V?$allocator@PAVCBufferEx@@@std@@@std@@KAAAPAU_Node@?$_List_nod@PAVCBufferEx@@V?$allocator@PAVCBufferEx@@@std@@@2@PAU342@@Z 00410700 f i COM.obj
 0001:0000f710       ?_Myval@?$list@PAVCBufferEx@@V?$allocator@PAVCBufferEx@@@std@@@std@@KAAAPAVCBufferEx@@PAU_Node@?$_List_nod@PAVCBufferEx@@V?$allocator@PAVCBufferEx@@@std@@@2@@Z 00410710 f i COM.obj
 0001:0000f720       ?_Make_iter@?$list@PAVCBufferEx@@V?$allocator@PAVCBufferEx@@@std@@@std@@QBE?AV?$_Iterator@$00@12@V?$_Const_iterator@$00@12@@Z 00410720 f i COM.obj
 0001:0000f740       ?clear@?$list@PAVCBufferEx@@V?$allocator@PAVCBufferEx@@@std@@@std@@QAEXXZ 00410740 f i COM.obj
 0001:0000f7e0       ?_Buynode@?$list@PAVCBufferEx@@V?$allocator@PAVCBufferEx@@@std@@@std@@IAEPAU_Node@?$_List_nod@PAVCBufferEx@@V?$allocator@PAVCBufferEx@@@std@@@2@PAU342@0ABQAVCBufferEx@@@Z 004107e0 f i COM.obj
 0001:0000f930       ?_Incsize@?$list@PAVCBufferEx@@V?$allocator@PAVCBufferEx@@@std@@@std@@IAEXI@Z 00410930 f i COM.obj
 0001:0000f9d0       ??0length_error@std@@QAE@ABV?$basic_string@DU?$char_traits@D@std@@V?$allocator@D@2@@1@@Z 004109d0 f i COM.obj
 0001:0000fa00       ??0logic_error@std@@QAE@ABV?$basic_string@DU?$char_traits@D@std@@V?$allocator@D@2@@1@@Z 00410a00 f i COM.obj
 0001:0000fa70       ?what@logic_error@std@@UBEPBDXZ 00410a70 f i COM.obj
 0001:0000fa90       ??_Elogic_error@std@@UAEPAXI@Z 00410a90 f i COM.obj
 0001:0000fa90       ??_Glogic_error@std@@UAEPAXI@Z 00410a90 f i COM.obj
 0001:0000fac0       ??1logic_error@std@@UAE@XZ 00410ac0 f i COM.obj
 0001:0000faf0       ??1length_error@std@@UAE@XZ 00410af0 f i COM.obj
 0001:0000fb10       ??_Glength_error@std@@UAEPAXI@Z 00410b10 f i COM.obj
 0001:0000fb10       ??_Elength_error@std@@UAEPAXI@Z 00410b10 f i COM.obj
 0001:0000fb40       ??0?$basic_string@DU?$char_traits@D@std@@V?$allocator@D@2@@std@@QAE@ABV01@@Z 00410b40 f i COM.obj
 0001:0000fb80       ??1?$basic_string@DU?$char_traits@D@std@@V?$allocator@D@2@@std@@QAE@XZ 00410b80 f i COM.obj
 0001:0000fba0       ?c_str@?$basic_string@DU?$char_traits@D@std@@V?$allocator@D@2@@std@@QBEPBDXZ 00410ba0 f i COM.obj
 0001:0000fbc0       ?assign@?$basic_string@DU?$char_traits@D@std@@V?$allocator@D@2@@std@@QAEAAV12@ABV12@II@Z 00410bc0 f i COM.obj
 0001:0000fc80       ?size@?$basic_string@DU?$char_traits@D@std@@V?$allocator@D@2@@std@@QBEIXZ 00410c80 f i COM.obj
 0001:0000fc80       ?GetCrcValue@CCompressManager@@QAEJXZ 00410c80 f i ServerDlg2.obj
 0001:0000fca0       ?_Tidy@?$basic_string@DU?$char_traits@D@std@@V?$allocator@D@2@@std@@IAEX_NI@Z 00410ca0 f i COM.obj
 0001:0000fd20       ?_Myptr@?$basic_string@DU?$char_traits@D@std@@V?$allocator@D@2@@std@@IBEPBDXZ 00410d20 f i COM.obj
 0001:0000fd20       ?_Myptr@?$basic_string@DU?$char_traits@D@std@@V?$allocator@D@2@@std@@IAEPADXZ 00410d20 f i COM.obj
 0001:0000fd50       ??0?$_String_val@DV?$allocator@D@std@@@std@@QAE@ABV01@@Z 00410d50 f i COM.obj
 0001:0000fd70       ?erase@?$basic_string@DU?$char_traits@D@std@@V?$allocator@D@2@@std@@QAEAAV12@II@Z 00410d70 f i COM.obj
 0001:0000fe10       ?_Eos@?$basic_string@DU?$char_traits@D@std@@V?$allocator@D@2@@std@@IAEXI@Z 00410e10 f i COM.obj
 0001:0000fe50       ?assign@?$char_traits@D@std@@SAXAADABD@Z 00410e50 f i COM.obj
 0001:0000fe60       ?_Grow@?$basic_string@DU?$char_traits@D@std@@V?$allocator@D@2@@std@@IAE_NI_N@Z 00410e60 f i COM.obj
 0001:0000ff00       ??0?$_List_ptr@PAVCBufferEx@@V?$allocator@PAVCBufferEx@@@std@@@std@@IAE@V?$allocator@PAVCBufferEx@@@1@@Z 00410f00 f i COM.obj
 0001:0000ff40       ?deallocate@?$allocator@U_Node@?$_List_nod@PAVCBufferEx@@V?$allocator@PAVCBufferEx@@@std@@@std@@@std@@QAEXPAU_Node@?$_List_nod@PAVCBufferEx@@V?$allocator@PAVCBufferEx@@@std@@@2@I@Z 00410f40 f i COM.obj
 0001:0000ff40       ?deallocate@?$allocator@V_Aux_cont@std@@@std@@QAEXPAV_Aux_cont@2@I@Z 00410f40 f i COM.obj
 0001:0000ff40       ?deallocate@?$allocator@D@std@@QAEXPADI@Z 00410f40 f i COM.obj
 0001:0000ff60       ?allocate@?$allocator@U_Node@?$_List_nod@PAVCBufferEx@@V?$allocator@PAVCBufferEx@@@std@@@std@@@std@@QAEPAU_Node@?$_List_nod@PAVCBufferEx@@V?$allocator@PAVCBufferEx@@@std@@@2@I@Z 00410f60 f i COM.obj
 0001:0000ff80       ?destroy@?$allocator@U_Node@?$_List_nod@PAVCBufferEx@@V?$allocator@PAVCBufferEx@@@std@@@std@@@std@@QAEXPAU_Node@?$_List_nod@PAVCBufferEx@@V?$allocator@PAVCBufferEx@@@std@@@2@@Z 00410f80 f i COM.obj
 0001:0000ff80       ?destroy@?$allocator@PAU_Node@?$_List_nod@PAVCBufferEx@@V?$allocator@PAVCBufferEx@@@std@@@std@@@std@@QAEXPAPAU_Node@?$_List_nod@PAVCBufferEx@@V?$allocator@PAVCBufferEx@@@std@@@2@@Z 00410f80 f i COM.obj
 0001:0000ffa0       ??0?$_Const_iterator@$00@?$list@PAVCBufferEx@@V?$allocator@PAVCBufferEx@@@std@@@std@@QAE@PAU_Node@?$_List_nod@PAVCBufferEx@@V?$allocator@PAVCBufferEx@@@std@@@2@PBV12@@Z 00410fa0 f i COM.obj
 0001:0000fff0       ?_Set_container@_Iterator_base_aux@std@@QAEXQBV_Container_base_aux@2@@Z 00410ff0 f i COM.obj
 0001:00010010       ??E?$_Const_iterator@$00@?$list@PAVCBufferEx@@V?$allocator@PAVCBufferEx@@@std@@@std@@QAE?AV012@H@Z 00411010 f i COM.obj
 0001:00010050       ??0length_error@std@@QAE@ABV01@@Z 00411050 f i COM.obj
 0001:00010080       ??0logic_error@std@@QAE@ABV01@@Z 00411080 f i COM.obj
 0001:000100f0       ??0?$_Bidit@PAVCBufferEx@@HPBQAV1@ABQAV1@@std@@QAE@XZ 004110f0 f i COM.obj
 0001:00010110       ??0?$_Iterator_with_base@Ubidirectional_iterator_tag@std@@PAVCBufferEx@@HPBQAV3@ABQAV3@V_Iterator_base_aux@2@@std@@QAE@XZ 00411110 f i COM.obj
 0001:00010130       ??0_Iterator_base_aux@std@@QAE@XZ 00411130 f i COM.obj
 0001:00010150       ??0?$basic_string@DU?$char_traits@D@std@@V?$allocator@D@2@@std@@QAE@PBD@Z 00411150 f i COM.obj
 0001:00010190       ?max_size@?$basic_string@DU?$char_traits@D@std@@V?$allocator@D@2@@std@@QBEIXZ 00411190 f i COM.obj
 0001:000101d0       ?_Copy@?$basic_string@DU?$char_traits@D@std@@V?$allocator@D@2@@std@@IAEXII@Z 004111d0 f i COM.obj
 0001:00010350       ?max_size@?$list@PAVCBufferEx@@V?$allocator@PAVCBufferEx@@@std@@@std@@QBEIXZ 00411350 f i COM.obj
 0001:00010370       ??0?$_List_nod@PAVCBufferEx@@V?$allocator@PAVCBufferEx@@@std@@@std@@IAE@V?$allocator@PAVCBufferEx@@@1@@Z 00411370 f i COM.obj
 0001:000103b0       ?construct@?$allocator@PAU_Node@?$_List_nod@PAVCBufferEx@@V?$allocator@PAVCBufferEx@@@std@@@std@@@std@@QAEXPAPAU_Node@?$_List_nod@PAVCBufferEx@@V?$allocator@PAVCBufferEx@@@std@@@2@ABQAU342@@Z 004113b0 f i COM.obj
 0001:000103b0       ?construct@?$allocator@PAVCBufferEx@@@std@@QAEXPAPAVCBufferEx@@ABQAV3@@Z 004113b0 f i COM.obj
 0001:000103d0       ??E?$_Const_iterator@$00@?$list@PAVCBufferEx@@V?$allocator@PAVCBufferEx@@@std@@@std@@QAEAAV012@XZ 004113d0 f i COM.obj
 0001:00010440       ?assign@?$basic_string@DU?$char_traits@D@std@@V?$allocator@D@2@@std@@QAEAAV12@PBD@Z 00411440 f i COM.obj
 0001:00010470       ?length@?$char_traits@D@std@@SAIPBD@Z 00411470 f i COM.obj
 0001:00010490       ??0?$_String_val@DV?$allocator@D@std@@@std@@IAE@V?$allocator@D@1@@Z 00411490 f i COM.obj
 0001:000104b0       ?allocate@?$allocator@D@std@@QAEPADI@Z 004114b0 f i COM.obj
 0001:000104d0       ?max_size@?$allocator@D@std@@QBEIXZ 004114d0 f i COM.obj
 0001:00010500       ??0?$_Container_base_aux_alloc_real@V?$allocator@PAVCBufferEx@@@std@@@std@@IAE@V?$allocator@PAVCBufferEx@@@1@@Z 00411500 f i COM.obj
 0001:000105c0       ??0_Aux_cont@std@@QAE@QBV_Container_base_aux@1@@Z 004115c0 f i COM.obj
 0001:000105e0       ??0?$allocator@PAVCBufferEx@@@std@@QAE@XZ 004115e0 f i COM.obj
 0001:000105e0       ??0CObject@@IAE@XZ         004115e0 f i CBSocket.obj
 0001:000105e0       ??0_Container_base_aux@std@@QAE@XZ 004115e0 f i COM.obj
 0001:000105e0       ??0CRect@@QAE@XZ           004115e0 f i CELL.obj
 0001:000105e0       ??0CSize@@QAE@XZ           004115e0 f i CELL.obj
 0001:000105e0       ??0CPoint@@QAE@XZ          004115e0 f i CELL.obj
 0001:000105e0       ??0?$allocator@D@std@@QAE@XZ 004115e0 f i COM.obj
 0001:000105f0       ?max_size@?$allocator@PAVCBufferEx@@@std@@QBEIXZ 004115f0 f i COM.obj
 0001:00010620       ?assign@?$basic_string@DU?$char_traits@D@std@@V?$allocator@D@2@@std@@QAEAAV12@PBDI@Z 00411620 f i COM.obj
 0001:000106b0       ?allocate@?$allocator@V_Aux_cont@std@@@std@@QAEPAV_Aux_cont@2@I@Z 004116b0 f i COM.obj
 0001:000106d0       ?_Inside@?$basic_string@DU?$char_traits@D@std@@V?$allocator@D@2@@std@@IAE_NPBD@Z 004116d0 f i COM.obj
 0001:00010710       ?Format@?$CStringT@DV?$StrTraitMFC@DV?$ChTraitsCRT@D@ATL@@@@@ATL@@QAAXIZZ 00411710 f i COM.obj
 0001:000107c0       ??$_snprintf_s@$0EAA@@@YAHAAY0EAA@DIPBDZZ 004117c0 f i COM.obj
 0001:000107f0       ??$copy_s@U?$char_traits@D@std@@@_Traits_helper@std@@YAPADPADIPBDI@Z 004117f0 f i COM.obj
 0001:00010820       ??$move_s@U?$char_traits@D@std@@@_Traits_helper@std@@YAPADPADIPBDI@Z 00411820 f i COM.obj
 0001:00010850       ??$?0PAVCBufferEx@@@?$allocator@PAU_Node@?$_List_nod@PAVCBufferEx@@V?$allocator@PAVCBufferEx@@@std@@@std@@@std@@QAE@ABV?$allocator@PAVCBufferEx@@@1@@Z 00411850 f i COM.obj
 0001:00010850       ??$?0PAVCBufferEx@@@?$allocator@V_Aux_cont@std@@@std@@QAE@ABV?$allocator@PAVCBufferEx@@@1@@Z 00411850 f i COM.obj
 0001:00010850       ??0?$allocator@PAVCBufferEx@@@std@@QAE@ABV01@@Z 00411850 f i COM.obj
 0001:00010850       ??$?0PAVCBufferEx@@@?$allocator@U_Node@?$_List_nod@PAVCBufferEx@@V?$allocator@PAVCBufferEx@@@std@@@std@@@std@@QAE@ABV?$allocator@PAVCBufferEx@@@1@@Z 00411850 f i COM.obj
 0001:00010850       ??0?$allocator@D@std@@QAE@ABV01@@Z 00411850 f i COM.obj
 0001:00010860       ??$_Allocate@U_Node@?$_List_nod@PAVCBufferEx@@V?$allocator@PAVCBufferEx@@@std@@@std@@@std@@YAPAU_Node@?$_List_nod@PAVCBufferEx@@V?$allocator@PAVCBufferEx@@@std@@@0@IPAU120@@Z 00411860 f i COM.obj
 0001:000108b0       ??0bad_alloc@std@@QAE@PBD@Z 004118b0 f i COM.obj
 0001:000108e0       ??1bad_alloc@std@@UAE@XZ   004118e0 f i COM.obj
 0001:00010900       ??_Gbad_alloc@std@@UAEPAXI@Z 00411900 f i COM.obj
 0001:00010900       ??_Ebad_alloc@std@@UAEPAXI@Z 00411900 f i COM.obj
 0001:00010930       ??$_Destroy@PAU_Node@?$_List_nod@PAVCBufferEx@@V?$allocator@PAVCBufferEx@@@std@@@std@@@std@@YAXPAPAU_Node@?$_List_nod@PAVCBufferEx@@V?$allocator@PAVCBufferEx@@@std@@@0@@Z 00411930 f i COM.obj
 0001:00010930       ??$_Destroy@U_Node@?$_List_nod@PAVCBufferEx@@V?$allocator@PAVCBufferEx@@@std@@@std@@@std@@YAXPAU_Node@?$_List_nod@PAVCBufferEx@@V?$allocator@PAVCBufferEx@@@std@@@0@@Z 00411930 f i COM.obj
 0001:00010930       ??3@YAXPAX0@Z              00411930 f i COM.obj
 0001:00010940       ??$_Construct@PAVCBufferEx@@PAV1@@std@@YAXPAPAVCBufferEx@@ABQAV1@@Z 00411940 f i COM.obj
 0001:00010940       ??$_Construct@PAU_Node@?$_List_nod@PAVCBufferEx@@V?$allocator@PAVCBufferEx@@@std@@@std@@PAU123@@std@@YAXPAPAU_Node@?$_List_nod@PAVCBufferEx@@V?$allocator@PAVCBufferEx@@@std@@@0@ABQAU120@@Z 00411940 f i COM.obj
 0001:00010980       ??$_Allocate@D@std@@YAPADIPAD@Z 00411980 f i COM.obj
 0001:000109d0       ??$_Allocate@V_Aux_cont@std@@@std@@YAPAV_Aux_cont@0@IPAV10@@Z 004119d0 f i COM.obj
 0001:00010a20       ??0bad_alloc@std@@QAE@ABV01@@Z 00411a20 f i COM.obj
 0001:00010a50       ??0?$CStringT@DV?$StrTraitMFC@DV?$ChTraitsCRT@D@ATL@@@@@ATL@@QAE@PAUIAtlStringMgr@1@@Z 00411a50 f i COM.obj
 0001:00010a70       ?GetManager@?$CStringT@DV?$StrTraitMFC@DV?$ChTraitsCRT@D@ATL@@@@@ATL@@QBEPAUIAtlStringMgr@2@XZ 00411a70 f i COM.obj
 0001:00010ab0       ?GetManager@?$CSimpleStringT@D$0A@@ATL@@QBEPAUIAtlStringMgr@2@XZ 00411ab0 f i COM.obj
 0001:00010af0       ??$_Char_traits_cat@U?$char_traits@D@std@@@std@@YA?AU_Secure_char_traits_tag@0@XZ 00411af0 f i COM.obj
 0001:00010b00       ??$copy_s@U?$char_traits@D@std@@@_Traits_helper@std@@YAPADPADIPBDIU_Secure_char_traits_tag@1@@Z 00411b00 f i COM.obj
 0001:00010b20       ?_Copy_s@?$char_traits@D@std@@SAPADPADIPBDI@Z 00411b20 f i COM.obj
 0001:00010b40       ??$move_s@U?$char_traits@D@std@@@_Traits_helper@std@@YAPADPADIPBDIU_Secure_char_traits_tag@1@@Z 00411b40 f i COM.obj
 0001:00010b60       ?_Move_s@?$char_traits@D@std@@SAPADPADIPBDI@Z 00411b60 f i COM.obj
 0001:00010b80       ?GetSize@CByteArray@@QBEHXZ 00411b80 f i GuildFortress.obj
 0001:00010b80       ?GetSize@?$CArray@HH@@QBEHXZ 00411b80 f i CELL.obj
 0001:00010b80       ?GetSize@CWordArray@@QBEHXZ 00411b80 f i COM.obj
 0001:00010b80       ?GetSize@CPtrArray@@QBEHXZ 00411b80 f i CELL.obj
 0001:00010b80       ?GetStatus@COleDateTime@ATL@@QBE?AW4DateTimeStatus@12@XZ 00411b80 f i COM.obj
 0001:00010b80       ?GetSize@CUIntArray@@QBEHXZ 00411b80 f i USER2.obj
 0001:00010b80       ?GetSize@?$CArray@VCPoint@@V1@@@QBEHXZ 00411b80 f i CELL.obj
 0001:00010b80       ?GetSize@CDWordArray@@QBEHXZ 00411b80 f i COM.obj
 0001:00010ba0       ??ACWordArray@@QAEAAGH@Z   00411ba0 f i COM.obj
 0001:00010bc0       ?ElementAt@CWordArray@@QAEAAGH@Z 00411bc0 f i COM.obj
 0001:00010bf0       ??0COleDateTime@ATL@@QAE@ABU_SYSTEMTIME@@@Z 00411bf0 f i COM.obj
 0001:00010c20       ??0COleDateTime@ATL@@QAE@HHHHHH@Z 00411c20 f i COM.obj
 0001:00010c50       ?GetYear@COleDateTime@ATL@@QBEHXZ 00411c50 f i COM.obj
 0001:00010c90       ?GetAsSystemTime@COleDateTime@ATL@@QBE_NAAU_SYSTEMTIME@@@Z 00411c90 f i COM.obj
 0001:00010ce0       ?GetMonth@COleDateTime@ATL@@QBEHXZ 00411ce0 f i COM.obj
 0001:00010d20       ?GetDay@COleDateTime@ATL@@QBEHXZ 00411d20 f i COM.obj
 0001:00010d60       ?GetHour@COleDateTime@ATL@@QBEHXZ 00411d60 f i COM.obj
 0001:00010da0       ?GetMinute@COleDateTime@ATL@@QBEHXZ 00411da0 f i COM.obj
 0001:00010de0       ?GetSecond@COleDateTime@ATL@@QBEHXZ 00411de0 f i COM.obj
 0001:00010e20       ??4COleDateTime@ATL@@QAEAAV01@ABU_SYSTEMTIME@@@Z 00411e20 f i COM.obj
 0001:00010e50       ?ConvertSystemTimeToVariantTime@COleDateTime@ATL@@IAEHABU_SYSTEMTIME@@@Z 00411e50 f i COM.obj
 0001:00010e70       ?AtlConvertSystemTimeToVariantTime@ATL@@YAHABU_SYSTEMTIME@@PAN@Z 00411e70 f i COM.obj
 0001:00010f70       ?SetDateTime@COleDateTime@ATL@@QAEHHHHHHH@Z 00411f70 f i COM.obj
 0001:00010fe0       ?SetByte@@YAXPADEAAH@Z     00411fe0 f i COM.obj
 0001:00011000       ?SetShort@@YAXPADHAAH@Z    00412000 f i COM.obj
 0001:00011040       ?SetDWORD@@YAXPADKAAH@Z    00412040 f i COM.obj
 0001:00011040       ?SetInt@@YAXPADHAAH@Z      00412040 f i GuildFortress.obj
 0001:00011070       ??4?$CStringT@DV?$StrTraitMFC@DV?$ChTraitsCRT@D@ATL@@@@@ATL@@QAEAAV01@ABV01@@Z 00412070 f i COM.obj
 0001:00011090       ?ReleaseBuffer@?$CSimpleStringT@D$0A@@ATL@@QAEXH@Z 00412090 f i COM.obj
 0001:000110e0       ??4?$CSimpleStringT@D$0A@@ATL@@QAEAAV01@ABV01@@Z 004120e0 f i COM.obj
 0001:00011170       ?StringLengthN@?$CSimpleStringT@D$0A@@ATL@@SAHPBDI@Z 00412170 f i COM.obj
 0001:00011190       ?CloneData@?$CSimpleStringT@D$0A@@ATL@@CAPAUCStringData@2@PAU32@@Z 00412190 f i COM.obj
 0001:00011240       ?AddRef@CStringData@ATL@@QAEXXZ 00412240 f i COM.obj
 0001:00011260       ?Format@?$CStringT@DV?$StrTraitMFC@DV?$ChTraitsCRT@D@ATL@@@@@ATL@@QAAXPBDZZ 00412260 f i COM.obj
 0001:00011290       ?AppendFormat@?$CStringT@DV?$StrTraitMFC@DV?$ChTraitsCRT@D@ATL@@@@@ATL@@QAAXPBDZZ 00412290 f i COM.obj
 0001:000112c0       ?AppendFormatV@?$CStringT@DV?$StrTraitMFC@DV?$ChTraitsCRT@D@ATL@@@@@ATL@@QAEXPBDPAD@Z 004122c0 f i COM.obj
 0001:00011330       ?FormatV@?$CStringT@DV?$StrTraitMFC@DV?$ChTraitsCRT@D@ATL@@@@@ATL@@QAEXPBDPAD@Z 00412330 f i COM.obj
 0001:000113a0       ?GetFormattedLength@?$ChTraitsCRT@D@ATL@@SAHPBDPAD@Z 004123a0 f i COM.obj
 0001:000113c0       ?Format@?$ChTraitsCRT@D@ATL@@SAHPADIPBD0@Z 004123c0 f i COM.obj
 0001:000113e0       ??0CCompressManager@@QAE@XZ 004123e0 f   Compress.obj
 0001:00011440       ??1CCompressManager@@UAE@XZ 00412440 f   Compress.obj
 0001:00011490       ?AddData@CCompressManager@@QAEHPADJ@Z 00412490 f   Compress.obj
 0001:00011600       ?ReadBuffer@@YAIPADPAIPAX@Z 00412600 f   Compress.obj
 0001:000116c0       ?WriteBuffer@@YAXPADPAIPAX@Z 004126c0 f   Compress.obj
 0001:00011770       ?PreCompressWork@CCompressManager@@QAEHXZ 00412770 f   Compress.obj
 0001:00011980       ?Compress@CCompressManager@@QAEHXZ 00412980 f   Compress.obj
 0001:000119e0       ?FlushAddData@CCompressManager@@QAEXXZ 004129e0 f   Compress.obj
 0001:00011b70       ?SetCompressionData@CCompressManager@@QAEXPADJ@Z 00412b70 f   Compress.obj
 0001:00011bc0       ?PreUncompressWork@CCompressManager@@QAEHJJ@Z 00412bc0 f   Compress.obj
 0001:00011d00       ?Extract@CCompressManager@@QAEHXZ 00412d00 f   Compress.obj
 0001:00011d50       ?FlushExtractedData@CCompressManager@@QAEXXZ 00412d50 f   Compress.obj
 0001:00011e20       ??_ECCompressManager@@UAEPAXI@Z 00412e20 f i Compress.obj
 0001:00011e20       ??_GCCompressManager@@UAEPAXI@Z 00412e20 f i Compress.obj
 0001:00011e50       ??0CCompressData@@QAE@XZ   00412e50 f i Compress.obj
 0001:00011e80       ?SetDataPtr@CCompressData@@QAEXPAD@Z 00412e80 f i Compress.obj
 0001:00011ea0       ??_GCCompressData@@UAEPAXI@Z 00412ea0 f i Compress.obj
 0001:00011ea0       ??_ECCompressData@@UAEPAXI@Z 00412ea0 f i Compress.obj
 0001:00011ed0       ??1CCompressData@@UAE@XZ   00412ed0 f i Compress.obj
 0001:00011f50       ?GetNext@CObList@@QAEAAPAVCObject@@AAPAU__POSITION@@@Z 00412f50 f i Compress.obj
 0001:00011f90       ?GetAt@CObList@@QAEAAPAVCObject@@PAU__POSITION@@@Z 00412f90 f i Compress.obj
 0001:00011fc0       ?GetRuntimeClass@CDBItemInfo@@UBEPAUCRuntimeClass@@XZ 00412fc0 f   DBItemInfo.obj
 0001:00011fd0       ??0CDBItemInfo@@QAE@PAVCDatabase@@@Z 00412fd0 f   DBItemInfo.obj
 0001:00012190       ?GetDefaultConnect@CDBItemInfo@@UAE?AV?$CStringT@DV?$StrTraitMFC@DV?$ChTraitsCRT@D@ATL@@@@@ATL@@XZ 00413190 f   DBItemInfo.obj
 0001:000121c0       ?GetDefaultSQL@CDBItemInfo@@UAE?AV?$CStringT@DV?$StrTraitMFC@DV?$ChTraitsCRT@D@ATL@@@@@ATL@@XZ 004131c0 f   DBItemInfo.obj
 0001:000121f0       ?DoFieldExchange@CDBItemInfo@@UAEXPAVCFieldExchange@@@Z 004131f0 f   DBItemInfo.obj
 0001:00012490       ??0CDNTable@@QAE@XZ        00413490 f   DNTable.obj
 0001:000124d0       ??1CDNTable@@UAE@XZ        004134d0 f   DNTable.obj
 0001:000124f0       ??_ECDNTable@@UAEPAXI@Z    004134f0 f i DNTable.obj
 0001:000124f0       ??_GCDNTable@@UAEPAXI@Z    004134f0 f i DNTable.obj
 0001:00012520       ?GetRuntimeClass@CDNTableSet@@UBEPAUCRuntimeClass@@XZ 00413520 f   DNTableSet.obj
 0001:00012530       ??0CDNTableSet@@QAE@PAVCDatabase@@@Z 00413530 f   DNTableSet.obj
 0001:000125a0       ?GetDefaultConnect@CDNTableSet@@UAE?AV?$CStringT@DV?$StrTraitMFC@DV?$ChTraitsCRT@D@ATL@@@@@ATL@@XZ 004135a0 f   DNTableSet.obj
 0001:000125d0       ?GetDefaultSQL@CDNTableSet@@UAE?AV?$CStringT@DV?$StrTraitMFC@DV?$ChTraitsCRT@D@ATL@@@@@ATL@@XZ 004135d0 f   DNTableSet.obj
 0001:00012600       ?DoFieldExchange@CDNTableSet@@UAEXPAVCFieldExchange@@@Z 00413600 f   DNTableSet.obj
 0001:00012660       ?GetRuntimeClass@CDressingSet@@UBEPAUCRuntimeClass@@XZ 00413660 f   DressingSet.obj
 0001:00012670       ??0CDressingSet@@QAE@PAVCDatabase@@@Z 00413670 f   DressingSet.obj
 0001:000127f0       ?GetDefaultConnect@CDressingSet@@UAE?AV?$CStringT@DV?$StrTraitMFC@DV?$ChTraitsCRT@D@ATL@@@@@ATL@@XZ 004137f0 f   DressingSet.obj
 0001:00012820       ?GetDefaultSQL@CDressingSet@@UAE?AV?$CStringT@DV?$StrTraitMFC@DV?$ChTraitsCRT@D@ATL@@@@@ATL@@XZ 00413820 f   DressingSet.obj
 0001:00012850       ?DoFieldExchange@CDressingSet@@UAEXPAVCFieldExchange@@@Z 00413850 f   DressingSet.obj
 0001:00012aa0       ??0CEBodyIdentifyTable@@QAE@XZ 00413aa0 f   EBodyIdentifyTable.obj
 0001:00012ac0       ??1CEBodyIdentifyTable@@UAE@XZ 00413ac0 f   EBodyIdentifyTable.obj
 0001:00012ae0       ??_ECEBodyIdentifyTable@@UAEPAXI@Z 00413ae0 f i EBodyIdentifyTable.obj
 0001:00012ae0       ??_GCEBodyIdentifyTable@@UAEPAXI@Z 00413ae0 f i EBodyIdentifyTable.obj
 0001:00012b10       ?GetRuntimeClass@CEBodyIdentifyTableSet@@UBEPAUCRuntimeClass@@XZ 00413b10 f   EBodyIdentifyTableSet.obj
 0001:00012b20       ??0CEBodyIdentifyTableSet@@QAE@PAVCDatabase@@@Z 00413b20 f   EBodyIdentifyTableSet.obj
 0001:00012b70       ?GetDefaultConnect@CEBodyIdentifyTableSet@@UAE?AV?$CStringT@DV?$StrTraitMFC@DV?$ChTraitsCRT@D@ATL@@@@@ATL@@XZ 00413b70 f   EBodyIdentifyTableSet.obj
 0001:00012ba0       ?GetDefaultSQL@CEBodyIdentifyTableSet@@UAE?AV?$CStringT@DV?$StrTraitMFC@DV?$ChTraitsCRT@D@ATL@@@@@ATL@@XZ 00413ba0 f   EBodyIdentifyTableSet.obj
 0001:00012bd0       ?DoFieldExchange@CEBodyIdentifyTableSet@@UAEXPAVCFieldExchange@@@Z 00413bd0 f   EBodyIdentifyTableSet.obj
 0001:00012c00       ?GetRuntimeClass@CEBodyStoreSet@@UBEPAUCRuntimeClass@@XZ 00413c00 f   EBodyStoreSet.obj
 0001:00012c10       ??0CEBodyStoreSet@@QAE@PAVCDatabase@@@Z 00413c10 f   EBodyStoreSet.obj
 0001:00012c70       ?GetDefaultConnect@CEBodyStoreSet@@UAE?AV?$CStringT@DV?$StrTraitMFC@DV?$ChTraitsCRT@D@ATL@@@@@ATL@@XZ 00413c70 f   EBodyStoreSet.obj
 0001:00012ca0       ?GetDefaultSQL@CEBodyStoreSet@@UAE?AV?$CStringT@DV?$StrTraitMFC@DV?$ChTraitsCRT@D@ATL@@@@@ATL@@XZ 00413ca0 f   EBodyStoreSet.obj
 0001:00012cd0       ?DoFieldExchange@CEBodyStoreSet@@UAEXPAVCFieldExchange@@@Z 00413cd0 f   EBodyStoreSet.obj
 0001:00012d20       ??0CEBodyTable@@QAE@XZ     00413d20 f   EBodyTable.obj
 0001:00012d80       ??1CEBodyTable@@UAE@XZ     00413d80 f   EBodyTable.obj
 0001:00012da0       ??_GCEBodyTable@@UAEPAXI@Z 00413da0 f i EBodyTable.obj
 0001:00012da0       ??_ECEBodyTable@@UAEPAXI@Z 00413da0 f i EBodyTable.obj
 0001:00012dd0       ?GetRuntimeClass@CEBodyTableSet@@UBEPAUCRuntimeClass@@XZ 00413dd0 f   EBodyTableSet.obj
 0001:00012de0       ??0CEBodyTableSet@@QAE@PAVCDatabase@@@Z 00413de0 f   EBodyTableSet.obj
 0001:00012ee0       ?GetDefaultConnect@CEBodyTableSet@@UAE?AV?$CStringT@DV?$StrTraitMFC@DV?$ChTraitsCRT@D@ATL@@@@@ATL@@XZ 00413ee0 f   EBodyTableSet.obj
 0001:00012f10       ?GetDefaultSQL@CEBodyTableSet@@UAE?AV?$CStringT@DV?$StrTraitMFC@DV?$ChTraitsCRT@D@ATL@@@@@ATL@@XZ 00413f10 f   EBodyTableSet.obj
 0001:00012f40       ?DoFieldExchange@CEBodyTableSet@@UAEXPAVCFieldExchange@@@Z 00413f40 f   EBodyTableSet.obj
 0001:00013040       ??0CEBodyUpgradeTable@@QAE@XZ 00414040 f   EBodyUpgradeTable.obj
 0001:00013070       ??1CEBodyUpgradeTable@@UAE@XZ 00414070 f   EBodyUpgradeTable.obj
 0001:00013090       ??_GCEBodyUpgradeTable@@UAEPAXI@Z 00414090 f i EBodyUpgradeTable.obj
 0001:00013090       ??_ECEBodyUpgradeTable@@UAEPAXI@Z 00414090 f i EBodyUpgradeTable.obj
 0001:000130c0       ?GetRuntimeClass@CEBodyUpgradeTableSet@@UBEPAUCRuntimeClass@@XZ 004140c0 f   EBodyUpgradeTableSet.obj
 0001:000130d0       ??0CEBodyUpgradeTableSet@@QAE@PAVCDatabase@@@Z 004140d0 f   EBodyUpgradeTableSet.obj
 0001:00013130       ?GetDefaultConnect@CEBodyUpgradeTableSet@@UAE?AV?$CStringT@DV?$StrTraitMFC@DV?$ChTraitsCRT@D@ATL@@@@@ATL@@XZ 00414130 f   EBodyUpgradeTableSet.obj
 0001:00013160       ?GetDefaultSQL@CEBodyUpgradeTableSet@@UAE?AV?$CStringT@DV?$StrTraitMFC@DV?$ChTraitsCRT@D@ATL@@@@@ATL@@XZ 00414160 f   EBodyUpgradeTableSet.obj
 0001:00013190       ?DoFieldExchange@CEBodyUpgradeTableSet@@UAEXPAVCFieldExchange@@@Z 00414190 f   EBodyUpgradeTableSet.obj
 0001:000131f0       ?GetRuntimeClass@CErrorLog@@UBEPAUCRuntimeClass@@XZ 004141f0 f   ErrorLog.obj
 0001:00013200       ??0CErrorLog@@QAE@XZ       00414200 f   ErrorLog.obj
 0001:000132b0       ??1CErrorLog@@UAE@XZ       004142b0 f   ErrorLog.obj
 0001:00013340       ?OpenFile@CErrorLog@@QAEHPBD@Z 00414340 f   ErrorLog.obj
 0001:00013410       ?SetFullPath@CErrorLog@@QAEXH@Z 00414410 f   ErrorLog.obj
 0001:00013430       ?_WriteError@CErrorLog@@QAEHHPBD00HK@Z 00414430 f   ErrorLog.obj
 0001:000135b0       ?_WriteError@CErrorLog@@QAEHHPBD00H0@Z 004145b0 f   ErrorLog.obj
 0001:00013720       ?_ShowError@CErrorLog@@QAEHHPBD00HK@Z 00414720 f   ErrorLog.obj
 0001:00013870       ?GetSysErrorText@CErrorLog@@QAE?AV?$CStringT@DV?$StrTraitMFC@DV?$ChTraitsCRT@D@ATL@@@@@ATL@@K@Z 00414870 f   ErrorLog.obj
 0001:000138e0       ?GetSysErrorText@CErrorLog@@QAEKAAV?$CStringT@DV?$StrTraitMFC@DV?$ChTraitsCRT@D@ATL@@@@@ATL@@K@Z 004148e0 f   ErrorLog.obj
 0001:000139c0       ?GetErrorTime@CErrorLog@@AAEXXZ 004149c0 f   ErrorLog.obj
 0001:00013a10       ?RemoveReturn@CErrorLog@@QAEHAAV?$CStringT@DV?$StrTraitMFC@DV?$ChTraitsCRT@D@ATL@@@@@ATL@@@Z 00414a10 f   ErrorLog.obj
 0001:00013b10       ?GetProgPath@CErrorLog@@AAE?AV?$CStringT@DV?$StrTraitMFC@DV?$ChTraitsCRT@D@ATL@@@@@ATL@@XZ 00414b10 f   ErrorLog.obj
 0001:00013c30       ?GetFileName@CErrorLog@@QAE?AV?$CStringT@DV?$StrTraitMFC@DV?$ChTraitsCRT@D@ATL@@@@@ATL@@PBD@Z 00414c30 f   ErrorLog.obj
 0001:00013d20       ??_ECErrorLog@@UAEPAXI@Z   00414d20 f i ErrorLog.obj
 0001:00013d20       ??_GCErrorLog@@UAEPAXI@Z   00414d20 f i ErrorLog.obj
 0001:00013d50       ??Y?$CStringT@DV?$StrTraitMFC@DV?$ChTraitsCRT@D@ATL@@@@@ATL@@QAEAAV01@PBD@Z 00414d50 f i ErrorLog.obj
 0001:00013d70       ??Y?$CSimpleStringT@D$0A@@ATL@@QAEAAV01@PBD@Z 00414d70 f i ErrorLog.obj
 0001:00013d90       ?Append@?$CSimpleStringT@D$0A@@ATL@@QAEXPBD@Z 00414d90 f i ErrorLog.obj
 0001:00013dc0       ?Append@?$CSimpleStringT@D$0A@@ATL@@QAEXPBDH@Z 00414dc0 f i ErrorLog.obj
 0001:00013eb0       ?SeekToEnd@CFile@@QAE_KXZ  00414eb0 f i ErrorLog.obj
 0001:00013ed0       ?SetFilePath@CFile@@UAEXPBD@Z 00414ed0 f i ErrorLog.obj
 0001:00013f00       ?AfxGetApp@@YGPAVCWinApp@@XZ 00414f00 f i ErrorLog.obj
 0001:00013f10       ??0?$CStringT@DV?$StrTraitMFC@DV?$ChTraitsCRT@D@ATL@@@@@ATL@@QAE@ABV01@@Z 00414f10 f i ErrorLog.obj
 0001:00013f30       ??0?$CSimpleStringT@D$0A@@ATL@@QAE@ABV01@@Z 00414f30 f i ErrorLog.obj
 0001:00013f70       ??0EVENT@@QAE@XZ           00414f70 f   EVENT.obj
 0001:00013fe0       ??1EVENT@@UAE@XZ           00414fe0 f   EVENT.obj
 0001:00014040       ?LoadEvent@EVENT@@QAEHH@Z  00415040 f   EVENT.obj
 0001:000147d0       ?Init@EVENT@@QAEXXZ        004157d0 f   EVENT.obj
 0001:000147f0       ?Parsing@EVENT@@QAEXPAD@Z  004157f0 f   EVENT.obj
 0001:00014800       ?DeleteAll@EVENT@@QAEXXZ   00415800 f   EVENT.obj
 0001:00014890       ??_EEVENT@@UAEPAXI@Z       00415890 f i EVENT.obj
 0001:00014890       ??_GEVENT@@UAEPAXI@Z       00415890 f i EVENT.obj
 0001:000148c0       ??0?$CTypedPtrArray@VCPtrArray@@PAVEVENT_DATA@@@@QAE@XZ 004158c0 f i EVENT.obj
 0001:000148e0       ??5CArchive@@QAEAAV0@AAE@Z 004158e0 f i EVENT.obj
 0001:00014960       ?IsLoading@CArchive@@QBEHXZ 00415960 f i EVENT.obj
 0001:00014980       ??0EVENT_DATA@@QAE@XZ      00415980 f   EVENT_DATA.obj
 0001:00014a00       ??1EVENT_DATA@@UAE@XZ      00415a00 f   EVENT_DATA.obj
 0001:00014bf0       ??_EEVENT_DATA@@UAEPAXI@Z  00415bf0 f i EVENT_DATA.obj
 0001:00014bf0       ??_GEVENT_DATA@@UAEPAXI@Z  00415bf0 f i EVENT_DATA.obj
 0001:00014c20       ??0?$CTypedPtrArray@VCPtrArray@@PAVLOGIC@@@@QAE@XZ 00415c20 f i EVENT_DATA.obj
 0001:00014c40       ??0?$CTypedPtrArray@VCPtrArray@@PAVEXEC@@@@QAE@XZ 00415c40 f i EVENT_DATA.obj
 0001:00014c60       ??0?$CTypedPtrArray@VCPtrArray@@PAVLOGIC_ELSE@@@@QAE@XZ 00415c60 f i EVENT_DATA.obj
 0001:00014c80       ??0CEventBlockingTable@@QAE@XZ 00415c80 f   EventBlockingTable.obj
 0001:00014d20       ??1CEventBlockingTable@@UAE@XZ 00415d20 f   EventBlockingTable.obj
 0001:00014db0       ?CheckUserEvent@CEventBlockingTable@@QAEHHHHH@Z 00415db0 f   EventBlockingTable.obj
 0001:00015120       ??_GCEventBlockingTable@@UAEPAXI@Z 00416120 f i EventBlockingTable.obj
 0001:00015120       ??_ECEventBlockingTable@@UAEPAXI@Z 00416120 f i EventBlockingTable.obj
 0001:00015150       ??0?$CTypedPtrArray@VCPtrArray@@PAU_EVENT@@@@QAE@XZ 00416150 f i EventBlockingTable.obj
 0001:00015170       ??0CEventItemNew@@QAE@XZ   00416170 f   EventItemNew.obj
 0001:00015200       ??1CEventItemNew@@UAE@XZ   00416200 f   EventItemNew.obj
 0001:00015220       ??_ECEventItemNew@@UAEPAXI@Z 00416220 f i EventItemNew.obj
 0001:00015220       ??_GCEventItemNew@@UAEPAXI@Z 00416220 f i EventItemNew.obj
 0001:00015250       ??0CEventItemTable@@QAE@XZ 00416250 f   EventItemTable.obj
 0001:000152c0       ??1CEventItemTable@@UAE@XZ 004162c0 f   EventItemTable.obj
 0001:000152e0       ??_GCEventItemTable@@UAEPAXI@Z 004162e0 f i EventItemTable.obj
 0001:000152e0       ??_ECEventItemTable@@UAEPAXI@Z 004162e0 f i EventItemTable.obj
 0001:00015310       ?GetRuntimeClass@CEventItemTableSet@@UBEPAUCRuntimeClass@@XZ 00416310 f   EventItemTableSet.obj
 0001:00015320       ??0CEventItemTableSet@@QAE@PAVCDatabase@@@Z 00416320 f   EventItemTableSet.obj
 0001:000153f0       ?GetDefaultConnect@CEventItemTableSet@@UAE?AV?$CStringT@DV?$StrTraitMFC@DV?$ChTraitsCRT@D@ATL@@@@@ATL@@XZ 004163f0 f   EventItemTableSet.obj
 0001:00015420       ?GetDefaultSQL@CEventItemTableSet@@UAE?AV?$CStringT@DV?$StrTraitMFC@DV?$ChTraitsCRT@D@ATL@@@@@ATL@@XZ 00416420 f   EventItemTableSet.obj
 0001:00015450       ?DoFieldExchange@CEventItemTableSet@@UAEXPAVCFieldExchange@@@Z 00416450 f   EventItemTableSet.obj
 0001:00015500       ??_GCEventItemTableSet@@UAEPAXI@Z 00416500 f i EventItemTableSet.obj
 0001:00015500       ??_ECEventItemTableSet@@UAEPAXI@Z 00416500 f i EventItemTableSet.obj
 0001:00015500       ??_GCNpcSayEventSet@@UAEPAXI@Z 00416500 f i NpcSayEventSet.obj
 0001:00015500       ??_ECDBItemInfo@@UAEPAXI@Z 00416500 f i DBItemInfo.obj
 0001:00015500       ??_ECNpcPosSet@@UAEPAXI@Z  00416500 f i NpcPosSet.obj
 0001:00015500       ??_GCDBItemInfo@@UAEPAXI@Z 00416500 f i DBItemInfo.obj
 0001:00015500       ??_GCNpcPosSet@@UAEPAXI@Z  00416500 f i NpcPosSet.obj
 0001:00015500       ??_ECNpcSayEventSet@@UAEPAXI@Z 00416500 f i NpcSayEventSet.obj
 0001:00015530       ??0CEventZone@@QAE@XZ      00416530 f   EventZone.obj
 0001:00015600       ??1CEventZone@@UAE@XZ      00416600 f   EventZone.obj
 0001:00015670       ?GetEmptyEventZone@CEventZone@@QAEHXZ 00416670 f   EventZone.obj
 0001:000157e0       ?SingleInit@CEventZone@@QAEXXZ 004167e0 f   EventZone.obj
 0001:00015920       ?RemoveUserInEventZone@CEventZone@@QAEXH@Z 00416920 f   EventZone.obj
 0001:00015cd0       ?CheckSingleEventZoneWarEnd@CEventZone@@QAEXH@Z 00416cd0 f   EventZone.obj
 0001:00016000       ?CheckUserStateInEventZone@CEventZone@@QAEXH@Z 00417000 f   EventZone.obj
 0001:00016080       ??_GCEventZone@@UAEPAXI@Z  00417080 f i EventZone.obj
 0001:00016080       ??_ECEventZone@@UAEPAXI@Z  00417080 f i EventZone.obj
 0001:000160b0       ??0_EVENT_ZONE@@QAE@XZ     004170b0 f i EventZone.obj
 0001:000160d0       ??1_EVENT_ZONE@@QAE@XZ     004170d0 f i EventZone.obj
 0001:000160f0       ?GetCOM@CServerDlg@@QAEPAVCOM@@XZ 004170f0 f i EventZone.obj
 0001:00016110       ?Add@CWordArray@@QAEHG@Z   00417110 f i EventZone.obj
 0001:00016140       ??0EXEC@@QAE@XZ            00417140 f   EXEC.obj
 0001:00016160       ??1EXEC@@UAE@XZ            00417160 f   EXEC.obj
 0001:00016180       ?Parse@EXEC@@QAEXPAD@Z     00417180 f   EXEC.obj
 0001:0001aa90       ?Init@EXEC@@QAEXXZ         0041ba90 f   EXEC.obj
 0001:0001aad0       ??_EEXEC@@UAEPAXI@Z        0041bad0 f i EXEC.obj
 0001:0001aad0       ??_GEXEC@@UAEPAXI@Z        0041bad0 f i EXEC.obj
 0001:0001ab00       ?myrand@@YAHHHH@Z          0041bb00 f   global.obj
 0001:0001aba0       ?_DisplayErrorMsg@@YAXPAXPBDH@Z 0041bba0 f   global.obj
 0001:0001ac30       ?_ID@@YA?AV?$CStringT@DV?$StrTraitMFC@DV?$ChTraitsCRT@D@ATL@@@@@ATL@@G@Z 0041bc30 f   global.obj
 0001:0001acb0       ?_GetVarString@@YAHHPAD0AAH0H@Z 0041bcb0 f   global.obj
 0001:0001ad10       ?_GetVarLongString@@YAHHPAD0AAH0H@Z 0041bd10 f   global.obj
 0001:0001ad70       ?_GetString@@YAXPAD0HAAH0H@Z 0041bd70 f   global.obj
 0001:0001adf0       ?ParseSpace@@YAHPAD0@Z     0041bdf0 f   global.obj
 0001:0001aed0       ?ParseSpaceInUser@@YAHPAD0H@Z 0041bed0 f   global.obj
 0001:0001afc0       ?GetProgPath@@YA?AV?$CStringT@DV?$StrTraitMFC@DV?$ChTraitsCRT@D@ATL@@@@@ATL@@XZ 0041bfc0 f   global.obj
 0001:0001b0d0       ?ConvertToClient@@YA?AVCPoint@@HHHH@Z 0041c0d0 f   global.obj
 0001:0001b140       ?ConvertToServer@@YA?AVCPoint@@HHHH@Z 0041c140 f   global.obj
 0001:0001b220       ?XdY@@YAHHH@Z              0041c220 f   global.obj
 0001:0001b280       ?SpaceCopy@@YAXPADV?$CStringT@DV?$StrTraitMFC@DV?$ChTraitsCRT@D@ATL@@@@@ATL@@H@Z 0041c280 f   global.obj
 0001:0001b2f0       ?SpaceCopy@@YAXAAV?$CStringT@DV?$StrTraitMFC@DV?$ChTraitsCRT@D@ATL@@@@@ATL@@V12@H@Z 0041c2f0 f   global.obj
 0001:0001b3b0       ?CheckMaxValue@@YAXAAKK@Z  0041c3b0 f   global.obj
 0001:0001b3f0       ?CheckMaxValue@@YAXAAHH@Z  0041c3f0 f   global.obj
 0001:0001b430       ?CheckMaxValue@@YAXAAFF@Z  0041c430 f   global.obj
 0001:0001b480       ?CheckMaxValueReturn@@YAHAAKK@Z 0041c480 f   global.obj
 0001:0001b4b0       ?Left@?$CStringT@DV?$StrTraitMFC@DV?$ChTraitsCRT@D@ATL@@@@@ATL@@QBE?AV12@H@Z 0041c4b0 f i global.obj
 0001:0001b530       ??0?$CStringT@DV?$StrTraitMFC@DV?$ChTraitsCRT@D@ATL@@@@@ATL@@QAE@PBDHPAUIAtlStringMgr@1@@Z 0041c530 f i global.obj
 0001:0001b560       ??0?$CSimpleStringT@D$0A@@ATL@@QAE@PBDHPAUIAtlStringMgr@1@@Z 0041c560 f i global.obj
 0001:0001b600       ?GetByte@@YAEPADAAH@Z      0041c600 f i global.obj
 0001:0001b630       ?GetShort@@YAHPADAAH@Z     0041c630 f i global.obj
 0001:0001b650       ??Y?$CStringT@DV?$StrTraitMFC@DV?$ChTraitsCRT@D@ATL@@@@@ATL@@QAEAAV01@D@Z 0041c650 f i global.obj
 0001:0001b670       ??Y?$CSimpleStringT@D$0A@@ATL@@QAEAAV01@D@Z 0041c670 f i global.obj
 0001:0001b690       ?AppendChar@?$CSimpleStringT@D$0A@@ATL@@QAEXD@Z 0041c690 f i global.obj
 0001:0001b6e0       ??0CGuild@@QAE@XZ          0041c6e0 f   Guild.obj
 0001:0001b770       ??1CGuild@@UAE@XZ          0041c770 f   Guild.obj
 0001:0001b7a0       ?StrToGuildItem@CGuild@@QAEXPAD@Z 0041c7a0 f   Guild.obj
 0001:0001b970       ?GuildItemToStr@CGuild@@QAEXPAD@Z 0041c970 f   Guild.obj
 0001:0001bb20       ?strToGuildMap@CGuild@@QAEXPAD@Z 0041cb20 f   Guild.obj
 0001:0001bb70       ?GuildMapToStr@CGuild@@QAEXPAD@Z 0041cb70 f   Guild.obj
 0001:0001bbc0       ?GetUser@CGuild@@QAEHPAD@Z 0041cbc0 f   Guild.obj
 0001:0001bc50       ?RemoveUser@CGuild@@QAEHPAD@Z 0041cc50 f   Guild.obj
 0001:0001bd40       ?InitGuild@CGuild@@QAEXXZ  0041cd40 f   Guild.obj
 0001:0001beb0       ?AddUser@CGuild@@QAEHPADH@Z 0041ceb0 f   Guild.obj
 0001:0001bf60       ?SetSubGuildMaster@CGuild@@QAEXPAD@Z 0041cf60 f   Guild.obj
 0001:0001bfc0       ?RemoveSubGuildMaster@CGuild@@QAEXXZ 0041cfc0 f   Guild.obj
 0001:0001bff0       ?IsMasterPower@CGuild@@QAEHPAD@Z 0041cff0 f   Guild.obj
 0001:0001c0c0       ?CheckGuildSubMaster@CGuild@@QAEHXZ 0041d0c0 f   Guild.obj
 0001:0001c0f0       ??0ItemList@@QAE@XZ        0041d0f0 f i Guild.obj
 0001:0001c140       ??_GCGuild@@UAEPAXI@Z      0041d140 f i Guild.obj
 0001:0001c140       ??_ECGuild@@UAEPAXI@Z      0041d140 f i Guild.obj
 0001:0001c170       ??_H@YGXPAXIHP6EPAX0@Z@Z   0041d170 f i Guild.obj
 0001:0001c1a0       ?GetInt@@YAHPADAAH@Z       0041d1a0 f i GuildFortress.obj
 0001:0001c1a0       ?GetDWORD@@YAKPADAAH@Z     0041d1a0 f i Guild.obj
 0001:0001c1c0       ??0CGuildFortress@@QAE@XZ  0041d1c0 f   GuildFortress.obj
 0001:0001c520       ??1CGuildFortress@@UAE@XZ  0041d520 f   GuildFortress.obj
 0001:0001c5c0       ?StrToGuildAttList@CGuildFortress@@QAEXPADH@Z 0041d5c0 f   GuildFortress.obj
 0001:0001c700       ?StrGuildGuardList@CGuildFortress@@QAEXPAD@Z 0041d700 f   GuildFortress.obj
 0001:0001c750       ?GuildAttListToStr@CGuildFortress@@QAEXPAD@Z 0041d750 f   GuildFortress.obj
 0001:0001c7b0       ?GuildGuardListToStr@CGuildFortress@@QAEXPAD@Z 0041d7b0 f   GuildFortress.obj
 0001:0001c800       ?SetNpcToFortressWarBegin@CGuildFortress@@QAEXXZ 0041d800 f   GuildFortress.obj
 0001:0001c980       ?GetNpc@CGuildFortress@@QAEPAVCNpc@@H@Z 0041d980 f   GuildFortress.obj
 0001:0001c9c0       ?SetNpcToFortressWarEnd@CGuildFortress@@QAEXPAVCOM@@@Z 0041d9c0 f   GuildFortress.obj
 0001:0001cba0       ?FortressRepairListToStr@CGuildFortress@@QAEXPAD@Z 0041dba0 f   GuildFortress.obj
 0001:0001cc20       ?StrFortressRepairList@CGuildFortress@@QAEXAAVCByteArray@@@Z 0041dc20 f   GuildFortress.obj
 0001:0001cd10       ?InitMsgTime@CGuildFortress@@QAEXXZ 0041dd10 f   GuildFortress.obj
 0001:0001cdc0       ?UpdateInitFortress@CGuildFortress@@QAEXXZ 0041ddc0 f   GuildFortress.obj
 0001:0001cf10       ?InitMemFortress@CGuildFortress@@QAEXE@Z 0041df10 f   GuildFortress.obj
 0001:0001cff0       ?SetInitFortress@CGuildFortress@@QAEXXZ 0041dff0 f   GuildFortress.obj
 0001:0001d0b0       ?ApplyTaxToStore@CGuildFortress@@QAEXXZ 0041e0b0 f   GuildFortress.obj
 0001:0001d170       ?GetTotalCityValue@CGuildFortress@@QAEHXZ 0041e170 f   GuildFortress.obj
 0001:0001d290       ?AddGuildUserForFortressCityRank@CGuildFortress@@QAEXPADH@Z 0041e290 f   GuildFortress.obj
 0001:0001d350       ?SetNpcToFortressViolenceBegin@CGuildFortress@@QAEXXZ 0041e350 f   GuildFortress.obj
 0001:0001d3e0       ?SetNpcToFortressViolenceEnd@CGuildFortress@@QAEHPAVCOM@@@Z 0041e3e0 f   GuildFortress.obj
 0001:0001d4d0       ?SetInitFortressViolence@CGuildFortress@@QAEXXZ 0041e4d0 f   GuildFortress.obj
 0001:0001d590       ?GetOutof@CGuildFortress@@QAEXPAVCOM@@@Z 0041e590 f   GuildFortress.obj
 0001:0001d6b0       ??_ECGuildFortress@@UAEPAXI@Z 0041e6b0 f i GuildFortress.obj
 0001:0001d6b0       ??_GCGuildFortress@@UAEPAXI@Z 0041e6b0 f i GuildFortress.obj
 0001:0001d6e0       ??ACByteArray@@QAEAAEH@Z   0041e6e0 f i GuildFortress.obj
 0001:0001d700       ?ElementAt@CByteArray@@QAEAAEH@Z 0041e700 f i GuildFortress.obj
 0001:0001d730       ?GetRuntimeClass@CGuildFortressSet@@UBEPAUCRuntimeClass@@XZ 0041e730 f   GuildFortressSet.obj
 0001:0001d740       ??0CGuildFortressSet@@QAE@PAVCDatabase@@@Z 0041e740 f   GuildFortressSet.obj
 0001:0001d8c0       ?GetDefaultConnect@CGuildFortressSet@@UAE?AV?$CStringT@DV?$StrTraitMFC@DV?$ChTraitsCRT@D@ATL@@@@@ATL@@XZ 0041e8c0 f   GuildFortressSet.obj
 0001:0001d8f0       ?GetDefaultSQL@CGuildFortressSet@@UAE?AV?$CStringT@DV?$StrTraitMFC@DV?$ChTraitsCRT@D@ATL@@@@@ATL@@XZ 0041e8f0 f   GuildFortressSet.obj
 0001:0001d920       ?DoFieldExchange@CGuildFortressSet@@UAEXPAVCFieldExchange@@@Z 0041e920 f   GuildFortressSet.obj
 0001:0001daf0       ??_ECGuildFortressSet@@UAEPAXI@Z 0041eaf0 f i GuildFortressSet.obj
 0001:0001daf0       ??_GCGuildFortressSet@@UAEPAXI@Z 0041eaf0 f i GuildFortressSet.obj
 0001:0001db20       ??1CGuildFortressSet@@UAE@XZ 0041eb20 f i GuildFortressSet.obj
 0001:0001dbb0       ?GetRuntimeClass@CGuildFortressTaxSet@@UBEPAUCRuntimeClass@@XZ 0041ebb0 f   GuildFortressTaxSet.obj
 0001:0001dbc0       ??0CGuildFortressTaxSet@@QAE@PAVCDatabase@@@Z 0041ebc0 f   GuildFortressTaxSet.obj
 0001:0001dc90       ?GetDefaultConnect@CGuildFortressTaxSet@@UAE?AV?$CStringT@DV?$StrTraitMFC@DV?$ChTraitsCRT@D@ATL@@@@@ATL@@XZ 0041ec90 f   GuildFortressTaxSet.obj
 0001:0001dcc0       ?GetDefaultSQL@CGuildFortressTaxSet@@UAE?AV?$CStringT@DV?$StrTraitMFC@DV?$ChTraitsCRT@D@ATL@@@@@ATL@@XZ 0041ecc0 f   GuildFortressTaxSet.obj
 0001:0001dcf0       ?DoFieldExchange@CGuildFortressTaxSet@@UAEXPAVCFieldExchange@@@Z 0041ecf0 f   GuildFortressTaxSet.obj
 0001:0001de10       ??0CGuildHouse@@QAE@XZ     0041ee10 f   GuildHouse.obj
 0001:0001de70       ??1CGuildHouse@@UAE@XZ     0041ee70 f   GuildHouse.obj
 0001:0001de90       ?UpdateGuildHouse@CGuildHouse@@QAEXXZ 0041ee90 f   GuildHouse.obj
 0001:0001e010       ??_ECGuildHouse@@UAEPAXI@Z 0041f010 f i GuildHouse.obj
 0001:0001e010       ??_GCGuildHouse@@UAEPAXI@Z 0041f010 f i GuildHouse.obj
 0001:0001e040       ?GetRuntimeClass@CGuildHouseRankSet@@UBEPAUCRuntimeClass@@XZ 0041f040 f   GuildHouseRankSet.obj
 0001:0001e050       ??0CGuildHouseRankSet@@QAE@PAVCDatabase@@@Z 0041f050 f   GuildHouseRankSet.obj
 0001:0001e0f0       ?GetDefaultConnect@CGuildHouseRankSet@@UAE?AV?$CStringT@DV?$StrTraitMFC@DV?$ChTraitsCRT@D@ATL@@@@@ATL@@XZ 0041f0f0 f   GuildHouseRankSet.obj
 0001:0001e120       ?GetDefaultSQL@CGuildHouseRankSet@@UAE?AV?$CStringT@DV?$StrTraitMFC@DV?$ChTraitsCRT@D@ATL@@@@@ATL@@XZ 0041f120 f   GuildHouseRankSet.obj
 0001:0001e150       ?DoFieldExchange@CGuildHouseRankSet@@UAEXPAVCFieldExchange@@@Z 0041f150 f   GuildHouseRankSet.obj
 0001:0001e210       ?GetRuntimeClass@CGuildHouseSet@@UBEPAUCRuntimeClass@@XZ 0041f210 f   GuildHouseSet.obj
 0001:0001e220       ??0CGuildHouseSet@@QAE@PAVCDatabase@@@Z 0041f220 f   GuildHouseSet.obj
 0001:0001e2a0       ?GetDefaultConnect@CGuildHouseSet@@UAE?AV?$CStringT@DV?$StrTraitMFC@DV?$ChTraitsCRT@D@ATL@@@@@ATL@@XZ 0041f2a0 f   GuildHouseSet.obj
 0001:0001e2d0       ?GetDefaultSQL@CGuildHouseSet@@UAE?AV?$CStringT@DV?$StrTraitMFC@DV?$ChTraitsCRT@D@ATL@@@@@ATL@@XZ 0041f2d0 f   GuildHouseSet.obj
 0001:0001e300       ?DoFieldExchange@CGuildHouseSet@@UAEXPAVCFieldExchange@@@Z 0041f300 f   GuildHouseSet.obj
 0001:0001e390       ??0CGuildHouseWar@@QAE@XZ  0041f390 f   GuildHouseWar.obj
 0001:0001e4d0       ??1CGuildHouseWar@@UAE@XZ  0041f4d0 f   GuildHouseWar.obj
 0001:0001e4f0       ?InitGuild@CGuildHouseWar@@QAEXXZ 0041f4f0 f   GuildHouseWar.obj
 0001:0001e580       ?CheckGuildHouseWarEnd@CGuildHouseWar@@QAEHPAPAVUSER@@@Z 0041f580 f   GuildHouseWar.obj
 0001:0001e750       ?CheckGuildHouseRank@CGuildHouseWar@@QAEXXZ 0041f750 f   GuildHouseWar.obj
 0001:0001ec80       ?CheckGuildUserEnd@CGuildHouseWar@@QAEXXZ 0041fc80 f   GuildHouseWar.obj
 0001:0001ec90       ?CheckGuildMopEnd@CGuildHouseWar@@QAEHXZ 0041fc90 f   GuildHouseWar.obj
 0001:0001ed40       ?SwapTopGuildList@CGuildHouseWar@@QAEXAAUTopGuildList@@0@Z 0041fd40 f   GuildHouseWar.obj
 0001:0001eeb0       ?SetNpcListToWarEnd@CGuildHouseWar@@QAEXXZ 0041feb0 f   GuildHouseWar.obj
 0001:0001ef70       ?SetUserListToWarEnd@CGuildHouseWar@@QAEXPAVCOM@@@Z 0041ff70 f   GuildHouseWar.obj
 0001:0001f170       ?SetUserListToWarEnd@CGuildHouseWar@@QAEXXZ 00420170 f   GuildHouseWar.obj
 0001:0001f390       ?SendTownPotalMsg@CGuildHouseWar@@QAEXPAVCOM@@@Z 00420390 f   GuildHouseWar.obj
 0001:0001f5f0       ?ResetGuildHouseRank@CGuildHouseWar@@QAEXXZ 004205f0 f   GuildHouseWar.obj
 0001:0001f7f0       ??_ECGuildHouseWar@@UAEPAXI@Z 004207f0 f i GuildHouseWar.obj
 0001:0001f7f0       ??_GCGuildHouseWar@@UAEPAXI@Z 004207f0 f i GuildHouseWar.obj
 0001:0001f820       ??0ApplyGuildHouseWar@@QAE@XZ 00420820 f i GuildHouseWar.obj
 0001:0001f840       ??1ApplyGuildHouseWar@@QAE@XZ 00420840 f i GuildHouseWar.obj
 0001:0001f860       ?GetRuntimeClass@CGuildMapInfoSet@@UBEPAUCRuntimeClass@@XZ 00420860 f   GuildMapInfoSet.obj
 0001:0001f870       ??0CGuildMapInfoSet@@QAE@PAVCDatabase@@@Z 00420870 f   GuildMapInfoSet.obj
 0001:0001f8e0       ?GetDefaultConnect@CGuildMapInfoSet@@UAE?AV?$CStringT@DV?$StrTraitMFC@DV?$ChTraitsCRT@D@ATL@@@@@ATL@@XZ 004208e0 f   GuildMapInfoSet.obj
 0001:0001f910       ?GetDefaultSQL@CGuildMapInfoSet@@UAE?AV?$CStringT@DV?$StrTraitMFC@DV?$ChTraitsCRT@D@ATL@@@@@ATL@@XZ 00420910 f   GuildMapInfoSet.obj
 0001:0001f940       ?DoFieldExchange@CGuildMapInfoSet@@UAEXPAVCFieldExchange@@@Z 00420940 f   GuildMapInfoSet.obj
 0001:0001f9c0       ??0CGuildMapInfoTable@@QAE@XZ 004209c0 f   GuildMapInfoTable.obj
 0001:0001f9e0       ??1CGuildMapInfoTable@@UAE@XZ 004209e0 f   GuildMapInfoTable.obj
 0001:0001fa00       ??_GCGuildMapInfoTable@@UAEPAXI@Z 00420a00 f i GuildMapInfoTable.obj
 0001:0001fa00       ??_ECGuildMapInfoTable@@UAEPAXI@Z 00420a00 f i GuildMapInfoTable.obj
 0001:0001fa30       ?GetRuntimeClass@CGuildStoreSet@@UBEPAUCRuntimeClass@@XZ 00420a30 f   GuildStoreSet.obj
 0001:0001fa40       ??0CGuildStoreSet@@QAE@PAVCDatabase@@@Z 00420a40 f   GuildStoreSet.obj
 0001:0001fb80       ?GetDefaultConnect@CGuildStoreSet@@UAE?AV?$CStringT@DV?$StrTraitMFC@DV?$ChTraitsCRT@D@ATL@@@@@ATL@@XZ 00420b80 f   GuildStoreSet.obj
 0001:0001fbb0       ?GetDefaultSQL@CGuildStoreSet@@UAE?AV?$CStringT@DV?$StrTraitMFC@DV?$ChTraitsCRT@D@ATL@@@@@ATL@@XZ 00420bb0 f   GuildStoreSet.obj
 0001:0001fbe0       ?DoFieldExchange@CGuildStoreSet@@UAEXPAVCFieldExchange@@@Z 00420be0 f   GuildStoreSet.obj
 0001:0001fd20       ??_ECGuildStoreSet@@UAEPAXI@Z 00420d20 f i GuildStoreSet.obj
 0001:0001fd20       ??_GCGuildStoreSet@@UAEPAXI@Z 00420d20 f i GuildStoreSet.obj
 0001:0001fd50       ??1CGuildStoreSet@@UAE@XZ  00420d50 f i GuildStoreSet.obj
 0001:0001fdd0       ??0CGuildStoreTable@@QAE@XZ 00420dd0 f   GuildStoreTable.obj
 0001:0001fdf0       ??1CGuildStoreTable@@UAE@XZ 00420df0 f   GuildStoreTable.obj
 0001:0001fe10       ??_ECGuildStoreTable@@UAEPAXI@Z 00420e10 f i GuildStoreTable.obj
 0001:0001fe10       ??_GCGuildStoreTable@@UAEPAXI@Z 00420e10 f i GuildStoreTable.obj
 0001:0001fe40       ??0CGuildUser@@QAE@XZ      00420e40 f   GuildUser.obj
 0001:0001fe80       ??1CGuildUser@@UAE@XZ      00420e80 f   GuildUser.obj
 0001:0001fea0       ??_GCGuildUser@@UAEPAXI@Z  00420ea0 f i GuildUser.obj
 0001:0001fea0       ??_ECGuildUser@@UAEPAXI@Z  00420ea0 f i GuildUser.obj
 0001:0001fed0       ??0CHyper@@QAE@XZ          00420ed0 f   Hyper.obj
 0001:0001ff70       ??1CHyper@@UAE@XZ          00420f70 f   Hyper.obj
 0001:0001ffa0       ?save@CHyper@@QAEHPAD@Z    00420fa0 f   Hyper.obj
 0001:00020390       ?load@CHyper@@QAEXXZ       00421390 f   Hyper.obj
 0001:000209b0       ?GetHyperText@CHyper@@QAEXPADH@Z 004219b0 f   Hyper.obj
 0001:000209e0       ?InitBuf@CHyper@@QAEXXZ    004219e0 f   Hyper.obj
 0001:00020a10       ??_GCHyper@@UAEPAXI@Z      00421a10 f i Hyper.obj
 0001:00020a10       ??_ECHyper@@UAEPAXI@Z      00421a10 f i Hyper.obj
 0001:00020a40       ??0HyperText@CHyper@@QAE@XZ 00421a40 f i Hyper.obj
 0001:00020a60       ??1HyperText@CHyper@@QAE@XZ 00421a60 f i Hyper.obj
 0001:00020a80       ??0HyperImg@CHyper@@QAE@XZ 00421a80 f i Hyper.obj
 0001:00020aa0       ?GetRuntimeClass@CInitItemTableSet@@UBEPAUCRuntimeClass@@XZ 00421aa0 f   InitItemTableSet.obj
 0001:00020ab0       ??0CInitItemTableSet@@QAE@PAVCDatabase@@@Z 00421ab0 f   InitItemTableSet.obj
 0001:00020b10       ?GetDefaultConnect@CInitItemTableSet@@UAE?AV?$CStringT@DV?$StrTraitMFC@DV?$ChTraitsCRT@D@ATL@@@@@ATL@@XZ 00421b10 f   InitItemTableSet.obj
 0001:00020b40       ?GetDefaultSQL@CInitItemTableSet@@UAE?AV?$CStringT@DV?$StrTraitMFC@DV?$ChTraitsCRT@D@ATL@@@@@ATL@@XZ 00421b40 f   InitItemTableSet.obj
 0001:00020b70       ?DoFieldExchange@CInitItemTableSet@@UAEXPAVCFieldExchange@@@Z 00421b70 f   InitItemTableSet.obj
 0001:00020bd0       ?AcceptListenThread@@YAIPAX@Z 00421bd0 f   IOCPBASE.obj
 0001:00021000       ?WorkerClientSocketThread@@YGIPAX@Z 00422000 f   IOCPBASE.obj
 0001:00021330       ?WorkerSocketThreadWrapper@@YAIPAX@Z 00422330 f   IOCPBASE.obj
 0001:000213c0       ?WorkerDataProcThread@@YAIPAX@Z 004223c0 f   IOCPBASE.obj
 0001:00021700       ??0CIOCPBASE@@QAE@XZ       00422700 f   IOCPBASE.obj
 0001:000218c0       ??1CIOCPBASE@@QAE@XZ       004228c0 f   IOCPBASE.obj
 0001:00021b60       ?CreateAcceptThread@CIOCPBASE@@QAEXXZ 00422b60 f   IOCPBASE.obj
 0001:00021c10       ?CreateWorkerThread@CIOCPBASE@@QAEXXZ 00422c10 f   IOCPBASE.obj
 0001:00021d50       ?Associate@CIOCPBASE@@QAEHPAVCIOCPSocket@@@Z 00422d50 f   IOCPBASE.obj
 0001:00021dc0       ?Listen@CIOCPBASE@@QAEHHPAD@Z 00422dc0 f   IOCPBASE.obj
 0001:00022060       ?Init@CIOCPBASE@@QAEHHPAVCPoolBaseManager@@P6AKPAX@Z@Z 00423060 f   IOCPBASE.obj
 0001:00022160       ?SetAliveTimeUpdate@CIOCPBASE@@QAEXHK@Z 00423160 f   IOCPBASE.obj
 0001:000221a0       ?GetSocketType@CIOCPBASE@@QAEHXZ 004231a0 f i IOCPBASE.obj
 0001:000221c0       ??0?$CTypedPtrArray@VCPtrArray@@PAI@@QAE@XZ 004231c0 f i IOCPBASE.obj
 0001:000221e0       ??0?$CTypedPtrArray@VCPtrArray@@PAPAX@@QAE@XZ 004231e0 f i IOCPBASE.obj
 0001:00022200       ??0?$CTypedPtrArray@VCPtrArray@@PAU_ThreadPacket@@@@QAE@XZ 00423200 f i IOCPBASE.obj
 0001:00022220       ??A?$CTypedPtrArray@VCPtrArray@@PAVCEBodyIdentifyTable@@@@QAEAAPAVCEBodyIdentifyTable@@H@Z 00423220 f i ServerDlg.obj
 0001:00022220       ??A?$CTypedPtrArray@VCPtrArray@@PAPAX@@QAEAAPAPAXH@Z 00423220 f i IOCPBASE.obj
 0001:00022220       ??A?$CTypedPtrArray@VCPtrArray@@PAU_DRESSING_RESULT@@@@QAEAAPAU_DRESSING_RESULT@@H@Z 00423220 f i USER2.obj
 0001:00022220       ??A?$CTypedPtrArray@VCPtrArray@@PAVCNpcTable@@@@QAEAAPAVCNpcTable@@H@Z 00423220 f i Npc.obj
 0001:00022220       ??A?$CTypedPtrArray@VCPtrArray@@PAVCGuildHouse@@@@QAEAAPAVCGuildHouse@@H@Z 00423220 f i COM.obj
 0001:00022220       ??A?$CTypedPtrArray@VCPtrArray@@PAVCEBodyUpgradeTable@@@@QAEAAPAVCEBodyUpgradeTable@@H@Z 00423220 f i ServerDlg.obj
 0001:00022220       ??A?$CTypedPtrArray@VCPtrArray@@PAVCGuild@@@@QAEAAPAVCGuild@@H@Z 00423220 f i COM.obj
 0001:00022220       ??A?$CTypedPtrArray@VCPtrArray@@PAVCGuildMapInfoTable@@@@QAEAAPAVCGuildMapInfoTable@@H@Z 00423220 f i COM.obj
 0001:00022220       ??A?$CTypedPtrArray@VCPtrArray@@PAH@@QAEAAPAHH@Z 00423220 f i ServerDlg.obj
 0001:00022220       ??A?$CTypedPtrArray@VCPtrArray@@PAVCNpcThread@@@@QAEAAPAVCNpcThread@@H@Z 00423220 f i Npc.obj
 0001:00022220       ??A?$CTypedPtrArray@VCPtrArray@@PAVLOGIC@@@@QAEAAPAVLOGIC@@H@Z 00423220 f i EVENT_DATA.obj
 0001:00022220       ??A?$CTypedPtrArray@VCPtrArray@@PAVCELL@@@@QAEAAPAVCELL@@H@Z 00423220 f i COM.obj
 0001:00022220       ??A?$CTypedPtrArray@VCPtrArray@@PAVCPAMAExp@@@@QAEAAPAVCPAMAExp@@H@Z 00423220 f i ServerDlg.obj
 0001:00022220       ??A?$CTypedPtrArray@VCPtrArray@@PAVOnlineShop@@@@QAEAAPAVOnlineShop@@H@Z 00423220 f i USER2.obj
 0001:00022220       ??A?$CTypedPtrArray@VCPtrArray@@PAVLOGIC_ELSE@@@@QAEAAPAVLOGIC_ELSE@@H@Z 00423220 f i EVENT_DATA.obj
 0001:00022220       ??A?$CTypedPtrArray@VCPtrArray@@PAU_INITITEMTABLE@@@@QAEAAPAU_INITITEMTABLE@@H@Z 00423220 f i ServerDlg.obj
 0001:00022220       ??A?$CTypedPtrArray@VCPtrArray@@PAVTableItem@@@@QAEAAPAVTableItem@@H@Z 00423220 f i Item.obj
 0001:00022220       ??A?$CTypedPtrArray@VCPtrArray@@PAVCGuildHouseWar@@@@QAEAAPAVCGuildHouseWar@@H@Z 00423220 f i COM.obj
 0001:00022220       ??A?$CTypedPtrArray@VCPtrArray@@PAUExchangeItem@@@@QAEAAPAUExchangeItem@@H@Z 00423220 f i USER.obj
 0001:00022220       ??A?$CTypedPtrArray@VCPtrArray@@PAVCLevelUpTable@@@@QAEAAPAVCLevelUpTable@@H@Z 00423220 f i ServerDlg.obj
 0001:00022220       ??A?$CTypedPtrArray@VCPtrArray@@PAVCUserLevelUpTable@@@@QAEAAPAVCUserLevelUpTable@@H@Z 00423220 f i ServerDlg.obj
 0001:00022220       ??A?$CTypedPtrArray@VCPtrArray@@PAVCSharedMemory@@@@QAEAAPAVCSharedMemory@@H@Z 00423220 f i COM.obj
 0001:00022220       ??A?$CTypedPtrArray@VCPtrArray@@PAVCVirtualRoom@@@@QAEAAPAVCVirtualRoom@@H@Z 00423220 f i ServerDlg.obj
 0001:00022220       ??A?$CTypedPtrArray@VCPtrArray@@PAVCRemodelingTable@@@@QAEAAPAVCRemodelingTable@@H@Z 00423220 f i ServerDlg.obj
 0001:00022220       ??A?$CTypedPtrArray@VCPtrArray@@PAUShopItem@@@@QAEAAPAUShopItem@@H@Z 00423220 f i USER.obj
 0001:00022220       ??A?$CTypedPtrArray@VCPtrArray@@PAVMarkPay@@@@QAEAAPAVMarkPay@@H@Z 00423220 f i USER2.obj
 0001:00022220       ??A?$CTypedPtrArray@VCPtrArray@@PAU_DRESSING_DATA@@@@QAEAAPAU_DRESSING_DATA@@H@Z 00423220 f i ServerDlg.obj
 0001:00022220       ??A?$CTypedPtrArray@VCPtrArray@@PAVCEBodyTable@@@@QAEAAPAVCEBodyTable@@H@Z 00423220 f i Npc.obj
 0001:00022220       ??A?$CTypedPtrArray@VCPtrArray@@PAVCAccessoriUpTable@@@@QAEAAPAVCAccessoriUpTable@@H@Z 00423220 f i ServerDlg.obj
 0001:00022220       ??A?$CTypedPtrArray@VCPtrArray@@PAU_ThreadPacket@@@@QAEAAPAU_ThreadPacket@@H@Z 00423220 f i IOCPBASE.obj
 0001:00022220       ??A?$CTypedPtrArray@VCPtrArray@@PAVMarkGMIni@@@@QAEAAPAVMarkGMIni@@H@Z 00423220 f i ServerDlg.obj
 0001:00022220       ??A?$CTypedPtrArray@VCPtrArray@@PAVItemList@@@@QAEAAPAVItemList@@H@Z 00423220 f i CELL.obj
 0001:00022220       ??A?$CTypedPtrArray@VCPtrArray@@PAI@@QAEAAPAIH@Z 00423220 f i IOCPBASE.obj
 0001:00022220       ??A?$CTypedPtrArray@VCPtrArray@@PAVCItemTable@@@@QAEAAPAVCItemTable@@H@Z 00423220 f i Npc.obj
 0001:00022220       ??A?$CTypedPtrArray@VCPtrArray@@PAVCPsiTable@@@@QAEAAPAVCPsiTable@@H@Z 00423220 f i ServerDlg.obj
 0001:00022220       ??A?$CTypedPtrArray@VCPtrArray@@PAVCEventItemNew@@@@QAEAAPAVCEventItemNew@@H@Z 00423220 f i Npc.obj
 0001:00022220       ??A?$CTypedPtrArray@VCPtrArray@@PAU_ZONEINFO@@@@QAEAAPAU_ZONEINFO@@H@Z 00423220 f i ServerDlg.obj
 0001:00022220       ??A?$CTypedPtrArray@VCPtrArray@@PAVMarkIni@@@@QAEAAPAVMarkIni@@H@Z 00423220 f i COM.obj
 0001:00022220       ??A?$CTypedPtrArray@VCPtrArray@@PAVSERVERINFO@@@@QAEAAPAVSERVERINFO@@H@Z 00423220 f i ServerDlg.obj
 0001:00022220       ??A?$CTypedPtrArray@VCPtrArray@@PAU_DB_CONNECTION@@@@QAEAAPAU_DB_CONNECTION@@H@Z 00423220 f i MyDB.obj
 0001:00022220       ??A?$CTypedPtrArray@VCPtrArray@@PAU_StoreDB@@@@QAEAAPAU_StoreDB@@H@Z 00423220 f i ServerDlg.obj
 0001:00022220       ??A?$CTypedPtrArray@VCPtrArray@@PAVMarkGonggao@@@@QAEAAPAVMarkGonggao@@H@Z 00423220 f i COM.obj
 0001:00022220       ??A?$CTypedPtrArray@VCPtrArray@@PAVCNpcSayTable@@@@QAEAAPAVCNpcSayTable@@H@Z 00423220 f i ServerDlg.obj
 0001:00022220       ??A?$CTypedPtrArray@VCPtrArray@@PAU_WEATHER_INFO@@@@QAEAAPAU_WEATHER_INFO@@H@Z 00423220 f i COM.obj
 0001:00022220       ??A?$CTypedPtrArray@VCPtrArray@@PAVCMagicItemTable@@@@QAEAAPAVCMagicItemTable@@H@Z 00423220 f i Npc.obj
 0001:00022220       ??A?$CTypedPtrArray@VCPtrArray@@PAVCGuildFortress@@@@QAEAAPAVCGuildFortress@@H@Z 00423220 f i COM.obj
 0001:00022220       ??A?$CTypedPtrArray@VCPtrArray@@PAVMAP@@@@QAEAAPAVMAP@@H@Z 00423220 f i CELL.obj
 0001:00022220       ??A?$CTypedPtrArray@VCPtrArray@@PAU_TOWNPOTAL@@@@QAEAAPAU_TOWNPOTAL@@H@Z 00423220 f i ServerDlg.obj
 0001:00022220       ??A?$CTypedPtrArray@VCPtrArray@@PAVCBoxEventTable@@@@QAEAAPAVCBoxEventTable@@H@Z 00423220 f i ServerDlg.obj
 0001:00022220       ??A?$CTypedPtrArray@VCPtrArray@@PAVCEventItemTable@@@@QAEAAPAVCEventItemTable@@H@Z 00423220 f i Npc.obj
 0001:00022220       ??A?$CTypedPtrArray@VCPtrArray@@PAVEXEC@@@@QAEAAPAVEXEC@@H@Z 00423220 f i EVENT_DATA.obj
 0001:00022220       ??A?$CTypedPtrArray@VCPtrArray@@PAVCDNTable@@@@QAEAAPAVCDNTable@@H@Z 00423220 f i ServerDlg.obj
 0001:00022220       ??A?$CTypedPtrArray@VCPtrArray@@PAVCNpc@@@@QAEAAPAVCNpc@@H@Z 00423220 f i CELL.obj
 0001:00022220       ??A?$CTypedPtrArray@VCPtrArray@@PAVCMonsterPsi@@@@QAEAAPAVCMonsterPsi@@H@Z 00423220 f i Npc.obj
 0001:00022220       ??A?$CTypedPtrArray@VCPtrArray@@PAVVIPPay@@@@QAEAAPAVVIPPay@@H@Z 00423220 f i USER.obj
 0001:00022220       ??A?$CTypedPtrArray@VCPtrArray@@PAVCRecoverRate@@@@QAEAAPAVCRecoverRate@@H@Z 00423220 f i ServerDlg.obj
 0001:00022220       ??A?$CTypedPtrArray@VCPtrArray@@PAU_EVENT@@@@QAEAAPAU_EVENT@@H@Z 00423220 f i EventBlockingTable.obj
 0001:00022220       ??A?$CTypedPtrArray@VCPtrArray@@PAVCRoyalRumbleUser@@@@QAEAAPAVCRoyalRumbleUser@@H@Z 00423220 f i RoyalRumble.obj
 0001:00022220       ??A?$CTypedPtrArray@VCPtrArray@@PAVCSummonTable@@@@QAEAAPAVCSummonTable@@H@Z 00423220 f i ServerDlg.obj
 0001:00022220       ??A?$CTypedPtrArray@VCPtrArray@@PAVEVENT_DATA@@@@QAEAAPAVEVENT_DATA@@H@Z 00423220 f i EVENT.obj
 0001:00022220       ??A?$CTypedPtrArray@VCPtrArray@@PAVCNpcChat@@@@QAEAAPAVCNpcChat@@H@Z 00423220 f i ServerDlg.obj
 0001:00022220       ??A?$CTypedPtrArray@VCPtrArray@@PAVCSkillTable@@@@QAEAAPAVCSkillTable@@H@Z 00423220 f i Npc.obj
 0001:00022220       ??A?$CTypedPtrArray@VCPtrArray@@PAVEVENT@@@@QAEAAPAVEVENT@@H@Z 00423220 f i ServerDlg.obj
 0001:00022220       ??A?$CTypedPtrArray@VCPtrArray@@PAVCRecover@@@@QAEAAPAVCRecover@@H@Z 00423220 f i ServerDlg.obj
 0001:00022220       ??A?$CTypedPtrArray@VCPtrArray@@PAVCStore@@@@QAEAAPAVCStore@@H@Z 00423220 f i GuildFortress.obj
 0001:00022220       ??A?$CTypedPtrArray@VCPtrArray@@PAU_ITEMLOG@@@@QAEAAPAU_ITEMLOG@@H@Z 00423220 f i USER.obj
 0001:00022240       ??0CIOCPSocket@@QAE@XZ     00423240 f   IOCPSocket.obj
 0001:00022380       ??1CIOCPSocket@@UAE@XZ     00423380 f   IOCPSocket.obj
 0001:000223f0       ?Create@CIOCPSocket@@QAEHIHJPBD@Z 004233f0 f   IOCPSocket.obj
 0001:00022450       ?Connect@CIOCPSocket@@QAEHPBDI@Z 00423450 f   IOCPSocket.obj
 0001:00022610       ?IOCP_Send@CIOCPSocket@@QAEJPADJH@Z 00423610 f   IOCPSocket.obj
 0001:000228a0       ?IOCP_OnSend@CIOCPSocket@@QAEXH@Z 004238a0 f   IOCPSocket.obj
 0001:000228d0       ?IOCP_RecycleRead@CIOCPSocket@@QAEHXZ 004238d0 f   IOCPSocket.obj
 0001:000229d0       ?Receive@CIOCPSocket@@QAEXH@Z 004239d0 f   IOCPSocket.obj
 0001:00022ab0       ?AsyncSelect@CIOCPSocket@@QAEHJ@Z 00423ab0 f   IOCPSocket.obj
 0001:00022af0       ?SetSockOpt@CIOCPSocket@@QAEHHPBXHH@Z 00423af0 f   IOCPSocket.obj
 0001:00022b30       ?ShutDown@CIOCPSocket@@QAEHH@Z 00423b30 f   IOCPSocket.obj
 0001:00022b60       ?IOCP_OnClose@CIOCPSocket@@QAEXH@Z 00423b60 f   IOCPSocket.obj
 0001:00022ba0       ?IOCP_Close@CIOCPSocket@@QAEXXZ 00423ba0 f   IOCPSocket.obj
 0001:00022c30       ?StopAction@CIOCPSocket@@UAEXXZ 00423c30 f   IOCPSocket.obj
 0001:00022c40       ??_ECIOCPSocket@@UAEPAXI@Z 00423c40 f i IOCPSocket.obj
 0001:00022c40       ??_GCIOCPSocket@@UAEPAXI@Z 00423c40 f i IOCPSocket.obj
 0001:00022c70       ?SetIOCPLastError@CIOCPSocket@@QAEXK@Z 00423c70 f i IOCPSocket.obj
 0001:00022c90       ??0Item@@QAE@XZ            00423c90 f   Item.obj
 0001:00022cb0       ??1Item@@UAE@XZ            00423cb0 f   Item.obj
 0001:00022cd0       ?ParseItemData@Item@@QAEHPAD@Z 00423cd0 f   Item.obj
 0001:00022eb0       ?GetTableItem@Item@@QAEPAVTableItem@@H@Z 00423eb0 f   Item.obj
 0001:00022ee0       ?FillItemData@Item@@QAEXPAD@Z 00423ee0 f   Item.obj
 0001:00022f70       ??_GItem@@UAEPAXI@Z        00423f70 f i Item.obj
 0001:00022f70       ??_EItem@@UAEPAXI@Z        00423f70 f i Item.obj
 0001:00022fa0       ??0CItemTable@@QAE@XZ      00423fa0 f   ItemTable.obj
 0001:00022fd0       ??1CItemTable@@QAE@XZ      00423fd0 f   ItemTable.obj
 0001:00023000       ?GetRuntimeClass@CItemTableSet@@UBEPAUCRuntimeClass@@XZ 00424000 f   ItemTableSet.obj
 0001:00023010       ??0CItemTableSet@@QAE@PAVCDatabase@@@Z 00424010 f   ItemTableSet.obj
 0001:00023230       ?GetDefaultConnect@CItemTableSet@@UAE?AV?$CStringT@DV?$StrTraitMFC@DV?$ChTraitsCRT@D@ATL@@@@@ATL@@XZ 00424230 f   ItemTableSet.obj
 0001:00023260       ?GetDefaultSQL@CItemTableSet@@UAE?AV?$CStringT@DV?$StrTraitMFC@DV?$ChTraitsCRT@D@ATL@@@@@ATL@@XZ 00424260 f   ItemTableSet.obj
 0001:00023290       ?DoFieldExchange@CItemTableSet@@UAEXPAVCFieldExchange@@@Z 00424290 f   ItemTableSet.obj
 0001:000235b0       ??_ECItemTableSet@@UAEPAXI@Z 004245b0 f i ItemTableSet.obj
 0001:000235b0       ??_GCItemTableSet@@UAEPAXI@Z 004245b0 f i ItemTableSet.obj
 0001:000235e0       ??1CItemTableSet@@UAE@XZ   004245e0 f i ItemTableSet.obj
 0001:00023610       ??0CLevelUpTable@@QAE@XZ   00424610 f   LevelUpTable.obj
 0001:00023640       ??1CLevelUpTable@@QAE@XZ   00424640 f   LevelUpTable.obj
 0001:00023650       ?GetRuntimeClass@CLevelUpTableSet@@UBEPAUCRuntimeClass@@XZ 00424650 f   LevelUpTableSet.obj
 0001:00023660       ??0CLevelUpTableSet@@QAE@PAVCDatabase@@@Z 00424660 f   LevelUpTableSet.obj
 0001:000236d0       ?GetDefaultConnect@CLevelUpTableSet@@UAE?AV?$CStringT@DV?$StrTraitMFC@DV?$ChTraitsCRT@D@ATL@@@@@ATL@@XZ 004246d0 f   LevelUpTableSet.obj
 0001:00023700       ?GetDefaultSQL@CLevelUpTableSet@@UAE?AV?$CStringT@DV?$StrTraitMFC@DV?$ChTraitsCRT@D@ATL@@@@@ATL@@XZ 00424700 f   LevelUpTableSet.obj
 0001:00023730       ?DoFieldExchange@CLevelUpTableSet@@UAEXPAVCFieldExchange@@@Z 00424730 f   LevelUpTableSet.obj
 0001:00023790       ??0LOGIC@@QAE@XZ           00424790 f   LOGIC.obj
 0001:000237b0       ??1LOGIC@@UAE@XZ           004247b0 f   LOGIC.obj
 0001:000237d0       ?Parse@LOGIC@@QAEXPAD@Z    004247d0 f   LOGIC.obj
 0001:00023910       ?Init@LOGIC@@QAEXXZ        00424910 f   LOGIC.obj
 0001:00023950       ??_GLOGIC@@UAEPAXI@Z       00424950 f i LOGIC.obj
 0001:00023950       ??_ELOGIC@@UAEPAXI@Z       00424950 f i LOGIC.obj
 0001:00023980       ??0LOGIC_ELSE@@QAE@XZ      00424980 f   LOGIC_ELSE.obj
 0001:000239a0       ??1LOGIC_ELSE@@UAE@XZ      004249a0 f   LOGIC_ELSE.obj
 0001:000239c0       ?Init@LOGIC_ELSE@@QAEXXZ   004249c0 f   LOGIC_ELSE.obj
 0001:00023a10       ?Parse_and@LOGIC_ELSE@@QAEXPAD@Z 00424a10 f   LOGIC_ELSE.obj
 0001:00024b70       ?Parse_or@LOGIC_ELSE@@QAEXPAD@Z 00425b70 f   LOGIC_ELSE.obj
 0001:000257c0       ??_ELOGIC_ELSE@@UAEPAXI@Z  004267c0 f i LOGIC_ELSE.obj
 0001:000257c0       ??_GLOGIC_ELSE@@UAEPAXI@Z  004267c0 f i LOGIC_ELSE.obj
 0001:000257f0       ??0CMagicItemTable@@QAE@XZ 004267f0 f   MagicItemTable.obj
 0001:00025820       ??1CMagicItemTable@@UAE@XZ 00426820 f   MagicItemTable.obj
 0001:00025840       ?GetMagicItemValue@CMagicItemTable@@QAEHXZ 00426840 f   MagicItemTable.obj
 0001:00025860       ??_GCMagicItemTable@@UAEPAXI@Z 00426860 f i MagicItemTable.obj
 0001:00025860       ??_ECMagicItemTable@@UAEPAXI@Z 00426860 f i MagicItemTable.obj
 0001:00025890       ?GetRuntimeClass@CMagicItemTableSet@@UBEPAUCRuntimeClass@@XZ 00426890 f   MagicItemTableSet.obj
 0001:000258a0       ??0CMagicItemTableSet@@QAE@PAVCDatabase@@@Z 004268a0 f   MagicItemTableSet.obj
 0001:000259b0       ?GetDefaultConnect@CMagicItemTableSet@@UAE?AV?$CStringT@DV?$StrTraitMFC@DV?$ChTraitsCRT@D@ATL@@@@@ATL@@XZ 004269b0 f   MagicItemTableSet.obj
 0001:000259e0       ?GetDefaultSQL@CMagicItemTableSet@@UAE?AV?$CStringT@DV?$StrTraitMFC@DV?$ChTraitsCRT@D@ATL@@@@@ATL@@XZ 004269e0 f   MagicItemTableSet.obj
 0001:00025a10       ?DoFieldExchange@CMagicItemTableSet@@UAEXPAVCFieldExchange@@@Z 00426a10 f   MagicItemTableSet.obj
 0001:00025b40       ??0MapInfo@@QAE@XZ         00426b40 f   MAP.obj
 0001:00025b80       ??1MapInfo@@UAE@XZ         00426b80 f   MAP.obj
 0001:00025ba0       ??0MoveCell@@QAE@XZ        00426ba0 f   MAP.obj
 0001:00025be0       ??1MoveCell@@QAE@XZ        00426be0 f   MAP.obj
 0001:00025c00       ?RemoveData@MoveCell@@QAEXXZ 00426c00 f   MAP.obj
 0001:00025c70       ?Initialize@MoveCell@@QAEXHH@Z 00426c70 f   MAP.obj
 0001:00025d70       ?Load@MoveCell@@QAEXAAVCArchive@@@Z 00426d70 f   MAP.obj
 0001:00025f50       ?LoadSize@MoveCell@@QAEXAAVCArchive@@@Z 00426f50 f   MAP.obj
 0001:00025fa0       ?LoadSubInfo@MoveCell@@QAEXAAVCArchive@@@Z 00426fa0 f   MAP.obj
 0001:00026120       ?ConvertMapFromATM@MoveCell@@QAEXPAPAVMapInfo@@@Z 00427120 f   MAP.obj
 0001:00026260       ?ConvertMap@MoveCell@@QAEXPAPAVMapInfo@@@Z 00427260 f   MAP.obj
 0001:00026410       ??0MAP@@QAE@XZ             00427410 f   MAP.obj
 0001:000264a0       ??1MAP@@UAE@XZ             004274a0 f   MAP.obj
 0001:00026510       ?RemoveMapData@MAP@@IAEXXZ 00427510 f   MAP.obj
 0001:00026650       ?LoadMapByNum@MAP@@QAEHH@Z 00427650 f   MAP.obj
 0001:000266f0       ?LoadMapSizeByNum@MAP@@QAEHH@Z 004276f0 f   MAP.obj
 0001:00026780       ?LoadAtm@MAP@@QAEHPAD@Z    00427780 f   MAP.obj
 0001:00026880       ?LoadImf@MAP@@QAEHPAD@Z    00427880 f   MAP.obj
 0001:00026990       ?LoadImfSize@MAP@@QAEHPAD@Z 00427990 f   MAP.obj
 0001:00026a80       ?Load@MAP@@QAEXAAVCArchive@@@Z 00427a80 f   MAP.obj
 0001:00026d50       ?LoadSubInfo@MAP@@QAEXAAVCArchive@@@Z 00427d50 f   MAP.obj
 0001:00026d60       ?InitTargetMap@MAP@@QAEXHH@Z 00427d60 f   MAP.obj
 0001:00026f70       ?SetType@MAP@@QAEXHHH@Z    00427f70 f   MAP.obj
 0001:00027000       ??_GMAP@@UAEPAXI@Z         00428000 f i MAP.obj
 0001:00027000       ??_EMAP@@UAEPAXI@Z         00428000 f i MAP.obj
 0001:00027030       ??0?$CTypedPtrArray@VCPtrArray@@PAH@@QAE@XZ 00428030 f i MAP.obj
 0001:00027050       ??_EMapInfo@@UAEPAXI@Z     00428050 f i MAP.obj
 0001:000270c0       ??5CArchive@@QAEAAV0@AAH@Z 004280c0 f i MAP.obj
 0001:000270e0       ??5CArchive@@QAEAAV0@AAF@Z 004280e0 f i MAP.obj
 0001:00027100       ??5CArchive@@QAEAAV0@AAG@Z 00428100 f i MAP.obj
 0001:00027180       ??5CArchive@@QAEAAV0@AAJ@Z 00428180 f i MAP.obj
 0001:00027200       ??0MarkChouJiang@@QAE@XZ   00428200 f   MarkChouJiang.obj
 0001:000272a0       ??1MarkChouJiang@@UAE@XZ   004282a0 f   MarkChouJiang.obj
 0001:000272c0       ??_EMarkChouJiang@@UAEPAXI@Z 004282c0 f i MarkChouJiang.obj
 0001:000272c0       ??_GMarkChouJiang@@UAEPAXI@Z 004282c0 f i MarkChouJiang.obj
 0001:000272f0       ??0MarkGMIni@@QAE@XZ       004282f0 f   MarkGMIni.obj
 0001:00027470       ??1MarkGMIni@@UAE@XZ       00428470 f   MarkGMIni.obj
 0001:00027490       ??_EMarkGMIni@@UAEPAXI@Z   00428490 f i MarkGMIni.obj
 0001:00027490       ??_GMarkGMIni@@UAEPAXI@Z   00428490 f i MarkGMIni.obj
 0001:000274c0       ??0MarkGonggao@@QAE@XZ     004284c0 f   MarkGonggao.obj
 0001:000274f0       ??1MarkGonggao@@UAE@XZ     004284f0 f   MarkGonggao.obj
 0001:00027510       ??_GMarkGonggao@@UAEPAXI@Z 00428510 f i MarkGonggao.obj
 0001:00027510       ??_EMarkGonggao@@UAEPAXI@Z 00428510 f i MarkGonggao.obj
 0001:00027540       ??0MarkIni@@QAE@XZ         00428540 f   MarkIni.obj
 0001:00027910       ??1MarkIni@@UAE@XZ         00428910 f   MarkIni.obj
 0001:00027930       ??_GMarkIni@@UAEPAXI@Z     00428930 f i MarkIni.obj
 0001:00027930       ??_EMarkIni@@UAEPAXI@Z     00428930 f i MarkIni.obj
 0001:00027960       ??0MarkPay@@QAE@XZ         00428960 f   MarkPay.obj
 0001:000279b0       ??1MarkPay@@UAE@XZ         004289b0 f   MarkPay.obj
 0001:000279d0       ??_GMarkPay@@UAEPAXI@Z     004289d0 f i MarkPay.obj
 0001:000279d0       ??_EMarkPay@@UAEPAXI@Z     004289d0 f i MarkPay.obj
 0001:00027a00       ?GetRuntimeClass@CMechanicStoreSet@@UBEPAUCRuntimeClass@@XZ 00428a00 f   MechanicStoreSet.obj
 0001:00027a10       ??0CMechanicStoreSet@@QAE@PAVCDatabase@@@Z 00428a10 f   MechanicStoreSet.obj
 0001:00027a70       ?GetDefaultConnect@CMechanicStoreSet@@UAE?AV?$CStringT@DV?$StrTraitMFC@DV?$ChTraitsCRT@D@ATL@@@@@ATL@@XZ 00428a70 f   MechanicStoreSet.obj
 0001:00027aa0       ?GetDefaultSQL@CMechanicStoreSet@@UAE?AV?$CStringT@DV?$StrTraitMFC@DV?$ChTraitsCRT@D@ATL@@@@@ATL@@XZ 00428aa0 f   MechanicStoreSet.obj
 0001:00027ad0       ?DoFieldExchange@CMechanicStoreSet@@UAEXPAVCFieldExchange@@@Z 00428ad0 f   MechanicStoreSet.obj
 0001:00027b20       ??1CSkillTableSet@@UAE@XZ  00428b20 f i ServerDlg.obj
 0001:00027b20       ??1CGuildHouseSet@@UAE@XZ  00428b20 f i GuildHouseSet.obj
 0001:00027b20       ??1CUserLevelUpSet@@UAE@XZ 00428b20 f i ServerDlg.obj
 0001:00027b20       ??1CGuildFortressTaxSet@@UAE@XZ 00428b20 f i GuildFortressTaxSet.obj
 0001:00027b20       ??1CDNTableSet@@UAE@XZ     00428b20 f i DNTableSet.obj
 0001:00027b20       ??1CNpcItemSet@@UAE@XZ     00428b20 f i NpcItemSet.obj
 0001:00027b20       ??1CGuildMapInfoSet@@UAE@XZ 00428b20 f i GuildMapInfoSet.obj
 0001:00027b20       ??1CZoneInfoSet@@UAE@XZ    00428b20 f i ServerDlg.obj
 0001:00027b20       ??1CLevelUpTableSet@@UAE@XZ 00428b20 f i LevelUpTableSet.obj
 0001:00027b20       ??1CTownPotalTableSet@@UAE@XZ 00428b20 f i ServerDlg.obj
 0001:00027b20       ??1CPAMAExpSet@@UAE@XZ     00428b20 f i PAMAExpSet.obj
 0001:00027b20       ??1CStoreRepairSet@@UAE@XZ 00428b20 f i ServerDlg.obj
 0001:00027b20       ??1CMechanicStoreSet@@UAE@XZ 00428b20 f i MechanicStoreSet.obj
 0001:00027b20       ??1CRecoverRateSet@@UAE@XZ 00428b20 f i RecoverRateSet.obj
 0001:00027b20       ??1CEBodyStoreSet@@UAE@XZ  00428b20 f i EBodyStoreSet.obj
 0001:00027b20       ??1CInitItemTableSet@@UAE@XZ 00428b20 f i InitItemTableSet.obj
 0001:00027b20       ??1CGuildHouseRankSet@@UAE@XZ 00428b20 f i GuildHouseRankSet.obj
 0001:00027b20       ??1CPsiStoreSet@@UAE@XZ    00428b20 f i PsiStoreSet.obj
 0001:00027b20       ??1CStoreSellSet@@UAE@XZ   00428b20 f i ServerDlg.obj
 0001:00027b20       ??1CEBodyUpgradeTableSet@@UAE@XZ 00428b20 f i EBodyUpgradeTableSet.obj
 0001:00027b20       ??1CEBodyIdentifyTableSet@@UAE@XZ 00428b20 f i EBodyIdentifyTableSet.obj
 0001:00027b20       ??1CValItemTableSet@@UAE@XZ 00428b20 f i ServerDlg.obj
 0001:00027b20       ??1CDressingSet@@UAE@XZ    00428b20 f i DressingSet.obj
 0001:00027b20       ??1CRecoverSet@@UAE@XZ     00428b20 f i RecoverSet.obj
 0001:00027b20       ??1CStoreSet@@UAE@XZ       00428b20 f i ServerDlg.obj
 0001:00027b40       ??0CMemGuildHouseRank@@QAE@XZ 00428b40 f   MemUser.obj
 0001:00027b70       ??1CMemGuildHouseRank@@QAE@XZ 00428b70 f   MemUser.obj
 0001:00027b80       ??0CMemStore@@QAE@XZ       00428b80 f   MemUser.obj
 0001:00027bc0       ??1CMemStore@@QAE@XZ       00428bc0 f   MemUser.obj
 0001:00027bd0       ??0CMemBank@@QAE@XZ        00428bd0 f   MemUser.obj
 0001:00027c00       ??1CMemBank@@QAE@XZ        00428c00 f   MemUser.obj
 0001:00027c10       ??0CMemAccountBank@@QAE@XZ 00428c10 f   MemUser.obj
 0001:00027c40       ??1CMemAccountBank@@QAE@XZ 00428c40 f   MemUser.obj
 0001:00027c50       ??0CMemUser@@QAE@XZ        00428c50 f   MemUser.obj
 0001:00027cd0       ??1CMemUser@@QAE@XZ        00428cd0 f   MemUser.obj
 0001:00027d30       ?GetRuntimeClass@CMonsterPsiSet@@UBEPAUCRuntimeClass@@XZ 00428d30 f   MonsterPsiSet.obj
 0001:00027d40       ??0CMonsterPsiSet@@QAE@PAVCDatabase@@@Z 00428d40 f   MonsterPsiSet.obj
 0001:00027e30       ?GetDefaultConnect@CMonsterPsiSet@@UAE?AV?$CStringT@DV?$StrTraitMFC@DV?$ChTraitsCRT@D@ATL@@@@@ATL@@XZ 00428e30 f   MonsterPsiSet.obj
 0001:00027e60       ?GetDefaultSQL@CMonsterPsiSet@@UAE?AV?$CStringT@DV?$StrTraitMFC@DV?$ChTraitsCRT@D@ATL@@@@@ATL@@XZ 00428e60 f   MonsterPsiSet.obj
 0001:00027e90       ?DoFieldExchange@CMonsterPsiSet@@UAEXPAVCFieldExchange@@@Z 00428e90 f   MonsterPsiSet.obj
 0001:00027f60       ??_GCMonsterPsiSet@@UAEPAXI@Z 00428f60 f i MonsterPsiSet.obj
 0001:00027f60       ??_ECMonsterPsiSet@@UAEPAXI@Z 00428f60 f i MonsterPsiSet.obj
 0001:00027f90       ??1CMonsterPsiSet@@UAE@XZ  00428f90 f i MonsterPsiSet.obj
 0001:00027fc0       ??0CMyDB@@QAE@XZ           00428fc0 f   MyDB.obj
 0001:00028040       ??1CMyDB@@UAE@XZ           00429040 f   MyDB.obj
 0001:00028130       ?Init@CMyDB@@QAEXH@Z       00429130 f   MyDB.obj
 0001:00028210       ?DBConnect@CMyDB@@QAEHPBD@Z 00429210 f   MyDB.obj
 0001:00028400       ?GetDB@CMyDB@@QAEPAVCDatabase@@AAH@Z 00429400 f   MyDB.obj
 0001:00028700       ?ReleaseDB@CMyDB@@QAEXH@Z  00429700 f   MyDB.obj
 0001:000288b0       ??_GCMyDB@@UAEPAXI@Z       004298b0 f i MyDB.obj
 0001:000288b0       ??_ECMyDB@@UAEPAXI@Z       004298b0 f i MyDB.obj
 0001:000288e0       ??0?$CTypedPtrArray@VCPtrArray@@PAU_DB_CONNECTION@@@@QAE@XZ 004298e0 f i MyDB.obj
 0001:00028900       ??_G_DB_CONNECTION@@QAEPAXI@Z 00429900 f i MyDB.obj
 0001:00028930       ??1_DB_CONNECTION@@QAE@XZ  00429930 f i MyDB.obj
 0001:00028950       ??0_DB_CONNECTION@@QAE@XZ  00429950 f i MyDB.obj
 0001:00028970       ??9ATL@@YA_NABV?$CStringT@DV?$StrTraitMFC@DV?$ChTraitsCRT@D@ATL@@@@@0@PBD@Z 00429970 f i MyDB.obj
 0001:00028990       ?Compare@?$CStringT@DV?$StrTraitMFC@DV?$ChTraitsCRT@D@ATL@@@@@ATL@@QBEHPBD@Z 00429990 f i MyDB.obj
 0001:000289e0       ?StringCompare@?$ChTraitsCRT@D@ATL@@SAHPBD0@Z 004299e0 f i MyDB.obj
 0001:000289e0       __tcscmp                   004299e0 f i USER.obj
 0001:00028a00       ?SetLoginTimeout@CDatabase@@QAEXK@Z 00429a00 f i MyDB.obj
 0001:00028a20       ?SetUidNPC@CNpc@@QAEHHHH@Z 00429a20 f   Npc.obj
 0001:00028ac0       ??0CNpc@@QAE@XZ            00429ac0 f   Npc.obj
 0001:00028da0       ??1CNpc@@UAE@XZ            00429da0 f   Npc.obj
 0001:00028e20       ?InitSkill@CNpc@@IAEXXZ    00429e20 f   Npc.obj
 0001:00028e80       ?ClearPathFindData@CNpc@@IAEXXZ 00429e80 f   Npc.obj
 0001:00028eb0       ?SetLive@CNpc@@QAEHPAVCOM@@@Z 00429eb0 f   Npc.obj
 0001:000298c0       ?NpcTypeParser@CNpc@@QAEXXZ 0042a8c0 f   Npc.obj
 0001:00029980       ?FindEnemy@CNpc@@QAEHPAVCOM@@@Z 0042a980 f   Npc.obj
 0001:00029ed0       ?IsDamagedUserList@CNpc@@QAEHPAVUSER@@@Z 0042aed0 f   Npc.obj
 0001:00029f70       ?GetTargetPath@CNpc@@QAEHPAVCOM@@@Z 0042af70 f   Npc.obj
 0001:0002a200       ?GetLastPoint@CNpc@@QAEHHHAAH0@Z 0042b200 f   Npc.obj
 0001:0002a4c0       ?IsCloseTarget@CNpc@@QAEHPAVCOM@@H@Z 0042b4c0 f   Npc.obj
 0001:0002a5f0       ?IsCloseTarget@CNpc@@QAEHPAVUSER@@H@Z 0042b5f0 f   Npc.obj
 0001:0002a730       ?IsMovingEnd@CNpc@@QAEHXZ  0042b730 f   Npc.obj
 0001:0002a7d0       ?GetUser@CNpc@@QAEPAVUSER@@PAVCOM@@H@Z 0042b7d0 f   Npc.obj
 0001:0002a810       ?IsChangePath@CNpc@@QAEHPAVCOM@@H@Z 0042b810 f   Npc.obj
 0001:0002a950       ?GetTargetPos@CNpc@@QAEHPAVCOM@@AAVCPoint@@@Z 0042b950 f   Npc.obj
 0001:0002a9b0       ?ResetPath@CNpc@@QAEHPAVCOM@@@Z 0042b9b0 f   Npc.obj
 0001:0002aa00       ?StepMove@CNpc@@QAEHPAVCOM@@H@Z 0042ba00 f   Npc.obj
 0001:0002ae30       ?Attack@CNpc@@QAEHPAVCOM@@@Z 0042be30 f   Npc.obj
 0001:0002b590       ?GetNpc@CNpc@@QAEPAV1@H@Z  0042c590 f   Npc.obj
 0001:0002b620       ?GetAttack@CNpc@@QAEHXZ    0042c620 f   Npc.obj
 0001:0002b660       ?GetDefense@CNpc@@QAEHXZ   0042c660 f   Npc.obj
 0001:0002b680       ?SetDamage@CNpc@@QAEHH@Z   0042c680 f   Npc.obj
 0001:0002b700       ?Dead@CNpc@@QAEXXZ         0042c700 f   Npc.obj
 0001:0002b7f0       ?SendExpToUserList@CNpc@@QAEXPAVCOM@@@Z 0042c7f0 f   Npc.obj
 0001:0002bd20       ?IsUserInSight@CNpc@@QAEXPAVCOM@@@Z 0042cd20 f   Npc.obj
 0001:0002bf90       ?SendDead@CNpc@@QAEHPAVCOM@@H@Z 0042cf90 f   Npc.obj
 0001:0002c1a0       ?RandomMove@CNpc@@QAEHPAVCOM@@@Z 0042d1a0 f   Npc.obj
 0001:0002c780       ?IsInRange@CNpc@@QAEHXZ    0042d780 f   Npc.obj
 0001:0002c7f0       ?SightRecalc@CNpc@@QAEXPAVCOM@@@Z 0042d7f0 f   Npc.obj
 0001:0002c9d0       ?SendUserInfoBySightChange@CNpc@@QAEXHHHHPAVCOM@@@Z 0042d9d0 f   Npc.obj
 0001:0002cf30       ?SendExactScreen@CNpc@@QAEXPAVCOM@@PADH@Z 0042df30 f   Npc.obj
 0001:0002d030       ?SendInsight@CNpc@@QAEXPAVCOM@@PADH@Z 0042e030 f   Npc.obj
 0001:0002d220       ?GetDistance@CNpc@@QAEHHHH@Z 0042e220 f   Npc.obj
 0001:0002d2d0       ?GiveNpcHaveItem@CNpc@@QAEXPAVCOM@@@Z 0042e2d0 f   Npc.obj
 0001:0002d800       ?IsTransformedItem@CNpc@@QAEHH@Z 0042e800 f   Npc.obj
 0001:0002d8e0       ?IsMagicItem@CNpc@@QAEHPAVCOM@@PAVItemList@@H@Z 0042e8e0 f   Npc.obj
 0001:0002df80       ?shouhu_rand@CNpc@@QAEXPAVItemList@@@Z 0042ef80 f   Npc.obj
 0001:0002e1a0       ?GiveItemToMap@CNpc@@QAEXPAVCOM@@HHH@Z 0042f1a0 f   Npc.obj
 0001:0002ebe0       ?FindNearRandomPoint@CNpc@@QAE?AVCPoint@@HH@Z 0042fbe0 f   Npc.obj
 0001:0002efe0       ?FindNearRandomPointForItem@CNpc@@QAE?AVCPoint@@HH@Z 0042ffe0 f   Npc.obj
 0001:0002f410       ?IsMovable@CNpc@@QAEHHH@Z  00430410 f   Npc.obj
 0001:0002f520       ?SendAttackSuccess@CNpc@@QAEXPAVCOM@@HHFF@Z 00430520 f   Npc.obj
 0001:0002f600       ?SendAttackMiss@CNpc@@QAEXPAVCOM@@H@Z 00430600 f   Npc.obj
 0001:0002f6c0       ?GetWeaponClass@CNpc@@QAEEXZ 004306c0 f   Npc.obj
 0001:0002f730       ?IsSkillSuccess@CNpc@@QAEXPAH@Z 00430730 f   Npc.obj
 0001:0002f840       ?GetNormalInitDamage@CNpc@@QAEHXZ 00430840 f   Npc.obj
 0001:0002f8b0       ?GetCriticalInitDamage@CNpc@@QAEHPAH@Z 004308b0 f   Npc.obj
 0001:0002f900       ?SetConFusion@CNpc@@QAEXXZ 00430900 f   Npc.obj
 0001:0002f950       ?SetColdDamage@CNpc@@QAEXXZ 00430950 f   Npc.obj
 0001:0002f9a0       ?SetFireDamage@CNpc@@QAEXXZ 004309a0 f   Npc.obj
 0001:0002f9f0       ?SetDamage@CNpc@@QAEHHHPAVCOM@@@Z 004309f0 f   Npc.obj
 0001:000300e0       ?CheckNpcRegenCount@CNpc@@QAEHXZ 004310e0 f   Npc.obj
 0001:000300f0       ?IsSurround@CNpc@@QAEHHH@Z 004310f0 f   Npc.obj
 0001:00030160       ?ChangeTarget@CNpc@@QAEXPAVUSER@@PAVCOM@@@Z 00431160 f   Npc.obj
 0001:00030430       ?NpcLive@CNpc@@QAEXPAVCOM@@@Z 00431430 f   Npc.obj
 0001:000309e0       ?NpcStanding@CNpc@@QAEXPAVCOM@@@Z 004319e0 f   Npc.obj
 0001:00030a70       ?NpcSendTeleport@CNpc@@QAEXPAVCOM@@@Z 00431a70 f   Npc.obj
 0001:00030af0       ?NpcMoving@CNpc@@QAEXPAVCOM@@@Z 00431af0 f   Npc.obj
 0001:00030d70       ?NpcAttacking@CNpc@@QAEXPAVCOM@@@Z 00431d70 f   Npc.obj
 0001:00031010       ?NpcTracing@CNpc@@QAEXPAVCOM@@@Z 00432010 f   Npc.obj
 0001:000312f0       ?ChangeSpeed@CNpc@@QAEXPAVCOM@@H@Z 004322f0 f   Npc.obj
 0001:00031300       ?NpcFighting@CNpc@@QAEXPAVCOM@@@Z 00432300 f   Npc.obj
 0001:00031730       ?NpcBack@CNpc@@QAEXPAVCOM@@@Z 00432730 f   Npc.obj
 0001:00031800       ?NpcStrategy@CNpc@@QAEXE@Z 00432800 f   Npc.obj
 0001:00031840       ?FindFriend@CNpc@@QAEXXZ   00432840 f   Npc.obj
 0001:00031aa0       ?GetBackPoint@CNpc@@QAEHAAH0@Z 00432aa0 f   Npc.obj
 0001:00031ca0       ?InitUserList@CNpc@@QAEXXZ 00432ca0 f   Npc.obj
 0001:00031d20       ?CheckClassItem@CNpc@@QAEHHH@Z 00432d20 f   Npc.obj
 0001:00031f40       ?DeleteNPC@CNpc@@QAEXXZ    00432f40 f   Npc.obj
 0001:00031f70       ?GetFinalDamage@CNpc@@QAEHPAVUSER@@H@Z 00432f70 f   Npc.obj
 0001:00032af0       ?FillNpcInfo@CNpc@@QAEXPAVCOM@@PADAAHE@Z 00433af0 f   Npc.obj
 0001:00032e70       ?ConvertToClient@CNpc@@QAE?AVCPoint@@HH@Z 00433e70 f   Npc.obj
 0001:00032f50       ?SendToRange@CNpc@@QAEXPAVCOM@@PADHHHHH@Z 00433f50 f   Npc.obj
 0001:00033100       ?PathFind@CNpc@@QAEHVCPoint@@0@Z 00434100 f   Npc.obj
 0001:00033390       ?IsStepEnd@CNpc@@QAEHXZ    00434390 f   Npc.obj
 0001:000333f0       ?Init@CNpc@@QAEXXZ         004343f0 f   Npc.obj
 0001:00033b30       ?GetCityNumForVirtualRoom@CNpc@@QAEHH@Z 00434b30 f   Npc.obj
 0001:00033b80       ?ConvertToServer@CNpc@@QAE?AVCPoint@@HH@Z 00434b80 f   Npc.obj
 0001:00033cd0       ?NpcTrace@CNpc@@QAEXPAD@Z  00434cd0 f   Npc.obj
 0001:00033d90       ?ToTargetMove@CNpc@@QAEXPAVCOM@@PAVUSER@@@Z 00434d90 f   Npc.obj
 0001:00034570       ?EventNpcInit@CNpc@@QAEXHH@Z 00435570 f   Npc.obj
 0001:000345e0       ?SetGuildType@CNpc@@QAEXPAVCOM@@@Z 004355e0 f   Npc.obj
 0001:000345f0       ?SetDamagedInGuildWar@CNpc@@QAEXHPAVUSER@@@Z 004355f0 f   Npc.obj
 0001:000347f0       ?Send@CNpc@@QAEXPAVUSER@@PADH@Z 004357f0 f   Npc.obj
 0001:00034820       ?GiveEventItemToUser@CNpc@@QAEXPAVUSER@@@Z 00435820 f   Npc.obj
 0001:00034ff0       ?SetISerialToItem@CNpc@@QAEXPAVItemList@@H@Z 00435ff0 f   Npc.obj
 0001:000350a0       ?GetEventItemNum@CNpc@@QAEHPAVCOM@@@Z 004360a0 f   Npc.obj
 0001:000351f0       ?UpdateEventItem@CNpc@@QAEHH@Z 004361f0 f   Npc.obj
 0001:00035420       ?SetFortressState@CNpc@@QAEXXZ 00436420 f   Npc.obj
 0001:000354e0       ?SetDamagedInFortressWar@CNpc@@QAEXHPAVUSER@@@Z 004364e0 f   Npc.obj
 0001:00035ae0       ?SetDoorDamagedInFortressWar@CNpc@@QAEXHPAVUSER@@@Z 00436ae0 f   Npc.obj
 0001:00035bf0       ?SendFortressNCircleColor@CNpc@@QAEXPAVCOM@@@Z 00436bf0 f   Npc.obj
 0001:00035d20       ?SetMapTypeBeforeGuildWar@CNpc@@QAEXPAVCOM@@@Z 00436d20 f   Npc.obj
 0001:000363b0       ?SetMapAfterGuildWar@CNpc@@QAEXXZ 004373b0 f   Npc.obj
 0001:00036830       ?SendFortressInsight@CNpc@@QAEXPAVCOM@@PADH@Z 00437830 f   Npc.obj
 0001:00036a20       ?TestCode@CNpc@@QAEXPAVCOM@@PAVUSER@@@Z 00437a20 f   Npc.obj
 0001:00036e30       ?PsiAttack@CNpc@@QAEHPAVCOM@@@Z 00437e30 f   Npc.obj
 0001:00037470       ?GetWideRangeAttack@CNpc@@QAEXPAVCOM@@HHHH@Z 00438470 f   Npc.obj
 0001:000376d0       ?AreaAttack@CNpc@@QAEHPAVCOM@@@Z 004386d0 f   Npc.obj
 0001:00037f00       ?GiveEventItemNewToUser@CNpc@@QAEXPAVUSER@@@Z 00438f00 f   Npc.obj
 0001:00038810       ?GiveItemToMap@CNpc@@QAEXPAVCOM@@PAVItemList@@@Z 00439810 f   Npc.obj
 0001:000389a0       ?UpdateEventItemNewRemain@CNpc@@QAEHPAVCEventItemNew@@@Z 004399a0 f   Npc.obj
 0001:00038ba0       ?UserListSort@CNpc@@QAEXXZ 00439ba0 f   Npc.obj
 0001:00038db0       ?GetItemThrowTime@CNpc@@QAEKXZ 00439db0 f   Npc.obj
 0001:00038f00       ?CheckUserForNpc_Live@CNpc@@QAEHHH@Z 00439f00 f   Npc.obj
 0001:00038fe0       ?SendNpcInfoBySummon@CNpc@@QAEXPAVCOM@@@Z 00439fe0 f   Npc.obj
 0001:000390f0       ?CheckClassGaiZaoItem@CNpc@@SAHHH@Z 0043a0f0 f   Npc.obj
 0001:00039310       ??_ECNpc@@UAEPAXI@Z        0043a310 f i Npc.obj
 0001:00039310       ??_GCNpc@@UAEPAXI@Z        0043a310 f i Npc.obj
 0001:00039340       ?SetUid@CNpc@@QAEHHHH@Z    0043a340 f i Npc.obj
 0001:000393e0       ??0CRect@@QAE@HHHH@Z       0043a3e0 f i Npc.obj
 0001:00039420       ?InitTarget@CNpc@@QAEXXZ   0043a420 f i Npc.obj
 0001:00039460       ?GetAt@CByteArray@@QBEEH@Z 0043a460 f i Npc.obj
 0001:00039490       ??0__FORTRESSDATAPACKET@@QAE@XZ 0043a490 f i Npc.obj
 0001:000394b0       ?abs@@YAJJ@Z               0043a4b0 f i Npc.obj
 0001:000394d0       ?SetVarString@@YAXPAD0HAAH@Z 0043a4d0 f i Npc.obj
 0001:00039520       ??0CNpcChat@@QAE@XZ        0043a520 f   NpcChat.obj
 0001:00039560       ??1CNpcChat@@UAE@XZ        0043a560 f   NpcChat.obj
 0001:000395a0       ??_GCNpcChat@@UAEPAXI@Z    0043a5a0 f i NpcChat.obj
 0001:000395a0       ??_ECNpcChat@@UAEPAXI@Z    0043a5a0 f i NpcChat.obj
 0001:000395d0       ?GetRuntimeClass@CNpcChatSet@@UBEPAUCRuntimeClass@@XZ 0043a5d0 f   NpcChatSet.obj
 0001:000395e0       ??0CNpcChatSet@@QAE@PAVCDatabase@@@Z 0043a5e0 f   NpcChatSet.obj
 0001:000396a0       ?GetDefaultConnect@CNpcChatSet@@UAE?AV?$CStringT@DV?$StrTraitMFC@DV?$ChTraitsCRT@D@ATL@@@@@ATL@@XZ 0043a6a0 f   NpcChatSet.obj
 0001:000396d0       ?GetDefaultSQL@CNpcChatSet@@UAE?AV?$CStringT@DV?$StrTraitMFC@DV?$ChTraitsCRT@D@ATL@@@@@ATL@@XZ 0043a6d0 f   NpcChatSet.obj
 0001:00039700       ?DoFieldExchange@CNpcChatSet@@UAEXPAVCFieldExchange@@@Z 0043a700 f   NpcChatSet.obj
 0001:00039770       ??0CNpcItem@@QAE@XZ        0043a770 f   NpcItem.obj
 0001:000397a0       ??1CNpcItem@@QAE@XZ        0043a7a0 f   NpcItem.obj
 0001:00039810       ?GetRuntimeClass@CNpcItemSet@@UBEPAUCRuntimeClass@@XZ 0043a810 f   NpcItemSet.obj
 0001:00039820       ??0CNpcItemSet@@QAE@PAVCDatabase@@@Z 0043a820 f   NpcItemSet.obj
 0001:00039a80       ?GetDefaultConnect@CNpcItemSet@@UAE?AV?$CStringT@DV?$StrTraitMFC@DV?$ChTraitsCRT@D@ATL@@@@@ATL@@XZ 0043aa80 f   NpcItemSet.obj
 0001:00039ab0       ?GetDefaultSQL@CNpcItemSet@@UAE?AV?$CStringT@DV?$StrTraitMFC@DV?$ChTraitsCRT@D@ATL@@@@@ATL@@XZ 0043aab0 f   NpcItemSet.obj
 0001:00039ae0       ?DoFieldExchange@CNpcItemSet@@UAEXPAVCFieldExchange@@@Z 0043aae0 f   NpcItemSet.obj
 0001:00039ed0       ?GetRuntimeClass@CNpcPosSet@@UBEPAUCRuntimeClass@@XZ 0043aed0 f   NpcPosSet.obj
 0001:00039ee0       ??0CNpcPosSet@@QAE@PAVCDatabase@@@Z 0043aee0 f   NpcPosSet.obj
 0001:0003a060       ?GetDefaultConnect@CNpcPosSet@@UAE?AV?$CStringT@DV?$StrTraitMFC@DV?$ChTraitsCRT@D@ATL@@@@@ATL@@XZ 0043b060 f   NpcPosSet.obj
 0001:0003a090       ?GetDefaultSQL@CNpcPosSet@@UAE?AV?$CStringT@DV?$StrTraitMFC@DV?$ChTraitsCRT@D@ATL@@@@@ATL@@XZ 0043b090 f   NpcPosSet.obj
 0001:0003a0c0       ?DoFieldExchange@CNpcPosSet@@UAEXPAVCFieldExchange@@@Z 0043b0c0 f   NpcPosSet.obj
 0001:0003a290       ??1CDBItemInfo@@UAE@XZ     0043b290 f i DBItemInfo.obj
 0001:0003a290       ??1CNpcPosSet@@UAE@XZ      0043b290 f i NpcPosSet.obj
 0001:0003a290       ??1CEventItemTableSet@@UAE@XZ 0043b290 f i EventItemTableSet.obj
 0001:0003a290       ??1CNpcSayEventSet@@UAE@XZ 0043b290 f i NpcSayEventSet.obj
 0001:0003a2c0       ?GetRuntimeClass@CNpcSayEventSet@@UBEPAUCRuntimeClass@@XZ 0043b2c0 f   NpcSayEventSet.obj
 0001:0003a2d0       ??0CNpcSayEventSet@@QAE@PAVCDatabase@@@Z 0043b2d0 f   NpcSayEventSet.obj
 0001:0003a380       ?GetDefaultConnect@CNpcSayEventSet@@UAE?AV?$CStringT@DV?$StrTraitMFC@DV?$ChTraitsCRT@D@ATL@@@@@ATL@@XZ 0043b380 f   NpcSayEventSet.obj
 0001:0003a3b0       ?GetDefaultSQL@CNpcSayEventSet@@UAE?AV?$CStringT@DV?$StrTraitMFC@DV?$ChTraitsCRT@D@ATL@@@@@ATL@@XZ 0043b3b0 f   NpcSayEventSet.obj
 0001:0003a3e0       ?DoFieldExchange@CNpcSayEventSet@@UAEXPAVCFieldExchange@@@Z 0043b3e0 f   NpcSayEventSet.obj
 0001:0003a430       ??0CNpcSayTable@@QAE@XZ    0043b430 f   NpcSayTable.obj
 0001:0003a4b0       ??1CNpcSayTable@@UAE@XZ    0043b4b0 f   NpcSayTable.obj
 0001:0003a4d0       ??_GCNpcSayTable@@UAEPAXI@Z 0043b4d0 f i NpcSayTable.obj
 0001:0003a4d0       ??_ECNpcSayTable@@UAEPAXI@Z 0043b4d0 f i NpcSayTable.obj
 0001:0003a500       ??0CNpcTable@@QAE@XZ       0043b500 f   NpcTable.obj
 0001:0003a670       ??1CNpcTable@@UAE@XZ       0043b670 f   NpcTable.obj
 0001:0003a690       ??_ECNpcTable@@UAEPAXI@Z   0043b690 f i NpcTable.obj
 0001:0003a690       ??_GCNpcTable@@UAEPAXI@Z   0043b690 f i NpcTable.obj
 0001:0003a6c0       ?GetRuntimeClass@CNpcTableSet@@UBEPAUCRuntimeClass@@XZ 0043b6c0 f   NpcTableSet.obj
 0001:0003a6d0       ??0CNpcTableSet@@QAE@PAVCDatabase@@@Z 0043b6d0 f   NpcTableSet.obj
 0001:0003a910       ?GetDefaultConnect@CNpcTableSet@@UAE?AV?$CStringT@DV?$StrTraitMFC@DV?$ChTraitsCRT@D@ATL@@@@@ATL@@XZ 0043b910 f   NpcTableSet.obj
 0001:0003a940       ?GetDefaultSQL@CNpcTableSet@@UAE?AV?$CStringT@DV?$StrTraitMFC@DV?$ChTraitsCRT@D@ATL@@@@@ATL@@XZ 0043b940 f   NpcTableSet.obj
 0001:0003a970       ?DoFieldExchange@CNpcTableSet@@UAEXPAVCFieldExchange@@@Z 0043b970 f   NpcTableSet.obj
 0001:0003ad00       ??_GCAddEventItemTableSet@@UAEPAXI@Z 0043bd00 f i AddEventItemTableSet.obj
 0001:0003ad00       ??_ECCityNpcTableSet@@UAEPAXI@Z 0043bd00 f i CityNpcTableSet.obj
 0001:0003ad00       ??_ECNpcChatSet@@UAEPAXI@Z 0043bd00 f i NpcChatSet.obj
 0001:0003ad00       ??_ECAccessoriUpTableSet@@UAEPAXI@Z 0043bd00 f i AccessoriUpTableSet.obj
 0001:0003ad00       ??_ECNpcTableSet@@UAEPAXI@Z 0043bd00 f i NpcTableSet.obj
 0001:0003ad00       ??_GCNpcChatSet@@UAEPAXI@Z 0043bd00 f i NpcChatSet.obj
 0001:0003ad00       ??_GCCityNpcTableSet@@UAEPAXI@Z 0043bd00 f i CityNpcTableSet.obj
 0001:0003ad00       ??_GCNpcTableSet@@UAEPAXI@Z 0043bd00 f i NpcTableSet.obj
 0001:0003ad00       ??_GCAccessoriUpTableSet@@UAEPAXI@Z 0043bd00 f i AccessoriUpTableSet.obj
 0001:0003ad00       ??_ECAddEventItemTableSet@@UAEPAXI@Z 0043bd00 f i AddEventItemTableSet.obj
 0001:0003ad30       ??1CNpcTableSet@@UAE@XZ    0043bd30 f i NpcTableSet.obj
 0001:0003ad30       ??1CAccessoriUpTableSet@@UAE@XZ 0043bd30 f i AccessoriUpTableSet.obj
 0001:0003ad30       ??1CCityNpcTableSet@@UAE@XZ 0043bd30 f i CityNpcTableSet.obj
 0001:0003ad30       ??1CNpcChatSet@@UAE@XZ     0043bd30 f i NpcChatSet.obj
 0001:0003ad30       ??1CAddEventItemTableSet@@UAE@XZ 0043bd30 f i AddEventItemTableSet.obj
 0001:0003ad60       ?NpcThreadProc@@YAIPAX@Z   0043bd60 f   NpcThread.obj
 0001:0003b180       ??0CNpcThread@@QAE@XZ      0043c180 f   NpcThread.obj
 0001:0003b1f0       ??1CNpcThread@@UAE@XZ      0043c1f0 f   NpcThread.obj
 0001:0003b280       ?InitThreadInfo@CNpcThread@@QAEXPAUHWND__@@@Z 0043c280 f   NpcThread.obj
 0001:0003b2b0       ??_GCNpcThread@@UAEPAXI@Z  0043c2b0 f i NpcThread.obj
 0001:0003b2b0       ??_ECNpcThread@@UAEPAXI@Z  0043c2b0 f i NpcThread.obj
 0001:0003b2e0       ??0OnlineShop@@QAE@XZ      0043c2e0 f   OnlineShop.obj
 0001:0003b3e0       ??1OnlineShop@@UAE@XZ      0043c3e0 f   OnlineShop.obj
 0001:0003b400       ??_EOnlineShop@@UAEPAXI@Z  0043c400 f i OnlineShop.obj
 0001:0003b400       ??_GOnlineShop@@UAEPAXI@Z  0043c400 f i OnlineShop.obj
 0001:0003b430       ??0CPAMAExp@@QAE@XZ        0043c430 f   PAMAExp.obj
 0001:0003b440       ??1CPAMAExp@@QAE@XZ        0043c440 f   PAMAExp.obj
 0001:0003b450       ?GetRuntimeClass@CPAMAExpSet@@UBEPAUCRuntimeClass@@XZ 0043c450 f   PAMAExpSet.obj
 0001:0003b460       ??0CPAMAExpSet@@QAE@PAVCDatabase@@@Z 0043c460 f   PAMAExpSet.obj
 0001:0003b4b0       ?GetDefaultConnect@CPAMAExpSet@@UAE?AV?$CStringT@DV?$StrTraitMFC@DV?$ChTraitsCRT@D@ATL@@@@@ATL@@XZ 0043c4b0 f   PAMAExpSet.obj
 0001:0003b4e0       ?GetDefaultSQL@CPAMAExpSet@@UAE?AV?$CStringT@DV?$StrTraitMFC@DV?$ChTraitsCRT@D@ATL@@@@@ATL@@XZ 0043c4e0 f   PAMAExpSet.obj
 0001:0003b510       ?DoFieldExchange@CPAMAExpSet@@UAEXPAVCFieldExchange@@@Z 0043c510 f   PAMAExpSet.obj
 0001:0003b540       ??0CPath@@QAE@XZ           0043c540 f   Path.obj
 0001:0003b6c0       ?SettingConer@CPath@@AAEXXZ 0043c6c0 f   Path.obj
 0001:0003b860       ??1CPath@@QAE@XZ           0043c860 f   Path.obj
 0001:0003b8a0       ?SetTile@CPath@@QAEXPAPAVMapInfo@@HH@Z 0043c8a0 f   Path.obj
 0001:0003b8d0       ?Setting@CPath@@AAEXXZ     0043c8d0 f   Path.obj
 0001:0003ba00       ?CheckDirection@CPath@@AAEHHH@Z 0043ca00 f   Path.obj
 0001:0003ba80       ?InsertNode@CPath@@AAEPAUPOS_LINK@1@PAU21@H@Z 0043ca80 f   Path.obj
 0001:0003baf0       ?DeleteNode@CPath@@AAEXPAUPOS_LINK@1@0@Z 0043caf0 f   Path.obj
 0001:0003bb50       ?FreeNode@CPath@@AAEXPAUPOS_LINK@1@@Z 0043cb50 f   Path.obj
 0001:0003bb90       ?PathFinder@CPath@@QAEPAV?$CList@VCPoint@@V1@@@HHHH@Z 0043cb90 f   Path.obj
 0001:0003bdd0       ?Generate@CPath@@AAEXXZ    0043cdd0 f   Path.obj
 0001:0003bec0       ?NextNode@CPath@@AAEPAUPOS_LINK@1@PAU21@0@Z 0043cec0 f   Path.obj
 0001:0003bf80       ?GenerateSuccessors@CPath@@AAEPAUPOS_LINK@1@PAU21@0H@Z 0043cf80 f   Path.obj
 0001:0003c340       ?CompareNode@CPath@@AAEHHH@Z 0043d340 f   Path.obj
 0001:0003c3a0       ?ChoiceNode@CPath@@AAEPAUPOS_LINK@1@XZ 0043d3a0 f   Path.obj
 0001:0003c440       ?SearchTile@CPath@@AAEHPAUPOS_LINK@1@@Z 0043d440 f   Path.obj
 0001:0003ce00       ?IsConer@CPath@@AAEHHH@Z   0043de00 f   Path.obj
 0001:0003d120       ?SearchBlock@CPath@@AAEHPAUPOS_LINK@1@0@Z 0043e120 f   Path.obj
 0001:0003d1b0       ?IsBlock@CPath@@AAEHPAUPOS_LINK@1@0@Z 0043e1b0 f   Path.obj
 0001:0003d900       ?PathList@CPath@@AAEXPAUPOS_LINK@1@0@Z 0043e900 f   Path.obj
 0001:0003da20       ?PutDistance@CPath@@AAEXXZ 0043ea20 f   Path.obj
 0001:0003dd30       ?PutXPath@CPath@@AAEHPAUPATH_CONER@1@HHHH@Z 0043ed30 f   Path.obj
 0001:0003e0d0       ?PutYPath@CPath@@AAEHPAUPATH_CONER@1@HHHH@Z 0043f0d0 f   Path.obj
 0001:0003e470       ?PutXPath@CPath@@AAEXPAUPOS_LINK@1@HH@Z 0043f470 f   Path.obj
 0001:0003e900       ?PutYPath@CPath@@AAEXPAUPOS_LINK@1@HH@Z 0043f900 f   Path.obj
 0001:0003ed90       ?Push@CPath@@AAEHH@Z       0043fd90 f   Path.obj
 0001:0003ede0       ?Pop@CPath@@AAEHXZ         0043fde0 f   Path.obj
 0001:0003ee30       ?QSort@CPath@@AAEXQAUPATH_CONER@1@H@Z 0043fe30 f   Path.obj
 0001:0003f0a0       ?IsMovable@CPath@@QAEHHH@Z 004400a0 f   Path.obj
 0001:0003f100       ?IsGhost@CPath@@QAEXH@Z    00440100 f   Path.obj
 0001:0003f120       ?InitNodePool@CPath@@AAEXXZ 00440120 f   Path.obj
 0001:0003f1d0       ?DeleteNodePool@CPath@@AAEXXZ 004401d0 f   Path.obj
 0001:0003f200       ?GetNodePool@CPath@@AAEPAUPOS_LINK@1@XZ 00440200 f   Path.obj
 0001:0003f270       ?FreeNodePool@CPath@@AAEHPAUPOS_LINK@1@@Z 00440270 f   Path.obj
 0001:0003f2c0       ??0?$CList@VCPoint@@V1@@@QAE@H@Z 004402c0 f i Path.obj
 0001:0003f320       ?AddTail@?$CList@VCPoint@@V1@@@QAEPAU__POSITION@@VCPoint@@@Z 00440320 f i Path.obj
 0001:0003f380       ?Serialize@?$CList@VCPoint@@V1@@@UAEXAAVCArchive@@@Z 00440380 f i Path.obj
 0001:0003f440       ??_G?$CList@VCPoint@@V1@@@UAEPAXI@Z 00440440 f i Path.obj
 0001:0003f440       ??_E?$CList@VCPoint@@V1@@@UAEPAXI@Z 00440440 f i Path.obj
 0001:0003f470       ??1?$CList@VCPoint@@V1@@@UAE@XZ 00440470 f i Path.obj
 0001:0003f4d0       ?RemoveAll@?$CList@VCPoint@@V1@@@QAEXXZ 004404d0 f i Path.obj
 0001:0003f540       ?NewNode@?$CList@VCPoint@@V1@@@IAEPAUCNode@1@PAU21@0@Z 00440540 f i Path.obj
 0001:0003f650       ?data@CPlex@@QAEPAXXZ      00440650 f i Path.obj
 0001:0003f670       ??0CPathFind@@QAE@XZ       00440670 f   PathFind.obj
 0001:0003f6d0       ??1CPathFind@@UAE@XZ       004406d0 f   PathFind.obj
 0001:0003f700       ?ClearData@CPathFind@@QAEXXZ 00440700 f   PathFind.obj
 0001:0003f7b0       ?SetMap@CPathFind@@QAEXHHPAH@Z 004407b0 f   PathFind.obj
 0001:0003f800       ?FindPath@CPathFind@@QAEPAVNODE@@HHHH@Z 00440800 f   PathFind.obj
 0001:0003f9a0       ?ReturnBestNode@CPathFind@@QAEPAVNODE@@XZ 004409a0 f   PathFind.obj
 0001:0003fa00       ?FindChildPath@CPathFind@@QAEXPAVNODE@@HH@Z 00440a00 f   PathFind.obj
 0001:0003fc60       ?FindChildPathSub@CPathFind@@QAEXPAVNODE@@HHHHH@Z 00440c60 f   PathFind.obj
 0001:0003fe40       ?CheckOpen@CPathFind@@QAEPAVNODE@@HH@Z 00440e40 f   PathFind.obj
 0001:0003fe90       ?CheckClosed@CPathFind@@QAEPAVNODE@@HH@Z 00440e90 f   PathFind.obj
 0001:0003fee0       ?Insert@CPathFind@@QAEXPAVNODE@@@Z 00440ee0 f   PathFind.obj
 0001:0003ff60       ?PropagateDown@CPathFind@@QAEXPAVNODE@@@Z 00440f60 f   PathFind.obj
 0001:00040080       ?Push@CPathFind@@QAEXPAVNODE@@@Z 00441080 f   PathFind.obj
 0001:000400d0       ?Pop@CPathFind@@QAEPAVNODE@@XZ 004410d0 f   PathFind.obj
 0001:00040110       ?IsBlankMap@CPathFind@@QAEHHH@Z 00441110 f   PathFind.obj
 0001:00040160       ??_GCPathFind@@UAEPAXI@Z   00441160 f i PathFind.obj
 0001:00040160       ??_ECPathFind@@UAEPAXI@Z   00441160 f i PathFind.obj
 0001:00040190       ??0CFreeList@@QAE@XZ       00441190 f   PoolBase.obj
 0001:000401f0       ??0CFreeList@@QAE@H@Z      004411f0 f   PoolBase.obj
 0001:00040290       ??1CFreeList@@QAE@XZ       00441290 f   PoolBase.obj
 0001:000402e0       ?AddTail@CFreeList@@QAEXPBURHANDLE@@@Z 004412e0 f   PoolBase.obj
 0001:00040420       ?AddNew@CResourceArray@@QAEPBURHANDLE@@H@Z 00441420 f   PoolBase.obj
 0001:000404c0       ?RemoveAll@CFreeList@@QAEXXZ 004414c0 f   PoolBase.obj
 0001:00040540       ?Pop@CFreeList@@QAEPBURHANDLE@@XZ 00441540 f   PoolBase.obj
 0001:00040630       ?GetCount@CFreeList@@QAEKXZ 00441630 f   PoolBase.obj
 0001:00040650       ??0CResourceArray@@QAE@J@Z 00441650 f   PoolBase.obj
 0001:000406d0       ??1CResourceArray@@QAE@XZ  004416d0 f   PoolBase.obj
 0001:00040730       ?Add@CResourceArray@@QAEPBURHANDLE@@XZ 00441730 f   PoolBase.obj
 0001:00040810       ?RemoveAll@CResourceArray@@QAEXXZ 00441810 f   PoolBase.obj
 0001:000408e0       ?GetResourceHandle@CResourceArray@@UAEJXZ 004418e0 f   PoolBase.obj
 0001:000408f0       ?GetHandle@CResourceArray@@QAEPAURHANDLE@@J@Z 004418f0 f   PoolBase.obj
 0001:00040930       ?GetDataValue@CResourceArray@@QAEJJ@Z 00441930 f   PoolBase.obj
 0001:00040970       ?ReleaseResourceHandle@CResourceArray@@UAEXJ@Z 00441970 f   PoolBase.obj
 0001:00040980       ?SetBusy@CResourceArray@@UAEXJ@Z 00441980 f   PoolBase.obj
 0001:000409d0       ?SetFree@CResourceArray@@UAEXJ@Z 004419d0 f   PoolBase.obj
 0001:00040a20       ?TimeOutSetFree@CResourceArray@@UAEHJ@Z 00441a20 f   PoolBase.obj
 0001:00040a70       ?IsFree@CResourceArray@@QAE_NJ@Z 00441a70 f   PoolBase.obj
 0001:00040ab0       ?GetCount@CResourceArray@@QAEJXZ 00441ab0 f   PoolBase.obj
 0001:00040ad0       ?SetTimeStamp@CResourceArray@@QAEXJJ@Z 00441ad0 f   PoolBase.obj
 0001:00040b10       ??0CPoolBaseManager@@QAE@XZ 00441b10 f   PoolBase.obj
 0001:00040b50       ??1CPoolBaseManager@@QAE@XZ 00441b50 f   PoolBase.obj
 0001:00040bf0       ?AllocateMoreResourcesThread@@YGKPAX@Z 00441bf0 f   PoolBase.obj
 0001:00040c50       ?RefreshDeadResourcesThread@@YGKPAX@Z 00441c50 f   PoolBase.obj
 0001:00040ca0       ?AddResource@CPoolBaseManager@@QAEHH@Z 00441ca0 f   PoolBase.obj
 0001:00040d10       ?AllocateResources@CPoolBaseManager@@QAEKK@Z 00441d10 f   PoolBase.obj
 0001:00040de0       ?DeallocateResources@CPoolBaseManager@@QAEXXZ 00441de0 f   PoolBase.obj
 0001:00040e50       ?ReleaseDeadResources@CPoolBaseManager@@QAEXXZ 00441e50 f   PoolBase.obj
 0001:00040f50       ?Init@CPoolBaseManager@@QAEXKKKKKKKKPAVCResourceArray@@@Z 00441f50 f   PoolBase.obj
 0001:00041050       ?GetFreeResource@CPoolBaseManager@@QAEKPAPBURHANDLE@@@Z 00442050 f   PoolBase.obj
 0001:000410e0       ?ReleaseResource@CPoolBaseManager@@QAEXPBURHANDLE@@@Z 004420e0 f   PoolBase.obj
 0001:00041170       ?FreeResourcesLeft@CPoolBaseManager@@QAEKXZ 00442170 f   PoolBase.obj
 0001:00041190       ?GetNumResources@CPoolBaseManager@@QAEKXZ 00442190 f   PoolBase.obj
 0001:000411b0       ?SetStop@CPoolBaseManager@@QAEXXZ 004421b0 f   PoolBase.obj
 0001:000411d0       ??_GCResourceArray@@QAEPAXI@Z 004421d0 f i PoolBase.obj
 0001:00041200       ??_GCFreeList@@QAEPAXI@Z   00442200 f i PoolBase.obj
 0001:00041230       ?GetRuntimeClass@CPsiStoreSet@@UBEPAUCRuntimeClass@@XZ 00442230 f   PsiStoreSet.obj
 0001:00041240       ??0CPsiStoreSet@@QAE@PAVCDatabase@@@Z 00442240 f   PsiStoreSet.obj
 0001:000412a0       ?GetDefaultConnect@CPsiStoreSet@@UAE?AV?$CStringT@DV?$StrTraitMFC@DV?$ChTraitsCRT@D@ATL@@@@@ATL@@XZ 004422a0 f   PsiStoreSet.obj
 0001:000412d0       ?GetDefaultSQL@CPsiStoreSet@@UAE?AV?$CStringT@DV?$StrTraitMFC@DV?$ChTraitsCRT@D@ATL@@@@@ATL@@XZ 004422d0 f   PsiStoreSet.obj
 0001:00041300       ?DoFieldExchange@CPsiStoreSet@@UAEXPAVCFieldExchange@@@Z 00442300 f   PsiStoreSet.obj
 0001:00041350       ??0CPsiTable@@QAE@XZ       00442350 f   PsiTable.obj
 0001:00041380       ??1CPsiTable@@QAE@XZ       00442380 f   PsiTable.obj
 0001:000413b0       ?GetRuntimeClass@CPsiTableSet@@UBEPAUCRuntimeClass@@XZ 004423b0 f   PsiTableSet.obj
 0001:000413c0       ??0CPsiTableSet@@QAE@PAVCDatabase@@@Z 004423c0 f   PsiTableSet.obj
 0001:00041530       ?GetDefaultConnect@CPsiTableSet@@UAE?AV?$CStringT@DV?$StrTraitMFC@DV?$ChTraitsCRT@D@ATL@@@@@ATL@@XZ 00442530 f   PsiTableSet.obj
 0001:00041560       ?GetDefaultSQL@CPsiTableSet@@UAE?AV?$CStringT@DV?$StrTraitMFC@DV?$ChTraitsCRT@D@ATL@@@@@ATL@@XZ 00442560 f   PsiTableSet.obj
 0001:00041590       ?DoFieldExchange@CPsiTableSet@@UAEXPAVCFieldExchange@@@Z 00442590 f   PsiTableSet.obj
 0001:00041740       ??_GCPsiTableSet@@UAEPAXI@Z 00442740 f i PsiTableSet.obj
 0001:00041740       ??_ECPsiTableSet@@UAEPAXI@Z 00442740 f i PsiTableSet.obj
 0001:00041770       ??1CPsiTableSet@@UAE@XZ    00442770 f i PsiTableSet.obj
 0001:000417a0       ??0CRecover@@QAE@XZ        004427a0 f   Recover.obj
 0001:000417e0       ??1CRecover@@UAE@XZ        004427e0 f   Recover.obj
 0001:00041800       ??_GCRecover@@UAEPAXI@Z    00442800 f i Recover.obj
 0001:00041800       ??_ECRecover@@UAEPAXI@Z    00442800 f i Recover.obj
 0001:00041830       ??0CRecoverRate@@QAE@XZ    00442830 f   RecoverRate.obj
 0001:00041880       ??1CRecoverRate@@UAE@XZ    00442880 f   RecoverRate.obj
 0001:000418a0       ??_GCRecoverRate@@UAEPAXI@Z 004428a0 f i RecoverRate.obj
 0001:000418a0       ??_ECRecoverRate@@UAEPAXI@Z 004428a0 f i RecoverRate.obj
 0001:000418d0       ?GetRuntimeClass@CRecoverRateSet@@UBEPAUCRuntimeClass@@XZ 004428d0 f   RecoverRateSet.obj
 0001:000418e0       ??0CRecoverRateSet@@QAE@PAVCDatabase@@@Z 004428e0 f   RecoverRateSet.obj
 0001:00041970       ?GetDefaultConnect@CRecoverRateSet@@UAE?AV?$CStringT@DV?$StrTraitMFC@DV?$ChTraitsCRT@D@ATL@@@@@ATL@@XZ 00442970 f   RecoverRateSet.obj
 0001:000419a0       ?GetDefaultSQL@CRecoverRateSet@@UAE?AV?$CStringT@DV?$StrTraitMFC@DV?$ChTraitsCRT@D@ATL@@@@@ATL@@XZ 004429a0 f   RecoverRateSet.obj
 0001:000419d0       ?DoFieldExchange@CRecoverRateSet@@UAEXPAVCFieldExchange@@@Z 004429d0 f   RecoverRateSet.obj
 0001:00041a90       ?GetRuntimeClass@CRecoverSet@@UBEPAUCRuntimeClass@@XZ 00442a90 f   RecoverSet.obj
 0001:00041aa0       ??0CRecoverSet@@QAE@PAVCDatabase@@@Z 00442aa0 f   RecoverSet.obj
 0001:00041b20       ?GetDefaultConnect@CRecoverSet@@UAE?AV?$CStringT@DV?$StrTraitMFC@DV?$ChTraitsCRT@D@ATL@@@@@ATL@@XZ 00442b20 f   RecoverSet.obj
 0001:00041b50       ?GetDefaultSQL@CRecoverSet@@UAE?AV?$CStringT@DV?$StrTraitMFC@DV?$ChTraitsCRT@D@ATL@@@@@ATL@@XZ 00442b50 f   RecoverSet.obj
 0001:00041b80       ?DoFieldExchange@CRecoverSet@@UAEXPAVCFieldExchange@@@Z 00442b80 f   RecoverSet.obj
 0001:00041c10       ?GetRuntimeClass@CRemodeling02TableSet@@UBEPAUCRuntimeClass@@XZ 00442c10 f   Remodeling02TableSet.obj
 0001:00041c20       ??0CRemodeling02TableSet@@QAE@PAVCDatabase@@@Z 00442c20 f   Remodeling02TableSet.obj
 0001:00041d20       ?GetDefaultConnect@CRemodeling02TableSet@@UAE?AV?$CStringT@DV?$StrTraitMFC@DV?$ChTraitsCRT@D@ATL@@@@@ATL@@XZ 00442d20 f   Remodeling02TableSet.obj
 0001:00041d50       ?GetDefaultSQL@CRemodeling02TableSet@@UAE?AV?$CStringT@DV?$StrTraitMFC@DV?$ChTraitsCRT@D@ATL@@@@@ATL@@XZ 00442d50 f   Remodeling02TableSet.obj
 0001:00041d80       ?DoFieldExchange@CRemodeling02TableSet@@UAEXPAVCFieldExchange@@@Z 00442d80 f   Remodeling02TableSet.obj
 0001:00041e80       ??_GCEBodyTableSet@@UAEPAXI@Z 00442e80 f i EBodyTableSet.obj
 0001:00041e80       ??_GCRemodeling03TableSet@@UAEPAXI@Z 00442e80 f i Remodeling03TableSet.obj
 0001:00041e80       ??_ECMagicItemTableSet@@UAEPAXI@Z 00442e80 f i MagicItemTableSet.obj
 0001:00041e80       ??_GCMagicItemTableSet@@UAEPAXI@Z 00442e80 f i MagicItemTableSet.obj
 0001:00041e80       ??_GCRemodeling02TableSet@@UAEPAXI@Z 00442e80 f i Remodeling02TableSet.obj
 0001:00041e80       ??_ECRemodeling02TableSet@@UAEPAXI@Z 00442e80 f i Remodeling02TableSet.obj
 0001:00041e80       ??_ECRemodeling03TableSet@@UAEPAXI@Z 00442e80 f i Remodeling03TableSet.obj
 0001:00041e80       ??_ECEBodyTableSet@@UAEPAXI@Z 00442e80 f i EBodyTableSet.obj
 0001:00041eb0       ??1CEBodyTableSet@@UAE@XZ  00442eb0 f i EBodyTableSet.obj
 0001:00041eb0       ??1CRemodeling03TableSet@@UAE@XZ 00442eb0 f i Remodeling03TableSet.obj
 0001:00041eb0       ??1CRemodeling02TableSet@@UAE@XZ 00442eb0 f i Remodeling02TableSet.obj
 0001:00041eb0       ??1CMagicItemTableSet@@UAE@XZ 00442eb0 f i MagicItemTableSet.obj
 0001:00041ee0       ?GetRuntimeClass@CRemodeling03TableSet@@UBEPAUCRuntimeClass@@XZ 00442ee0 f   Remodeling03TableSet.obj
 0001:00041ef0       ??0CRemodeling03TableSet@@QAE@PAVCDatabase@@@Z 00442ef0 f   Remodeling03TableSet.obj
 0001:00041ff0       ?GetDefaultConnect@CRemodeling03TableSet@@UAE?AV?$CStringT@DV?$StrTraitMFC@DV?$ChTraitsCRT@D@ATL@@@@@ATL@@XZ 00442ff0 f   Remodeling03TableSet.obj
 0001:00042020       ?GetDefaultSQL@CRemodeling03TableSet@@UAE?AV?$CStringT@DV?$StrTraitMFC@DV?$ChTraitsCRT@D@ATL@@@@@ATL@@XZ 00443020 f   Remodeling03TableSet.obj
 0001:00042050       ?DoFieldExchange@CRemodeling03TableSet@@UAEXPAVCFieldExchange@@@Z 00443050 f   Remodeling03TableSet.obj
 0001:00042150       ??0CRemodelingTable@@QAE@XZ 00443150 f   RemodelingTable.obj
 0001:00042170       ??1CRemodelingTable@@UAE@XZ 00443170 f   RemodelingTable.obj
 0001:00042190       ??_GCRemodelingTable@@UAEPAXI@Z 00443190 f i RemodelingTable.obj
 0001:00042190       ??_ECRemodelingTable@@UAEPAXI@Z 00443190 f i RemodelingTable.obj
 0001:000421c0       ?GetRuntimeClass@CRemodelingTableSet@@UBEPAUCRuntimeClass@@XZ 004431c0 f   RemodelingTableSet.obj
 0001:000421d0       ??0CRemodelingTableSet@@QAE@PAVCDatabase@@@Z 004431d0 f   RemodelingTableSet.obj
 0001:000422d0       ?GetDefaultConnect@CRemodelingTableSet@@UAE?AV?$CStringT@DV?$StrTraitMFC@DV?$ChTraitsCRT@D@ATL@@@@@ATL@@XZ 004432d0 f   RemodelingTableSet.obj
 0001:00042300       ?GetDefaultSQL@CRemodelingTableSet@@UAE?AV?$CStringT@DV?$StrTraitMFC@DV?$ChTraitsCRT@D@ATL@@@@@ATL@@XZ 00443300 f   RemodelingTableSet.obj
 0001:00042330       ?DoFieldExchange@CRemodelingTableSet@@UAEXPAVCFieldExchange@@@Z 00443330 f   RemodelingTableSet.obj
 0001:00042430       ??_GCRemodelingTableSet@@UAEPAXI@Z 00443430 f i RemodelingTableSet.obj
 0001:00042430       ??_ECRemodelingTableSet@@UAEPAXI@Z 00443430 f i RemodelingTableSet.obj
 0001:00042460       ??1CRemodelingTableSet@@UAE@XZ 00443460 f i RemodelingTableSet.obj
 0001:00042490       ??0CRoyalRumble@@QAE@XZ    00443490 f   RoyalRumble.obj
 0001:00042580       ??1CRoyalRumble@@UAE@XZ    00443580 f   RoyalRumble.obj
 0001:00042660       ?Init@CRoyalRumble@@QAEXHHH@Z 00443660 f   RoyalRumble.obj
 0001:000428e0       ?CheckRRStatus@CRoyalRumble@@QAEXXZ 004438e0 f   RoyalRumble.obj
 0001:00042b10       ?CountDownStart@CRoyalRumble@@QAEXXZ 00443b10 f   RoyalRumble.obj
 0001:00042c20       ?Start@CRoyalRumble@@QAEXXZ 00443c20 f   RoyalRumble.obj
 0001:00042cc0       ?CheckRREnd@CRoyalRumble@@QAEXXZ 00443cc0 f   RoyalRumble.obj
 0001:00042e00       ?End@CRoyalRumble@@QAEXXZ  00443e00 f   RoyalRumble.obj
 0001:00043030       ?GetWinner@CRoyalRumble@@QAEPAVUSER@@XZ 00444030 f   RoyalRumble.obj
 0001:000432b0       ?CheckEnteringByTime@CRoyalRumble@@QAEHXZ 004442b0 f   RoyalRumble.obj
 0001:000432d0       ?CheckEnteringByMaxUser@CRoyalRumble@@QAEHXZ 004442d0 f   RoyalRumble.obj
 0001:00043300       ?Enter@CRoyalRumble@@QAEHPAVUSER@@@Z 00444300 f   RoyalRumble.obj
 0001:000433c0       ?Exit@CRoyalRumble@@QAEXPAVUSER@@@Z 004443c0 f   RoyalRumble.obj
 0001:00043480       ?CheckRRBravoEnd@CRoyalRumble@@QAEXXZ 00444480 f   RoyalRumble.obj
 0001:000434c0       ?ForceExit@CRoyalRumble@@QAEXXZ 004444c0 f   RoyalRumble.obj
 0001:00043560       ?BBSWrite@CRoyalRumble@@QAEXPAD0@Z 00444560 f   RoyalRumble.obj
 0001:000437f0       ?UpdateRoyalRumbleData@CRoyalRumble@@QAEXXZ 004447f0 f   RoyalRumble.obj
 0001:00043a40       ?RobItem@CRoyalRumble@@QAEXXZ 00444a40 f   RoyalRumble.obj
 0001:00043e30       ?GiveItemToWinner@CRoyalRumble@@QAEXPAVUSER@@@Z 00444e30 f   RoyalRumble.obj
 0001:00044070       ?UpdateRoyalRumbleWinner@CRoyalRumble@@QAEXXZ 00445070 f   RoyalRumble.obj
 0001:00044200       ?ForceInit@CRoyalRumble@@QAEXXZ 00445200 f   RoyalRumble.obj
 0001:00044470       ?InitRRUser@CRoyalRumble@@QAEXXZ 00445470 f   RoyalRumble.obj
 0001:00044500       ?Apply@CRoyalRumble@@QAEXXZ 00445500 f   RoyalRumble.obj
 0001:000445d0       ?BridgeServerARKWinnerChangeReq@CRoyalRumble@@QAEXXZ 004455d0 f   RoyalRumble.obj
 0001:000446b0       ??_ECRoyalRumble@@UAEPAXI@Z 004456b0 f i RoyalRumble.obj
 0001:000446b0       ??_GCRoyalRumble@@UAEPAXI@Z 004456b0 f i RoyalRumble.obj
 0001:000446e0       ??0?$CTypedPtrArray@VCPtrArray@@PAVCRoyalRumbleUser@@@@QAE@XZ 004456e0 f i RoyalRumble.obj
 0001:00044700       ?GetTickCount@CTime@ATL@@SG?AV12@XZ 00445700 f i RoyalRumble.obj
 0001:00044720       ??HCTime@ATL@@QBE?AV01@VCTimeSpan@1@@Z 00445720 f i RoyalRumble.obj
 0001:00044750       ??MCTime@ATL@@QBE_NV01@@Z  00445750 f i RoyalRumble.obj
 0001:00044790       ??PCTime@ATL@@QBE_NV01@@Z  00445790 f i RoyalRumble.obj
 0001:000447d0       ?GetHour@CTime@ATL@@QBEHXZ 004457d0 f i RoyalRumble.obj
 0001:00044810       ?GetMinute@CTime@ATL@@QBEHXZ 00445810 f i RoyalRumble.obj
 0001:00044850       ?SetString@@YAXPAD0HAAH@Z  00445850 f i RoyalRumble.obj
 0001:00044880       ??0CRoyalRumbleUser@@QAE@XZ 00445880 f   RoyalRumbleUser.obj
 0001:000448c0       ??1CRoyalRumbleUser@@UAE@XZ 004458c0 f   RoyalRumbleUser.obj
 0001:000448e0       ??_ECRoyalRumbleUser@@UAEPAXI@Z 004458e0 f i RoyalRumbleUser.obj
 0001:000448e0       ??_GCRoyalRumbleUser@@UAEPAXI@Z 004458e0 f i RoyalRumbleUser.obj
 0001:00044910       ??0CSearch@@QAE@XZ         00445910 f   Search.obj
 0001:00044930       ??0CSearch@@QAE@H@Z        00445930 f   Search.obj
 0001:00044960       ??1CSearch@@UAE@XZ         00445960 f   Search.obj
 0001:00044980       ?GetUserUid@CSearch@@QAEPAVUSER@@H@Z 00445980 f   Search.obj
 0001:000449b0       ?SetUserUid@CSearch@@QAEXHPAVUSER@@@Z 004459b0 f   Search.obj
 0001:000449e0       ?FreeUser@CSearch@@QAEXH@Z 004459e0 f   Search.obj
 0001:00044a10       ??_GCSearch@@UAEPAXI@Z     00445a10 f i Search.obj
 0001:00044a10       ??_ECSearch@@UAEPAXI@Z     00445a10 f i Search.obj
 0001:00044a40       ??0?$CSearchBase@VUSER@@@@QAE@XZ 00445a40 f i Search.obj
 0001:00044a70       ??_E?$CSearchBase@VUSER@@@@UAEPAXI@Z 00445a70 f i Search.obj
 0001:00044a70       ??_G?$CSearchBase@VUSER@@@@UAEPAXI@Z 00445a70 f i Search.obj
 0001:00044aa0       ??0?$CSearchBase@VUSER@@@@QAE@H@Z 00445aa0 f i Search.obj
 0001:00044ad0       ??1?$CSearchBase@VUSER@@@@UAE@XZ 00445ad0 f i Search.obj
 0001:00044b40       ?GetObjectA@?$CSearchBase@VUSER@@@@QAEPAVUSER@@H@Z 00445b40 f i Search.obj
 0001:00044b70       ?SetObjectToFree@?$CSearchBase@VUSER@@@@QAEXH@Z 00445b70 f i Search.obj
 0001:00044b90       ?SetObject@?$CSearchBase@VUSER@@@@QAEXHPAVUSER@@@Z 00445b90 f i Search.obj
 0001:00044bb0       ?MakeArray@?$CSearchBase@VUSER@@@@QAEHH@Z 00445bb0 f i Search.obj
 0001:00044c30       ?GetMessageMap@CServerApp@@MBEPBUAFX_MSGMAP@@XZ 00445c30 f   Server.obj
 0001:00044c40       ?GetThisMessageMap@CServerApp@@KGPBUAFX_MSGMAP@@XZ 00445c40 f   Server.obj
 0001:00044c50       ??0CServerApp@@QAE@XZ      00445c50 f   Server.obj
 0001:00044c80       ??1CServerApp@@UAE@XZ      00445c80 f   Server.obj
 0001:00044cb0       ?InitInstance@CServerApp@@UAEHXZ 00445cb0 f   Server.obj
 0001:00044df0       ?LoadWinsock@CServerApp@@IAEHXZ 00445df0 f   Server.obj
 0001:00044fa0       ??_GCServerApp@@UAEPAXI@Z  00445fa0 f i Server.obj
 0001:00044fa0       ??_ECServerApp@@UAEPAXI@Z  00445fa0 f i Server.obj
 0001:00044fd0       ??1CServerDlg@@UAE@XZ      00445fd0 f i Server.obj
 0001:000450d0       ?AfxGetInstanceHandle@@YGPAUHINSTANCE__@@XZ 004460d0 f i Server.obj
 0001:000450e0       ?AfxSetResourceHandle@@YGXPAUHINSTANCE__@@@Z 004460e0 f i Server.obj
 0001:00045100       ??0CAboutDlg@@QAE@XZ       00446100 f   ServerDlg.obj
 0001:00045130       ?DoDataExchange@CAboutDlg@@MAEXPAVCDataExchange@@@Z 00446130 f   ServerDlg.obj
 0001:00045150       ?GetMessageMap@CAboutDlg@@MBEPBUAFX_MSGMAP@@XZ 00446150 f   ServerDlg.obj
 0001:00045160       ?GetThisMessageMap@CAboutDlg@@KGPBUAFX_MSGMAP@@XZ 00446160 f   ServerDlg.obj
 0001:00045170       ??0CServerDlg@@QAE@PAVCWnd@@@Z 00446170 f   ServerDlg.obj
 0001:00045370       ?DoDataExchange@CServerDlg@@MAEXPAVCDataExchange@@@Z 00446370 f   ServerDlg.obj
 0001:00045400       ?GetMessageMap@CServerDlg@@MBEPBUAFX_MSGMAP@@XZ 00446400 f   ServerDlg.obj
 0001:00045410       ?GetThisMessageMap@CServerDlg@@KGPBUAFX_MSGMAP@@XZ 00446410 f   ServerDlg.obj
 0001:00045420       ?OnSysCommand@CServerDlg@@IAEXIJ@Z 00446420 f   ServerDlg.obj
 0001:000454b0       ?OnPaint@CServerDlg@@IAEXXZ 004464b0 f   ServerDlg.obj
 0001:000455f0       ?OnQueryDragIcon@CServerDlg@@IAEPAUHICON__@@XZ 004465f0 f   ServerDlg.obj
 0001:00045610       ?DefaultInit@CServerDlg@@IAEXXZ 00446610 f   ServerDlg.obj
 0001:000456e0       ?OnInitDialog@CServerDlg@@MAEHXZ 004466e0 f   ServerDlg.obj
 0001:000476c0       ?GetLoadMarkJzINI@CServerDlg@@QAEHXZ 004486c0 f   ServerDlg.obj
 0001:000493f0       ?GetLoadMarkGMINI@CServerDlg@@QAEHXZ 0044a3f0 f   ServerDlg.obj
 0001:00049a10       ?GetServerInfoData@CServerDlg@@IAEHXZ 0044aa10 f   ServerDlg.obj
 0001:00049ef0       ?GetZoneInfoData@CServerDlg@@QAEHXZ 0044aef0 f   ServerDlg.obj
 0001:0004a1c0       ?DestroyWindow@CServerDlg@@UAEHXZ 0044b1c0 f   ServerDlg.obj
 0001:0004c6d0       ?SetIndexText@CServerDlg@@IAEXH@Z 0044d6d0 f   ServerDlg.obj
 0001:0004c760       ?SetPortText@CServerDlg@@IAEXH@Z 0044d760 f   ServerDlg.obj
 0001:0004c7f0       ?SetZoneText@CServerDlg@@IAEXV?$CStringT@DV?$StrTraitMFC@DV?$ChTraitsCRT@D@ATL@@@@@ATL@@@Z 0044d7f0 f   ServerDlg.obj
 0001:0004c880       ?GetNpcItemNewTable@CServerDlg@@IAEHXZ 0044d880 f   ServerDlg.obj
 0001:0004cbc0       ?get_convert_table@CServerDlg@@IAEHXZ 0044dbc0 f   ServerDlg.obj
 0001:0004cd90       ?GetOneNpcItemNewTable@CServerDlg@@IAEHPAUdrop_info@@@Z 0044dd90 f   ServerDlg.obj
 0001:0004cf10       ?GetNpcChatTable@CServerDlg@@IAEHXZ 0044df10 f   ServerDlg.obj
 0001:0004d310       ?GetNpcTableData@CServerDlg@@IAEHXZ 0044e310 f   ServerDlg.obj
 0001:0004d8d0       ?GetCityNpcTableData@CServerDlg@@QAEHXZ 0044e8d0 f   ServerDlg.obj
 0001:0004ddb0       ?CreateNpcThread@CServerDlg@@IAEHXZ 0044edb0 f   ServerDlg.obj
 0001:0004f4a0       ?GetDBItemData@CServerDlg@@QAEHXZ 004504a0 f   ServerDlg.obj
 0001:0004f8c0       ?GetItemTable@CServerDlg@@IAEHXZ 004508c0 f   ServerDlg.obj
 0001:0004fd30       ?GetSkillTable@CServerDlg@@IAEHXZ 00450d30 f   ServerDlg.obj
 0001:000500e0       ?AddSkillTable@CServerDlg@@QAEXXZ 004510e0 f   ServerDlg.obj
 0001:00050200       ?GetPsiTable@CServerDlg@@IAEHXZ 00451200 f   ServerDlg.obj
 0001:00050590       ?GetLevelUpTable@CServerDlg@@IAEHXZ 00451590 f   ServerDlg.obj
 0001:00050880       ?GetPAMAExpTable@CServerDlg@@IAEHXZ 00451880 f   ServerDlg.obj
 0001:00050b50       ?GetStoreTable@CServerDlg@@IAEHXZ 00451b50 f   ServerDlg.obj
 0001:000518c0       ?ResumeAI@CServerDlg@@IAEXXZ 004528c0 f   ServerDlg.obj
 0001:00051a50       ?PreTranslateMessage@CServerDlg@@UAEHPAUtagMSG@@@Z 00452a50 f   ServerDlg.obj
 0001:00051ad0       ?OnAnnounce@CServerDlg@@QAEXXZ 00452ad0 f   ServerDlg.obj
 0001:00051c20       ?SetWeatherZone@CServerDlg@@QAEXH@Z 00452c20 f   ServerDlg.obj
 0001:00051c70       ?GetPsiStoreTable@CServerDlg@@QAEHXZ 00452c70 f   ServerDlg.obj
 0001:000521e0       ?GetIntiItemTable@CServerDlg@@QAEHXZ 004531e0 f   ServerDlg.obj
 0001:00052470       ?GetMagicItemTable@CServerDlg@@QAEHXZ 00453470 f   ServerDlg.obj
 0001:00052c70       ?GetUserRecoverTable@CServerDlg@@QAEHXZ 00453c70 f   ServerDlg.obj
 0001:00052f70       ?GetUserRecoverRateTable@CServerDlg@@QAEHXZ 00453f70 f   ServerDlg.obj
 0001:00053290       ?GetMonHaveDNTable@CServerDlg@@QAEHXZ 00454290 f   ServerDlg.obj
 0001:00053570       ?GetValItemTable@CServerDlg@@QAEHXZ 00454570 f   ServerDlg.obj
 0001:000539a0       ?GetGuildTable@CServerDlg@@QAEHXZ 004549a0 f   ServerDlg.obj
 0001:000541e0       ?GetGuildUserData@CServerDlg@@QAEHXZ 004551e0 f   ServerDlg.obj
 0001:00054490       ?GetEBodyIdentifyTable@CServerDlg@@QAEHXZ 00455490 f   ServerDlg.obj
 0001:00054760       ?GetEBodyUpgradeTable@CServerDlg@@QAEHXZ 00455760 f   ServerDlg.obj
 0001:00054a40       ?GetEBodyTable@CServerDlg@@QAEHXZ 00455a40 f   ServerDlg.obj
 0001:00054d70       ?GetEBodyStoreTable@CServerDlg@@QAEHXZ 00455d70 f   ServerDlg.obj
 0001:000552a0       ?GetOnlineShopTable@CServerDlg@@QAEHXZ 004562a0 f   ServerDlg.obj
 0001:00055d30       ?GetMarkChouJiangTable@CServerDlg@@QAEHXZ 00456d30 f   ServerDlg.obj
 0001:000564d0       ?GetVIPPayTable@CServerDlg@@QAEHXZ 004574d0 f   ServerDlg.obj
 0001:000568e0       ?GetMarkPayTable@CServerDlg@@QAEHXZ 004578e0 f   ServerDlg.obj
 0001:00056cf0       ?GetMarkGonggaoTable@CServerDlg@@QAEHXZ 00457cf0 f   ServerDlg.obj
 0001:00056ff0       ?OpenMemoryDB@CServerDlg@@IAEHXZ 00457ff0 f   ServerDlg.obj
 0001:00057840       ?OpenRollBack@CServerDlg@@IAEHXZ 00458840 f   ServerDlg.obj
 0001:00057990       ?CheckRollBack@CServerDlg@@IAEXXZ 00458990 f   ServerDlg.obj
 0001:00057bd0       ?OpenMailQueue@CServerDlg@@IAEHXZ 00458bd0 f   ServerDlg.obj
 0001:00057c10       ?CloseMailQueue@CServerDlg@@IAEHXZ 00458c10 f   ServerDlg.obj
 0001:00057c30       ?UpdateMem2DB@CServerDlg@@IAEXPAVCMemUser@@@Z 00458c30 f   ServerDlg.obj
 0001:000583a0       ?OnRefresh@CServerDlg@@IAEXXZ 004593a0 f   ServerDlg.obj
 0001:000585f0       ?OnTimer@CServerDlg@@IAEXI@Z 004595f0 f   ServerDlg.obj
 0001:00058800       ?GetGuildStoreTable@CServerDlg@@QAEHXZ 00459800 f   ServerDlg.obj
 0001:00058e80       ?GetGuildMapInfoTable@CServerDlg@@QAEHXZ 00459e80 f   ServerDlg.obj
 0001:000591a0       ?UpdateStoreMem2DB@CServerDlg@@QAEXPAVCMemStore@@@Z 0045a1a0 f   ServerDlg.obj
 0001:000593d0       ?LoadGuildStoreAttackList@CServerDlg@@QAEHPAVCStore@@PAVCMemStore@@@Z 0045a3d0 f   ServerDlg.obj
 0001:000595f0       ?UpdateBankMem2DB@CServerDlg@@QAEHPAVCMemUser@@@Z 0045a5f0 f   ServerDlg.obj
 0001:00059830       ?UpdateAccountBankMem2DB@CServerDlg@@QAEHPAVCMemUser@@@Z 0045a830 f   ServerDlg.obj
 0001:00059a70       ?GetGuildHouseRankTable@CServerDlg@@QAEHXZ 0045aa70 f   ServerDlg.obj
 0001:00059fb0       ?GetVirtualRoomTable@CServerDlg@@QAEHXZ 0045afb0 f   ServerDlg.obj
 0001:0005a210       ?UpdateGuildHouseMem2DB@CServerDlg@@QAEXPAVCMemGuildHouseRank@@@Z 0045b210 f   ServerDlg.obj
 0001:0005a3b0       ?GetGuildHouseTable@CServerDlg@@QAEHXZ 0045b3b0 f   ServerDlg.obj
 0001:0005a6c0       ?CheckGuildHouseData@CServerDlg@@QAEHXZ 0045b6c0 f   ServerDlg.obj
 0001:0005a6d0       ?GetUserLevelUpTable@CServerDlg@@QAEHXZ 0045b6d0 f   ServerDlg.obj
 0001:0005a9e0       ?GetEventItemTable@CServerDlg@@QAEHXZ 0045b9e0 f   ServerDlg.obj
 0001:0005ad60       ?GetAddEventItemTable@CServerDlg@@QAEHXZ 0045bd60 f   ServerDlg.obj
 0001:0005b100       ?GetNpcSayEventTable@CServerDlg@@QAEHXZ 0045c100 f   ServerDlg.obj
 0001:0005b3e0       ?GetGuildFortressTable@CServerDlg@@QAEHXZ 0045c3e0 f   ServerDlg.obj
 0001:0005ba10       ?LoadGuildFortressList@CServerDlg@@QAEHPAVCGuildFortress@@@Z 0045ca10 f   ServerDlg.obj
 0001:0005bcd0       ?UpdateFortressMem2DB@CServerDlg@@QAEXPAVCMemFortress@@@Z 0045ccd0 f   ServerDlg.obj
 0001:0005bf90       ?GetGuildFortressTaxTable@CServerDlg@@QAEHXZ 0045cf90 f   ServerDlg.obj
 0001:0005c3e0       ?SetStoreTaxForGuildFortress@CServerDlg@@QAEXXZ 0045d3e0 f   ServerDlg.obj
 0001:0005c430       ?LoadDynamicMap@CServerDlg@@QAEXXZ 0045d430 f   ServerDlg.obj
 0001:0005c440       ?GetTownPotalTable@CServerDlg@@QAEHXZ 0045d440 f   ServerDlg.obj
 0001:0005c710       ?GetMonsterPsiTable@CServerDlg@@QAEHXZ 0045d710 f   ServerDlg.obj
 0001:0005c9d0       ?LoadGuildFortressUserData@CServerDlg@@QAEHPAVCGuildFortress@@@Z 0045d9d0 f   ServerDlg.obj
 0001:0005cc50       ?CloseGuildWhareHouse@CServerDlg@@QAEXXZ 0045dc50 f   ServerDlg.obj
 0001:0005ce10       ?OnCancel@CServerDlg@@MAEXXZ 0045de10 f   ServerDlg.obj
 0001:0005cee0       ?GetDressingTable@CServerDlg@@QAEHXZ 0045dee0 f   ServerDlg.obj
 0001:0005d270       ?GetLocalIPAddress@CServerDlg@@QAEHXZ 0045e270 f   ServerDlg.obj
 0001:0005d450       ?RemoveSessionCurrentUser@CServerDlg@@QAEHXZ 0045e450 f   ServerDlg.obj
 0001:0005d5e0       ?GetEventItemNewTable@CServerDlg@@QAEHXZ 0045e5e0 f   ServerDlg.obj
 0001:0005dc20       ?SetEventItemNew@CServerDlg@@QAEXXZ 0045ec20 f   ServerDlg.obj
 0001:0005df80       ?UpdateEventItemNew@CServerDlg@@QAEHPAVCEventItemNew@@@Z 0045ef80 f   ServerDlg.obj
 0001:0005e1b0       ?InitBridgeServerConnection@CServerDlg@@QAEHXZ 0045f1b0 f   ServerDlg.obj
 0001:0005e3a0       ?BridgeServerPhasor@CServerDlg@@QAEXPAVCSSocket@@PADH@Z 0045f3a0 f   ServerDlg.obj
 0001:0005e6b0       ?BridgeServerLoginResult@CServerDlg@@QAEXPAD@Z 0045f6b0 f   ServerDlg.obj
 0001:0005e720       ?BridgeServerWhisperChatReq@CServerDlg@@QAEXHPAD00@Z 0045f720 f   ServerDlg.obj
 0001:0005e870       ?BridgeServerUserLogIn@CServerDlg@@QAEXHPAD0@Z 0045f870 f   ServerDlg.obj
 0001:0005e990       ?BridgeServerUserLoginResult@CServerDlg@@QAEXPAD@Z 0045f990 f   ServerDlg.obj
 0001:0005ed40       ?BridgeServerUserLogOut@CServerDlg@@QAEXHPAD@Z 0045fd40 f   ServerDlg.obj
 0001:0005ee20       ?BridgeServerUserRestart@CServerDlg@@QAEXHPAD@Z 0045fe20 f   ServerDlg.obj
 0001:0005ef00       ?BridgeServerUserZoneLogIn@CServerDlg@@QAEXHPAD0@Z 0045ff00 f   ServerDlg.obj
 0001:0005f020       ?BridgeServerUserZoneLoginResult@CServerDlg@@QAEXPAD@Z 00460020 f   ServerDlg.obj
 0001:0005f310       ?BridgeServerDoubleAccountClose@CServerDlg@@QAEXPAD@Z 00460310 f   ServerDlg.obj
 0001:0005f540       ?BridgeServerDoubleIDClose@CServerDlg@@QAEXPAD@Z 00460540 f   ServerDlg.obj
 0001:0005f680       ?BridgeServerUserWhisperOnOff@CServerDlg@@QAEXHE@Z 00460680 f   ServerDlg.obj
 0001:0005f720       ?BridgeServerUserWhisperReq@CServerDlg@@QAEXPAD@Z 00460720 f   ServerDlg.obj
 0001:0005f990       ?BridgeServerUserWhisperResult@CServerDlg@@QAEXPAD@Z 00460990 f   ServerDlg.obj
 0001:0005fc40       ?BridgeServerUserGuildChatReq@CServerDlg@@QAEXHHPAD0@Z 00460c40 f   ServerDlg.obj
 0001:0005fd60       ?BridgeServerUserGuildChatResult@CServerDlg@@QAEXPAD@Z 00460d60 f   ServerDlg.obj
 0001:0005ff70       ?BridgeServerGuildNewReq@CServerDlg@@QAEXHPADH0@Z 00460f70 f   ServerDlg.obj
 0001:00060090       ?BridgeServerGuildNewResult@CServerDlg@@QAEXPAD@Z 00461090 f   ServerDlg.obj
 0001:000603d0       ?BridgeServerGuildDisperseReq@CServerDlg@@QAEXHPADH@Z 004613d0 f   ServerDlg.obj
 0001:000604b0       ?BridgeServerGuildDisperseResult@CServerDlg@@QAEXPAD@Z 004614b0 f   ServerDlg.obj
 0001:000609b0       ?BridgeDeputeGuildMasterOfPowerReq@CServerDlg@@QAEXHHPAD0H@Z 004619b0 f   ServerDlg.obj
 0001:00060af0       ?BridgeDeputeGuildMasterOfPowerResult@CServerDlg@@QAEXPAD@Z 00461af0 f   ServerDlg.obj
 0001:00060e90       ?BridgeRemoveGuildMasterOfPowerReq@CServerDlg@@QAEXHPADH@Z 00461e90 f   ServerDlg.obj
 0001:00060f70       ?BridgeRemoveGuildMasterOfPowerResult@CServerDlg@@QAEXPAD@Z 00461f70 f   ServerDlg.obj
 0001:000612b0       ?BridgeServerGuildInviteReq@CServerDlg@@QAEXHHPAD0H@Z 004622b0 f   ServerDlg.obj
 0001:000613f0       ?BridgeServerGuildInviteResult@CServerDlg@@QAEXPAD@Z 004623f0 f   ServerDlg.obj
 0001:00061680       ?BridgeServerGuildOffReq@CServerDlg@@QAEXHPAD0H@Z 00462680 f   ServerDlg.obj
 0001:000617a0       ?BridgeServerGuildOffResult@CServerDlg@@QAEXPAD@Z 004627a0 f   ServerDlg.obj
 0001:00061d70       ?BridgeServerGuildMarkReq@CServerDlg@@QAEXHPADH0@Z 00462d70 f   ServerDlg.obj
 0001:00061e70       ?BridgeServerGuildMarkResult@CServerDlg@@QAEXPAD@Z 00462e70 f   ServerDlg.obj
 0001:00062360       ?BridgeServerUserRestartResult@CServerDlg@@QAEXPAD@Z 00463360 f   ServerDlg.obj
 0001:00062420       ?BridgeServerUserZoneLogOut@CServerDlg@@QAEXHPADHHH@Z 00463420 f   ServerDlg.obj
 0001:00062540       ?BridgeServerUserZoneLogOutResult@CServerDlg@@QAEXPAD@Z 00463540 f   ServerDlg.obj
 0001:00062640       ?Announce@CServerDlg@@QAEXPADE@Z 00463640 f   ServerDlg.obj
 0001:00062670       ?AnnounceAllServer@CServerDlg@@QAEXPADE@Z 00463670 f   ServerDlg.obj
 0001:00062740       ?AnnounceZone@CServerDlg@@QAEXPADEH@Z 00463740 f   ServerDlg.obj
 0001:00062770       ?GetRoyalRumbleData@CServerDlg@@QAEHXZ 00463770 f   ServerDlg.obj
 0001:00062ab0       ?BridgeServerAnnounce@CServerDlg@@QAEXPAD@Z 00463ab0 f   ServerDlg.obj
 0001:00062b50       ?BridgeServerArkWinnerChangeResult@CServerDlg@@QAEXPAD@Z 00463b50 f   ServerDlg.obj
 0001:00062c20       ?GetEventBlockData@CServerDlg@@QAEHXZ 00463c20 f   ServerDlg.obj
 0001:000630d0       ?GetRemodelingTable@CServerDlg@@IAEHXZ 004640d0 f   ServerDlg.obj
 0001:00063ba0       ?GetBoxEventTable@CServerDlg@@IAEHXZ 00464ba0 f   ServerDlg.obj
 0001:00063eb0       ?CheckSummonException@CServerDlg@@IAEHF@Z 00464eb0 f   ServerDlg.obj
 0001:00063f00       ?OnCloseProcess@CServerDlg@@IAEJIJ@Z 00464f00 f   ServerDlg.obj
 0001:00063f30       ?CheckUserIP@CServerDlg@@QAEHPAD@Z 00464f30 f   ServerDlg.obj
 0001:00064110       ?OnBnClickedButtonDrop@CServerDlg@@QAEXXZ 00465110 f   ServerDlg.obj
 0001:000645b0       ??_ECAboutDlg@@UAEPAXI@Z   004655b0 f i ServerDlg.obj
 0001:000645b0       ??_GCAboutDlg@@UAEPAXI@Z   004655b0 f i ServerDlg.obj
 0001:000645e0       ??1CAboutDlg@@UAE@XZ       004655e0 f i ServerDlg.obj
 0001:00064600       ??_GCServerDlg@@UAEPAXI@Z  00465600 f i ServerDlg.obj
 0001:00064600       ??_ECServerDlg@@UAEPAXI@Z  00465600 f i ServerDlg.obj
 0001:00064630       ?Width@CRect@@QBEHXZ       00465630 f i ServerDlg.obj
 0001:00064650       ?Height@CRect@@QBEHXZ      00465650 f i ServerDlg.obj
 0001:00064670       ??_GCItemTable@@QAEPAXI@Z  00465670 f i ServerDlg.obj
 0001:000646a0       ??_GCSkillTable@@QAEPAXI@Z 004656a0 f i ServerDlg.obj
 0001:000646d0       ??_GCPsiTable@@QAEPAXI@Z   004656d0 f i ServerDlg.obj
 0001:00064700       ??_GCLevelUpTable@@QAEPAXI@Z 00465700 f i ServerDlg.obj
 0001:00064730       ??_GCStore@@QAEPAXI@Z      00465730 f i ServerDlg.obj
 0001:00064760       ??_GCPAMAExp@@QAEPAXI@Z    00465760 f i ServerDlg.obj
 0001:00064790       ??_GCELL@@QAEPAXI@Z        00465790 f i ServerDlg.obj
 0001:000647c0       ??_GCSocketManager@@QAEPAXI@Z 004657c0 f i ServerDlg.obj
 0001:000647f0       ??_GCUserManager@@QAEPAXI@Z 004657f0 f i ServerDlg.obj
 0001:00064820       ?Add@CByteArray@@QAEHE@Z   00465820 f i ServerDlg.obj
 0001:00064850       ??0?$CTypedPtrArray@VCPtrArray@@PAU_StoreDB@@@@QAE@XZ 00465850 f i ServerDlg.obj
 0001:00064870       ??4?$CStringT@DV?$StrTraitMFC@DV?$ChTraitsCRT@D@ATL@@@@@ATL@@QAEAAV01@PBE@Z 00465870 f i ServerDlg.obj
 0001:00064890       ??Y?$CStringT@DV?$StrTraitMFC@DV?$ChTraitsCRT@D@ATL@@@@@ATL@@QAEAAV01@ABV?$CSimpleStringT@D$0A@@1@@Z 00465890 f i ServerDlg.obj
 0001:000648b0       ?IsEmpty@?$CSimpleStringT@D$0A@@ATL@@QBE_NXZ 004658b0 f i ServerDlg.obj
 0001:000648d0       ?GetAt@?$CTypedPtrArray@VCPtrArray@@PAVCRemodelingTable@@@@QBEPAVCRemodelingTable@@H@Z 004658d0 f i USER2.obj
 0001:000648d0       ?GetAt@?$CTypedPtrArray@VCPtrArray@@PAVCNpcThread@@@@QBEPAVCNpcThread@@H@Z 004658d0 f i ServerDlg.obj
 0001:000648f0       ?GetAt@CPtrArray@@QBEPAXH@Z 004658f0 f i ServerDlg.obj
 0001:00064920       ?Add@?$CTypedPtrArray@VCPtrArray@@PAVMarkGMIni@@@@QAEHPAVMarkGMIni@@@Z 00465920 f i ServerDlg.obj
 0001:00064920       ?Add@?$CTypedPtrArray@VCPtrArray@@PAVVIPPay@@@@QAEHPAVVIPPay@@@Z 00465920 f i ServerDlg.obj
 0001:00064920       ?Add@?$CTypedPtrArray@VCPtrArray@@PAU_DB_CONNECTION@@@@QAEHPAU_DB_CONNECTION@@@Z 00465920 f i MyDB.obj
 0001:00064920       ?Add@?$CTypedPtrArray@VCPtrArray@@PAVCEBodyTable@@@@QAEHPAVCEBodyTable@@@Z 00465920 f i ServerDlg.obj
 0001:00064920       ?Add@?$CTypedPtrArray@VCPtrArray@@PAVEXEC@@@@QAEHPAVEXEC@@@Z 00465920 f i EVENT.obj
 0001:00064920       ?Add@?$CTypedPtrArray@VCPtrArray@@PAVCItemTable@@@@QAEHPAVCItemTable@@@Z 00465920 f i ServerDlg.obj
 0001:00064920       ?Add@?$CTypedPtrArray@VCPtrArray@@PAU_EVENT@@@@QAEHPAU_EVENT@@@Z 00465920 f i ServerDlg.obj
 0001:00064920       ?Add@?$CTypedPtrArray@VCPtrArray@@PAU_INITITEMTABLE@@@@QAEHPAU_INITITEMTABLE@@@Z 00465920 f i ServerDlg.obj
 0001:00064920       ?Add@?$CTypedPtrArray@VCPtrArray@@PAVMarkIni@@@@QAEHPAVMarkIni@@@Z 00465920 f i ServerDlg.obj
 0001:00064920       ?Add@?$CTypedPtrArray@VCPtrArray@@PAVMarkGonggao@@@@QAEHPAVMarkGonggao@@@Z 00465920 f i ServerDlg.obj
 0001:00064920       ?Add@?$CTypedPtrArray@VCPtrArray@@PAI@@QAEHPAI@Z 00465920 f i IOCPBASE.obj
 0001:00064920       ?Add@?$CTypedPtrArray@VCPtrArray@@PAVCRoyalRumbleUser@@@@QAEHPAVCRoyalRumbleUser@@@Z 00465920 f i RoyalRumble.obj
 0001:00064920       ?Add@?$CTypedPtrArray@VCPtrArray@@PAVCEventItemNew@@@@QAEHPAVCEventItemNew@@@Z 00465920 f i ServerDlg.obj
 0001:00064920       ?Add@?$CTypedPtrArray@VCPtrArray@@PAVCNpcSayTable@@@@QAEHPAVCNpcSayTable@@@Z 00465920 f i ServerDlg.obj
 0001:00064920       ?Add@?$CTypedPtrArray@VCPtrArray@@PAVCGuildHouse@@@@QAEHPAVCGuildHouse@@@Z 00465920 f i ServerDlg.obj
 0001:00064920       ?Add@?$CTypedPtrArray@VCPtrArray@@PAVCEventItemTable@@@@QAEHPAVCEventItemTable@@@Z 00465920 f i ServerDlg.obj
 0001:00064920       ?Add@?$CTypedPtrArray@VCPtrArray@@PAVCMonsterPsi@@@@QAEHPAVCMonsterPsi@@@Z 00465920 f i ServerDlg.obj
 0001:00064920       ?Add@?$CTypedPtrArray@VCPtrArray@@PAVCEBodyIdentifyTable@@@@QAEHPAVCEBodyIdentifyTable@@@Z 00465920 f i ServerDlg.obj
 0001:00064920       ?Add@?$CTypedPtrArray@VCPtrArray@@PAVCDNTable@@@@QAEHPAVCDNTable@@@Z 00465920 f i ServerDlg.obj
 0001:00064920       ?Add@?$CTypedPtrArray@VCPtrArray@@PAVCLevelUpTable@@@@QAEHPAVCLevelUpTable@@@Z 00465920 f i ServerDlg.obj
 0001:00064920       ?Add@?$CTypedPtrArray@VCPtrArray@@PAVCRecoverRate@@@@QAEHPAVCRecoverRate@@@Z 00465920 f i ServerDlg.obj
 0001:00064920       ?Add@?$CTypedPtrArray@VCPtrArray@@PAVItemList@@@@QAEHPAVItemList@@@Z 00465920 f i CELL.obj
 0001:00064920       ?Add@?$CTypedPtrArray@VCPtrArray@@PAVCGuildFortress@@@@QAEHPAVCGuildFortress@@@Z 00465920 f i ServerDlg.obj
 0001:00064920       ?Add@?$CTypedPtrArray@VCPtrArray@@PAVCEBodyUpgradeTable@@@@QAEHPAVCEBodyUpgradeTable@@@Z 00465920 f i ServerDlg.obj
 0001:00064920       ?Add@?$CTypedPtrArray@VCPtrArray@@PAVMAP@@@@QAEHPAVMAP@@@Z 00465920 f i ServerDlg.obj
 0001:00064920       ?Add@?$CTypedPtrArray@VCPtrArray@@PAU_ThreadPacket@@@@QAEHPAU_ThreadPacket@@@Z 00465920 f i IOCPBASE.obj
 0001:00064920       ?Add@?$CTypedPtrArray@VCPtrArray@@PAU_ITEMLOG@@@@QAEHPAU_ITEMLOG@@@Z 00465920 f i USER2.obj
 0001:00064920       ?Add@?$CTypedPtrArray@VCPtrArray@@PAU_TOWNPOTAL@@@@QAEHPAU_TOWNPOTAL@@@Z 00465920 f i ServerDlg.obj
 0001:00064920       ?Add@?$CTypedPtrArray@VCPtrArray@@PAU_DRESSING_DATA@@@@QAEHPAU_DRESSING_DATA@@@Z 00465920 f i ServerDlg.obj
 0001:00064920       ?Add@?$CTypedPtrArray@VCPtrArray@@PAVCELL@@@@QAEHPAVCELL@@@Z 00465920 f i ServerDlg.obj
 0001:00064920       ?Add@?$CTypedPtrArray@VCPtrArray@@PAVCVirtualRoom@@@@QAEHPAVCVirtualRoom@@@Z 00465920 f i ServerDlg.obj
 0001:00064920       ?Add@?$CTypedPtrArray@VCPtrArray@@PAVCNpc@@@@QAEHPAVCNpc@@@Z 00465920 f i ServerDlg.obj
 0001:00064920       ?Add@?$CTypedPtrArray@VCPtrArray@@PAVLOGIC_ELSE@@@@QAEHPAVLOGIC_ELSE@@@Z 00465920 f i EVENT.obj
 0001:00064920       ?Add@?$CTypedPtrArray@VCPtrArray@@PAUExchangeItem@@@@QAEHPAUExchangeItem@@@Z 00465920 f i USER.obj
 0001:00064920       ?Add@?$CTypedPtrArray@VCPtrArray@@PAVCGuildHouseWar@@@@QAEHPAVCGuildHouseWar@@@Z 00465920 f i ServerDlg.obj
 0001:00064920       ?Add@?$CTypedPtrArray@VCPtrArray@@PAH@@QAEHPAH@Z 00465920 f i ServerDlg.obj
 0001:00064920       ?Add@?$CTypedPtrArray@VCPtrArray@@PAVCNpcChat@@@@QAEHPAVCNpcChat@@@Z 00465920 f i ServerDlg.obj
 0001:00064920       ?Add@?$CTypedPtrArray@VCPtrArray@@PAVCNpcThread@@@@QAEHPAVCNpcThread@@@Z 00465920 f i ServerDlg.obj
 0001:00064920       ?Add@?$CTypedPtrArray@VCPtrArray@@PAVCAccessoriUpTable@@@@QAEHPAVCAccessoriUpTable@@@Z 00465920 f i ServerDlg.obj
 0001:00064920       ?Add@?$CTypedPtrArray@VCPtrArray@@PAVCSharedMemory@@@@QAEHPAVCSharedMemory@@@Z 00465920 f i ServerDlg.obj
 0001:00064920       ?Add@?$CTypedPtrArray@VCPtrArray@@PAVLOGIC@@@@QAEHPAVLOGIC@@@Z 00465920 f i EVENT.obj
 0001:00064920       ?Add@?$CTypedPtrArray@VCPtrArray@@PAVCPAMAExp@@@@QAEHPAVCPAMAExp@@@Z 00465920 f i ServerDlg.obj
 0001:00064920       ?Add@?$CTypedPtrArray@VCPtrArray@@PAVCNpcTable@@@@QAEHPAVCNpcTable@@@Z 00465920 f i ServerDlg.obj
 0001:00064920       ?Add@?$CTypedPtrArray@VCPtrArray@@PAU_StoreDB@@@@QAEHPAU_StoreDB@@@Z 00465920 f i ServerDlg.obj
 0001:00064920       ?Add@?$CTypedPtrArray@VCPtrArray@@PAVCPsiTable@@@@QAEHPAVCPsiTable@@@Z 00465920 f i ServerDlg.obj
 0001:00064920       ?Add@?$CTypedPtrArray@VCPtrArray@@PAVCGuildMapInfoTable@@@@QAEHPAVCGuildMapInfoTable@@@Z 00465920 f i ServerDlg.obj
 0001:00064920       ?Add@?$CTypedPtrArray@VCPtrArray@@PAVCRecover@@@@QAEHPAVCRecover@@@Z 00465920 f i ServerDlg.obj
 0001:00064920       ?Add@?$CTypedPtrArray@VCPtrArray@@PAVEVENT@@@@QAEHPAVEVENT@@@Z 00465920 f i ServerDlg.obj
 0001:00064920       ?Add@?$CTypedPtrArray@VCPtrArray@@PAVCBoxEventTable@@@@QAEHPAVCBoxEventTable@@@Z 00465920 f i ServerDlg.obj
 0001:00064920       ?Add@?$CTypedPtrArray@VCPtrArray@@PAVMarkPay@@@@QAEHPAVMarkPay@@@Z 00465920 f i ServerDlg.obj
 0001:00064920       ?Add@?$CTypedPtrArray@VCPtrArray@@PAVTableItem@@@@QAEHPAVTableItem@@@Z 00465920 f i ServerDlg.obj
 0001:00064920       ?Add@?$CTypedPtrArray@VCPtrArray@@PAVCSkillTable@@@@QAEHPAVCSkillTable@@@Z 00465920 f i ServerDlg.obj
 0001:00064920       ?Add@?$CTypedPtrArray@VCPtrArray@@PAVSERVERINFO@@@@QAEHPAVSERVERINFO@@@Z 00465920 f i ServerDlg.obj
 0001:00064920       ?Add@?$CTypedPtrArray@VCPtrArray@@PAPAX@@QAEHPAPAX@Z 00465920 f i IOCPBASE.obj
 0001:00064920       ?Add@?$CTypedPtrArray@VCPtrArray@@PAVMarkChouJiang@@@@QAEHPAVMarkChouJiang@@@Z 00465920 f i ServerDlg.obj
 0001:00064920       ?Add@?$CTypedPtrArray@VCPtrArray@@PAVCRemodelingTable@@@@QAEHPAVCRemodelingTable@@@Z 00465920 f i ServerDlg.obj
 0001:00064920       ?Add@?$CTypedPtrArray@VCPtrArray@@PAVCSummonTable@@@@QAEHPAVCSummonTable@@@Z 00465920 f i ServerDlg.obj
 0001:00064920       ?Add@?$CTypedPtrArray@VCPtrArray@@PAU_DRESSING_RESULT@@@@QAEHPAU_DRESSING_RESULT@@@Z 00465920 f i USER2.obj
 0001:00064920       ?Add@?$CTypedPtrArray@VCPtrArray@@PAU_ZONEINFO@@@@QAEHPAU_ZONEINFO@@@Z 00465920 f i ServerDlg.obj
 0001:00064920       ?Add@?$CTypedPtrArray@VCPtrArray@@PAVCStore@@@@QAEHPAVCStore@@@Z 00465920 f i ServerDlg.obj
 0001:00064920       ?Add@?$CTypedPtrArray@VCPtrArray@@PAVCUserLevelUpTable@@@@QAEHPAVCUserLevelUpTable@@@Z 00465920 f i ServerDlg.obj
 0001:00064920       ?Add@?$CTypedPtrArray@VCPtrArray@@PAVCMagicItemTable@@@@QAEHPAVCMagicItemTable@@@Z 00465920 f i ServerDlg.obj
 0001:00064920       ?Add@?$CTypedPtrArray@VCPtrArray@@PAU_WEATHER_INFO@@@@QAEHPAU_WEATHER_INFO@@@Z 00465920 f i ServerDlg.obj
 0001:00064920       ?Add@?$CTypedPtrArray@VCPtrArray@@PAVOnlineShop@@@@QAEHPAVOnlineShop@@@Z 00465920 f i ServerDlg.obj
 0001:00064920       ?Add@?$CTypedPtrArray@VCPtrArray@@PAUShopItem@@@@QAEHPAUShopItem@@@Z 00465920 f i USER2.obj
 0001:00064940       ??Y?$CSimpleStringT@D$0A@@ATL@@QAEAAV01@ABV01@@Z 00465940 f i ServerDlg.obj
 0001:00064960       ?Append@?$CSimpleStringT@D$0A@@ATL@@QAEXABV12@@Z 00465960 f i ServerDlg.obj
 0001:00064990       ??$strcpy_s@$0EA@@@YAHAAY0EA@DPBD@Z 00465990 f i ServerDlg.obj
 0001:000649b0       ?GetSafeHdc@CDC@@QBEPAUHDC__@@XZ 004659b0 f i ServerDlg.obj
 0001:000649e0       ?DrawIcon@CDC@@QAEHHHPAUHICON__@@@Z 004659e0 f i ServerDlg.obj
 0001:00064a10       ?AppendMenuA@CMenu@@QAEHIIPBD@Z 00465a10 f i ServerDlg.obj
 0001:00064a40       ?GetSafeHwnd@CWnd@@QBEPAUHWND__@@XZ 00465a40 f i ServerDlg.obj
 0001:00064a70       ?SendMessageA@CWnd@@QBEJIIJ@Z 00465a70 f i ServerDlg.obj
 0001:00064aa0       ?PostMessageA@CWnd@@QAEHIIJ@Z 00465aa0 f i ServerDlg.obj
 0001:00064ad0       ?GetSystemMenu@CWnd@@QBEPAVCMenu@@H@Z 00465ad0 f i ServerDlg.obj
 0001:00064b00       ?IsIconic@CWnd@@QBEHXZ     00465b00 f i ServerDlg.obj
 0001:00064b20       ?GetClientRect@CWnd@@QBEXPAUtagRECT@@@Z 00465b20 f i ServerDlg.obj
 0001:00064b40       ?SetTimer@CWnd@@QAEIIIP6GXPAUHWND__@@IIK@Z@Z 00465b40 f i ServerDlg.obj
 0001:00064b70       ?KillTimer@CWnd@@QAEHI@Z   00465b70 f i ServerDlg.obj
 0001:00064b90       ?SetIcon@CWnd@@QAEPAUHICON__@@PAU2@H@Z 00465b90 f i ServerDlg.obj
 0001:00064bc0       ?OnSysCommand@CWnd@@IAEXIJ@Z 00465bc0 f i ServerDlg.obj
 0001:00064be0       ?OnTimer@CWnd@@IAEXI@Z     00465be0 f i ServerDlg.obj
 0001:00064c00       ?Serialize@CObject@@UAEXAAVCArchive@@@Z 00465c00 f i AccessoriUpTableSet.obj
 0001:00064c00       ?DoDataExchange@CWnd@@MAEXPAVCDataExchange@@@Z 00465c00 f i ServerDlg.obj
 0001:00064c10       ?BeginModalState@CWnd@@UAEXXZ 00465c10 f i ServerDlg.obj
 0001:00064c30       ?EndModalState@CWnd@@UAEXXZ 00465c30 f i ServerDlg.obj
 0001:00064c50       ?Create@CDialog@@UAEHIPAVCWnd@@@Z 00465c50 f i ServerDlg.obj
 0001:00064c70       ??0CStatic@@QAE@XZ         00465c70 f i ServerDlg.obj
 0001:00064c90       ??_GCStatic@@UAEPAXI@Z     00465c90 f i ServerDlg.obj
 0001:00064c90       ??_ECStatic@@UAEPAXI@Z     00465c90 f i ServerDlg.obj
 0001:00064cc0       ?LoadIconA@CWinApp@@QBEPAUHICON__@@I@Z 00465cc0 f i ServerDlg.obj
 0001:00064ce0       ?AfxGetResourceHandle@@YGPAUHINSTANCE__@@XZ 00465ce0 f i ServerDlg.obj
 0001:00064cf0       ?IsBOF@CRecordset@@QBEHXZ  00465cf0 f i ServerDlg.obj
 0001:00064d10       ?IsEOF@CRecordset@@QBEHXZ  00465d10 f i ServerDlg.obj
 0001:00064d30       ?MoveNext@CRecordset@@QAEXXZ 00465d30 f i ServerDlg.obj
 0001:00064d50       ?MoveFirst@CRecordset@@QAEXXZ 00465d50 f i ServerDlg.obj
 0001:00064d70       ??0?$CTypedPtrArray@VCPtrArray@@PAVCSharedMemory@@@@QAE@XZ 00465d70 f i ServerDlg.obj
 0001:00064d90       ??0?$CTypedPtrArray@VCPtrArray@@PAVTableItem@@@@QAE@XZ 00465d90 f i ServerDlg.obj
 0001:00064db0       ??0?$CTypedPtrArray@VCPtrArray@@PAVMarkIni@@@@QAE@XZ 00465db0 f i ServerDlg.obj
 0001:00064dd0       ??0?$CTypedPtrArray@VCPtrArray@@PAVMarkGMIni@@@@QAE@XZ 00465dd0 f i ServerDlg.obj
 0001:00064df0       ??0?$CTypedPtrArray@VCPtrArray@@PAVSERVERINFO@@@@QAE@XZ 00465df0 f i ServerDlg.obj
 0001:00064e10       ??0?$CTypedPtrArray@VCPtrArray@@PAVMAP@@@@QAE@XZ 00465e10 f i ServerDlg.obj
 0001:00064e30       ??0?$CTypedPtrArray@VCPtrArray@@PAVCELL@@@@QAE@XZ 00465e30 f i ServerDlg.obj
 0001:00064e50       ??0?$CTypedPtrArray@VCPtrArray@@PAVEVENT@@@@QAE@XZ 00465e50 f i ServerDlg.obj
 0001:00064e70       ??0?$CTypedPtrArray@VCPtrArray@@PAVCNpcTable@@@@QAE@XZ 00465e70 f i ServerDlg.obj
 0001:00064e90       ??0?$CTypedPtrArray@VCPtrArray@@PAVCNpcThread@@@@QAE@XZ 00465e90 f i ServerDlg.obj
 0001:00064eb0       ??0?$CTypedPtrArray@VCPtrArray@@PAVCItemTable@@@@QAE@XZ 00465eb0 f i ServerDlg.obj
 0001:00064ed0       ??0?$CTypedPtrArray@VCPtrArray@@PAVCSkillTable@@@@QAE@XZ 00465ed0 f i ServerDlg.obj
 0001:00064ef0       ??0?$CTypedPtrArray@VCPtrArray@@PAVCPsiTable@@@@QAE@XZ 00465ef0 f i ServerDlg.obj
 0001:00064f10       ??0?$CTypedPtrArray@VCPtrArray@@PAVCLevelUpTable@@@@QAE@XZ 00465f10 f i ServerDlg.obj
 0001:00064f30       ??0?$CTypedPtrArray@VCPtrArray@@PAVCPAMAExp@@@@QAE@XZ 00465f30 f i ServerDlg.obj
 0001:00064f50       ??0?$CTypedPtrArray@VCPtrArray@@PAVCStore@@@@QAE@XZ 00465f50 f i ServerDlg.obj
 0001:00064f70       ??0?$CTypedPtrArray@VCPtrArray@@PAVCNpcChat@@@@QAE@XZ 00465f70 f i ServerDlg.obj
 0001:00064f90       ??1?$CTypedPtrArray@VCPtrArray@@PAVCRoyalRumbleUser@@@@UAE@XZ 00465f90 f i RoyalRumble.obj
 0001:00064f90       ??1?$CTypedPtrArray@VCPtrArray@@PAVCNpcSayTable@@@@UAE@XZ 00465f90 f i ServerDlg.obj
 0001:00064f90       ??1?$CTypedPtrArray@VCPtrArray@@PAVCNpcChat@@@@UAE@XZ 00465f90 f i ServerDlg.obj
 0001:00064f90       ??1?$CTypedPtrArray@VCPtrArray@@PAVMarkIni@@@@UAE@XZ 00465f90 f i ServerDlg.obj
 0001:00064f90       ??1?$CTypedPtrArray@VCPtrArray@@PAVCEBodyUpgradeTable@@@@UAE@XZ 00465f90 f i ServerDlg.obj
 0001:00064f90       ??1?$CTypedPtrArray@VCPtrArray@@PAVCELL@@@@UAE@XZ 00465f90 f i ServerDlg.obj
 0001:00064f90       ??1?$CTypedPtrArray@VCPtrArray@@PAVCMagicItemTable@@@@UAE@XZ 00465f90 f i ServerDlg.obj
 0001:00064f90       ??1?$CTypedPtrArray@VCPtrArray@@PAVMAP@@@@UAE@XZ 00465f90 f i ServerDlg.obj
 0001:00064f90       ??1?$CTypedPtrArray@VCPtrArray@@PAVCGuildFortress@@@@UAE@XZ 00465f90 f i ServerDlg.obj
 0001:00064f90       ??1?$CTypedPtrArray@VCPtrArray@@PAUExchangeItem@@@@UAE@XZ 00465f90 f i USER.obj
 0001:00064f90       ??1?$CTypedPtrArray@VCPtrArray@@PAU_INITITEMTABLE@@@@UAE@XZ 00465f90 f i ServerDlg.obj
 0001:00064f90       ??1?$CTypedPtrArray@VCPtrArray@@PAVSERVERINFO@@@@UAE@XZ 00465f90 f i ServerDlg.obj
 0001:00064f90       ??1?$CTypedPtrArray@VCPtrArray@@PAVCSkillTable@@@@UAE@XZ 00465f90 f i ServerDlg.obj
 0001:00064f90       ??1?$CTypedPtrArray@VCPtrArray@@PAI@@UAE@XZ 00465f90 f i IOCPBASE.obj
 0001:00064f90       ??1?$CTypedPtrArray@VCPtrArray@@PAVCRecover@@@@UAE@XZ 00465f90 f i ServerDlg.obj
 0001:00064f90       ??1?$CTypedPtrArray@VCPtrArray@@PAPAX@@UAE@XZ 00465f90 f i IOCPBASE.obj
 0001:00064f90       ??1?$CTypedPtrArray@VCPtrArray@@PAVCStore@@@@UAE@XZ 00465f90 f i ServerDlg.obj
 0001:00064f90       ??1?$CTypedPtrArray@VCPtrArray@@PAVCDNTable@@@@UAE@XZ 00465f90 f i ServerDlg.obj
 0001:00064f90       ??1?$CTypedPtrArray@VCPtrArray@@PAVVIPPay@@@@UAE@XZ 00465f90 f i ServerDlg.obj
 0001:00064f90       ??1?$CTypedPtrArray@VCPtrArray@@PAVCGuildMapInfoTable@@@@UAE@XZ 00465f90 f i ServerDlg.obj
 0001:00064f90       ??1?$CTypedPtrArray@VCPtrArray@@PAVCPAMAExp@@@@UAE@XZ 00465f90 f i ServerDlg.obj
 0001:00064f90       ??1?$CTypedPtrArray@VCPtrArray@@PAVEXEC@@@@UAE@XZ 00465f90 f i EVENT_DATA.obj
 0001:00064f90       ??1?$CTypedPtrArray@VCPtrArray@@PAVCEBodyTable@@@@UAE@XZ 00465f90 f i ServerDlg.obj
 0001:00064f90       ??1?$CTypedPtrArray@VCPtrArray@@PAVCNpcTable@@@@UAE@XZ 00465f90 f i ServerDlg.obj
 0001:00064f90       ??1?$CTypedPtrArray@VCPtrArray@@PAVCEventItemNew@@@@UAE@XZ 00465f90 f i ServerDlg.obj
 0001:00064f90       ??1?$CTypedPtrArray@VCPtrArray@@PAVCLevelUpTable@@@@UAE@XZ 00465f90 f i ServerDlg.obj
 0001:00064f90       ??1?$CTypedPtrArray@VCPtrArray@@PAUShopItem@@@@UAE@XZ 00465f90 f i USER.obj
 0001:00064f90       ??1?$CTypedPtrArray@VCPtrArray@@PAVCItemTable@@@@UAE@XZ 00465f90 f i ServerDlg.obj
 0001:00064f90       ??1?$CTypedPtrArray@VCPtrArray@@PAVMarkPay@@@@UAE@XZ 00465f90 f i ServerDlg.obj
 0001:00064f90       ??1?$CTypedPtrArray@VCPtrArray@@PAU_ZONEINFO@@@@UAE@XZ 00465f90 f i ServerDlg.obj
 0001:00064f90       ??1?$CTypedPtrArray@VCPtrArray@@PAVEVENT_DATA@@@@UAE@XZ 00465f90 f i EVENT.obj
 0001:00064f90       ??1?$CTypedPtrArray@VCPtrArray@@PAVCEventItemTable@@@@UAE@XZ 00465f90 f i ServerDlg.obj
 0001:00064f90       ??1?$CTypedPtrArray@VCPtrArray@@PAH@@UAE@XZ 00465f90 f i MAP.obj
 0001:00064f90       ??1?$CTypedPtrArray@VCPtrArray@@PAVLOGIC_ELSE@@@@UAE@XZ 00465f90 f i EVENT_DATA.obj
 0001:00064f90       ??1?$CTypedPtrArray@VCPtrArray@@PAU_DRESSING_RESULT@@@@UAE@XZ 00465f90 f i USER2.obj
 0001:00064f90       ??1?$CTypedPtrArray@VCPtrArray@@PAU_TOWNPOTAL@@@@UAE@XZ 00465f90 f i ServerDlg.obj
 0001:00064f90       ??1?$CTypedPtrArray@VCPtrArray@@PAVEVENT@@@@UAE@XZ 00465f90 f i ServerDlg.obj
 0001:00064f90       ??1?$CTypedPtrArray@VCPtrArray@@PAVCNpc@@@@UAE@XZ 00465f90 f i ServerDlg.obj
 0001:00064f90       ??1?$CTypedPtrArray@VCPtrArray@@PAVCVirtualRoom@@@@UAE@XZ 00465f90 f i ServerDlg.obj
 0001:00064f90       ??1?$CTypedPtrArray@VCPtrArray@@PAVCRecoverRate@@@@UAE@XZ 00465f90 f i ServerDlg.obj
 0001:00064f90       ??1?$CTypedPtrArray@VCPtrArray@@PAVTableItem@@@@UAE@XZ 00465f90 f i ServerDlg.obj
 0001:00064f90       ??1?$CTypedPtrArray@VCPtrArray@@PAU_ITEMLOG@@@@UAE@XZ 00465f90 f i USER.obj
 0001:00064f90       ??1?$CTypedPtrArray@VCPtrArray@@PAVCGuild@@@@UAE@XZ 00465f90 f i ServerDlg.obj
 0001:00064f90       ??1?$CTypedPtrArray@VCPtrArray@@PAVItemList@@@@UAE@XZ 00465f90 f i CELL.obj
 0001:00064f90       ??1?$CTypedPtrArray@VCPtrArray@@PAU_StoreDB@@@@UAE@XZ 00465f90 f i ServerDlg.obj
 0001:00064f90       ??1?$CTypedPtrArray@VCPtrArray@@PAVOnlineShop@@@@UAE@XZ 00465f90 f i ServerDlg.obj
 0001:00064f90       ??1?$CTypedPtrArray@VCPtrArray@@PAU_ThreadPacket@@@@UAE@XZ 00465f90 f i IOCPBASE.obj
 0001:00064f90       ??1?$CTypedPtrArray@VCPtrArray@@PAVMarkGMIni@@@@UAE@XZ 00465f90 f i ServerDlg.obj
 0001:00064f90       ??1?$CTypedPtrArray@VCPtrArray@@PAVCPsiTable@@@@UAE@XZ 00465f90 f i ServerDlg.obj
 0001:00064f90       ??1?$CTypedPtrArray@VCPtrArray@@PAU_DRESSING_DATA@@@@UAE@XZ 00465f90 f i ServerDlg.obj
 0001:00064f90       ??1?$CTypedPtrArray@VCPtrArray@@PAVCGuildUser@@@@UAE@XZ 00465f90 f i ServerDlg.obj
 0001:00064f90       ??1?$CTypedPtrArray@VCPtrArray@@PAU_WEATHER_INFO@@@@UAE@XZ 00465f90 f i ServerDlg.obj
 0001:00064f90       ??1?$CTypedPtrArray@VCPtrArray@@PAVCNpcThread@@@@UAE@XZ 00465f90 f i ServerDlg.obj
 0001:00064f90       ??1?$CTypedPtrArray@VCPtrArray@@PAVCSummonTable@@@@UAE@XZ 00465f90 f i ServerDlg.obj
 0001:00064f90       ??1?$CTypedPtrArray@VCPtrArray@@PAVCSharedMemory@@@@UAE@XZ 00465f90 f i ServerDlg.obj
 0001:00064f90       ??1?$CTypedPtrArray@VCPtrArray@@PAVCMonsterPsi@@@@UAE@XZ 00465f90 f i ServerDlg.obj
 0001:00064f90       ??1?$CTypedPtrArray@VCPtrArray@@PAVCGuildHouseWar@@@@UAE@XZ 00465f90 f i ServerDlg.obj
 0001:00064f90       ??1?$CTypedPtrArray@VCPtrArray@@PAVCEBodyIdentifyTable@@@@UAE@XZ 00465f90 f i ServerDlg.obj
 0001:00064f90       ??1?$CTypedPtrArray@VCPtrArray@@PAVMarkChouJiang@@@@UAE@XZ 00465f90 f i ServerDlg.obj
 0001:00064f90       ??1?$CTypedPtrArray@VCPtrArray@@PAU_EVENT@@@@UAE@XZ 00465f90 f i EventBlockingTable.obj
 0001:00064f90       ??1?$CTypedPtrArray@VCPtrArray@@PAVCBoxEventTable@@@@UAE@XZ 00465f90 f i ServerDlg.obj
 0001:00064f90       ??1?$CTypedPtrArray@VCPtrArray@@PAVCRemodelingTable@@@@UAE@XZ 00465f90 f i ServerDlg.obj
 0001:00064f90       ??1?$CTypedPtrArray@VCPtrArray@@PAU_DB_CONNECTION@@@@UAE@XZ 00465f90 f i MyDB.obj
 0001:00064f90       ??1?$CTypedPtrArray@VCPtrArray@@PAVCUserLevelUpTable@@@@UAE@XZ 00465f90 f i ServerDlg.obj
 0001:00064f90       ??1?$CTypedPtrArray@VCPtrArray@@PAVMarkGonggao@@@@UAE@XZ 00465f90 f i ServerDlg.obj
 0001:00064f90       ??1?$CTypedPtrArray@VCPtrArray@@PAVCAccessoriUpTable@@@@UAE@XZ 00465f90 f i ServerDlg.obj
 0001:00064f90       ??1?$CTypedPtrArray@VCPtrArray@@PAVLOGIC@@@@UAE@XZ 00465f90 f i EVENT_DATA.obj
 0001:00064f90       ??1?$CTypedPtrArray@VCPtrArray@@PAVCGuildHouse@@@@UAE@XZ 00465f90 f i ServerDlg.obj
 0001:00064fb0       ??0?$CTypedPtrArray@VCPtrArray@@PAU_WEATHER_INFO@@@@QAE@XZ 00465fb0 f i ServerDlg.obj
 0001:00064fd0       ??0?$CTypedPtrArray@VCPtrArray@@PAU_ZONEINFO@@@@QAE@XZ 00465fd0 f i ServerDlg.obj
 0001:00064ff0       ??0?$CTypedPtrArray@VCPtrArray@@PAU_TOWNPOTAL@@@@QAE@XZ 00465ff0 f i ServerDlg.obj
 0001:00065010       ??0?$CTypedPtrArray@VCPtrArray@@PAU_INITITEMTABLE@@@@QAE@XZ 00466010 f i ServerDlg.obj
 0001:00065030       ??0?$CTypedPtrArray@VCPtrArray@@PAVCMagicItemTable@@@@QAE@XZ 00466030 f i ServerDlg.obj
 0001:00065050       ??0?$CTypedPtrArray@VCPtrArray@@PAVCAccessoriUpTable@@@@QAE@XZ 00466050 f i ServerDlg.obj
 0001:00065070       ??0?$CTypedPtrArray@VCPtrArray@@PAVCRemodelingTable@@@@QAE@XZ 00466070 f i ServerDlg.obj
 0001:00065090       ??0?$CTypedPtrArray@VCPtrArray@@PAVCBoxEventTable@@@@QAE@XZ 00466090 f i ServerDlg.obj
 0001:000650b0       ??0?$CTypedPtrArray@VCPtrArray@@PAVCSummonTable@@@@QAE@XZ 004660b0 f i ServerDlg.obj
 0001:000650d0       ??0?$CTypedPtrArray@VCPtrArray@@PAVCNpc@@@@QAE@XZ 004660d0 f i ServerDlg.obj
 0001:000650f0       ??0?$CTypedPtrArray@VCPtrArray@@PAVCRecover@@@@QAE@XZ 004660f0 f i ServerDlg.obj
 0001:00065110       ??0?$CTypedPtrArray@VCPtrArray@@PAVCRecoverRate@@@@QAE@XZ 00466110 f i ServerDlg.obj
 0001:00065130       ??0?$CTypedPtrArray@VCPtrArray@@PAVCDNTable@@@@QAE@XZ 00466130 f i ServerDlg.obj
 0001:00065150       ??0?$CTypedPtrArray@VCPtrArray@@PAVCGuild@@@@QAE@XZ 00466150 f i ServerDlg.obj
 0001:00065170       ??0?$CTypedPtrArray@VCPtrArray@@PAVCGuildUser@@@@QAE@XZ 00466170 f i ServerDlg.obj
 0001:00065190       ??0?$CTypedPtrArray@VCPtrArray@@PAVCEBodyTable@@@@QAE@XZ 00466190 f i ServerDlg.obj
 0001:000651b0       ??0?$CTypedPtrArray@VCPtrArray@@PAVCEBodyUpgradeTable@@@@QAE@XZ 004661b0 f i ServerDlg.obj
 0001:000651d0       ??0?$CTypedPtrArray@VCPtrArray@@PAVCEBodyIdentifyTable@@@@QAE@XZ 004661d0 f i ServerDlg.obj
 0001:000651f0       ??0?$CTypedPtrArray@VCPtrArray@@PAVOnlineShop@@@@QAE@XZ 004661f0 f i ServerDlg.obj
 0001:00065210       ??0?$CTypedPtrArray@VCPtrArray@@PAVVIPPay@@@@QAE@XZ 00466210 f i ServerDlg.obj
 0001:00065230       ??0?$CTypedPtrArray@VCPtrArray@@PAVMarkPay@@@@QAE@XZ 00466230 f i ServerDlg.obj
 0001:00065250       ??0?$CTypedPtrArray@VCPtrArray@@PAVMarkGonggao@@@@QAE@XZ 00466250 f i ServerDlg.obj
 0001:00065270       ??0?$CTypedPtrArray@VCPtrArray@@PAVMarkChouJiang@@@@QAE@XZ 00466270 f i ServerDlg.obj
 0001:00065290       ??0?$CTypedPtrArray@VCPtrArray@@PAVCGuildMapInfoTable@@@@QAE@XZ 00466290 f i ServerDlg.obj
 0001:000652b0       ??0?$CTypedPtrArray@VCPtrArray@@PAVCGuildHouseWar@@@@QAE@XZ 004662b0 f i ServerDlg.obj
 0001:000652d0       ??0?$CTypedPtrArray@VCPtrArray@@PAVCVirtualRoom@@@@QAE@XZ 004662d0 f i ServerDlg.obj
 0001:000652f0       ??0?$CTypedPtrArray@VCPtrArray@@PAVCGuildHouse@@@@QAE@XZ 004662f0 f i ServerDlg.obj
 0001:00065310       ??0?$CTypedPtrArray@VCPtrArray@@PAVCUserLevelUpTable@@@@QAE@XZ 00466310 f i ServerDlg.obj
 0001:00065330       ??0?$CTypedPtrArray@VCPtrArray@@PAVCEventItemTable@@@@QAE@XZ 00466330 f i ServerDlg.obj
 0001:00065350       ??0?$CTypedPtrArray@VCPtrArray@@PAVCEventItemNew@@@@QAE@XZ 00466350 f i ServerDlg.obj
 0001:00065370       ??0?$CTypedPtrArray@VCPtrArray@@PAVCNpcSayTable@@@@QAE@XZ 00466370 f i ServerDlg.obj
 0001:00065390       ??_E?$CTypedPtrArray@VCPtrArray@@PAVSERVERINFO@@@@UAEPAXI@Z 00466390 f i ServerDlg.obj
 0001:00065390       ??_E?$CTypedPtrArray@VCPtrArray@@PAVCRecover@@@@UAEPAXI@Z 00466390 f i ServerDlg.obj
 0001:00065390       ??_E?$CTypedPtrArray@VCPtrArray@@PAVMarkGMIni@@@@UAEPAXI@Z 00466390 f i ServerDlg.obj
 0001:00065390       ??_E?$CTypedPtrArray@VCPtrArray@@PAVCSharedMemory@@@@UAEPAXI@Z 00466390 f i ServerDlg.obj
 0001:00065390       ??_E?$CTypedPtrArray@VCPtrArray@@PAVCBoxEventTable@@@@UAEPAXI@Z 00466390 f i ServerDlg.obj
 0001:00065390       ??_G?$CTypedPtrArray@VCPtrArray@@PAVEXEC@@@@UAEPAXI@Z 00466390 f i EVENT_DATA.obj
 0001:00065390       ??_E?$CTypedPtrArray@VCPtrArray@@PAVCUserLevelUpTable@@@@UAEPAXI@Z 00466390 f i ServerDlg.obj
 0001:00065390       ??_E?$CTypedPtrArray@VCPtrArray@@PAVCPAMAExp@@@@UAEPAXI@Z 00466390 f i ServerDlg.obj
 0001:00065390       ??_G?$CTypedPtrArray@VCPtrArray@@PAVLOGIC_ELSE@@@@UAEPAXI@Z 00466390 f i EVENT_DATA.obj
 0001:00065390       ??_E?$CTypedPtrArray@VCPtrArray@@PAU_StoreDB@@@@UAEPAXI@Z 00466390 f i ServerDlg.obj
 0001:00065390       ??_E?$CTypedPtrArray@VCPtrArray@@PAVCGuildUser@@@@UAEPAXI@Z 00466390 f i ServerDlg.obj
 0001:00065390       ??_G?$CTypedPtrArray@VCPtrArray@@PAVCEventItemNew@@@@UAEPAXI@Z 00466390 f i ServerDlg.obj
 0001:00065390       ??_G?$CTypedPtrArray@VCPtrArray@@PAVCSummonTable@@@@UAEPAXI@Z 00466390 f i ServerDlg.obj
 0001:00065390       ??_G?$CTypedPtrArray@VCPtrArray@@PAVCNpc@@@@UAEPAXI@Z 00466390 f i ServerDlg.obj
 0001:00065390       ??_E?$CTypedPtrArray@VCPtrArray@@PAVMarkPay@@@@UAEPAXI@Z 00466390 f i ServerDlg.obj
 0001:00065390       ??_G?$CTypedPtrArray@VCPtrArray@@PAVCGuildFortress@@@@UAEPAXI@Z 00466390 f i ServerDlg.obj
 0001:00065390       ??_G?$CTypedPtrArray@VCPtrArray@@PAVCEBodyUpgradeTable@@@@UAEPAXI@Z 00466390 f i ServerDlg.obj
 0001:00065390       ??_E?$CTypedPtrArray@VCPtrArray@@PAVCRecoverRate@@@@UAEPAXI@Z 00466390 f i ServerDlg.obj
 0001:00065390       ??_E?$CTypedPtrArray@VCPtrArray@@PAVEVENT@@@@UAEPAXI@Z 00466390 f i ServerDlg.obj
 0001:00065390       ??_E?$CTypedPtrArray@VCPtrArray@@PAVMarkChouJiang@@@@UAEPAXI@Z 00466390 f i ServerDlg.obj
 0001:00065390       ??_E?$CTypedPtrArray@VCPtrArray@@PAVLOGIC@@@@UAEPAXI@Z 00466390 f i EVENT_DATA.obj
 0001:00065390       ??_E?$CTypedPtrArray@VCPtrArray@@PAUExchangeItem@@@@UAEPAXI@Z 00466390 f i USER.obj
 0001:00065390       ??_E?$CTypedPtrArray@VCPtrArray@@PAVCELL@@@@UAEPAXI@Z 00466390 f i ServerDlg.obj
 0001:00065390       ??_E?$CTypedPtrArray@VCPtrArray@@PAVCEventItemTable@@@@UAEPAXI@Z 00466390 f i ServerDlg.obj
 0001:00065390       ??_G?$CTypedPtrArray@VCPtrArray@@PAVCGuildMapInfoTable@@@@UAEPAXI@Z 00466390 f i ServerDlg.obj
 0001:00065390       ??_G?$CTypedPtrArray@VCPtrArray@@PAU_WEATHER_INFO@@@@UAEPAXI@Z 00466390 f i ServerDlg.obj
 0001:00065390       ??_G?$CTypedPtrArray@VCPtrArray@@PAVCPAMAExp@@@@UAEPAXI@Z 00466390 f i ServerDlg.obj
 0001:00065390       ??_G?$CTypedPtrArray@VCPtrArray@@PAVMAP@@@@UAEPAXI@Z 00466390 f i ServerDlg.obj
 0001:00065390       ??_E?$CTypedPtrArray@VCPtrArray@@PAVCEBodyUpgradeTable@@@@UAEPAXI@Z 00466390 f i ServerDlg.obj
 0001:00065390       ??_E?$CTypedPtrArray@VCPtrArray@@PAVMAP@@@@UAEPAXI@Z 00466390 f i ServerDlg.obj
 0001:00065390       ??_G?$CTypedPtrArray@VCPtrArray@@PAVCNpcSayTable@@@@UAEPAXI@Z 00466390 f i ServerDlg.obj
 0001:00065390       ??_E?$CTypedPtrArray@VCPtrArray@@PAU_TOWNPOTAL@@@@UAEPAXI@Z 00466390 f i ServerDlg.obj
 0001:00065390       ??_E?$CTypedPtrArray@VCPtrArray@@PAVMarkIni@@@@UAEPAXI@Z 00466390 f i ServerDlg.obj
 0001:00065390       ??_G?$CTypedPtrArray@VCPtrArray@@PAU_EVENT@@@@UAEPAXI@Z 00466390 f i EventBlockingTable.obj
 0001:00065390       ??_G?$CTypedPtrArray@VCPtrArray@@PAVItemList@@@@UAEPAXI@Z 00466390 f i CELL.obj
 0001:00065390       ??_G?$CTypedPtrArray@VCPtrArray@@PAVTableItem@@@@UAEPAXI@Z 00466390 f i ServerDlg.obj
 0001:00065390       ??_G?$CTypedPtrArray@VCPtrArray@@PAVCLevelUpTable@@@@UAEPAXI@Z 00466390 f i ServerDlg.obj
 0001:00065390       ??_G?$CTypedPtrArray@VCPtrArray@@PAVCRoyalRumbleUser@@@@UAEPAXI@Z 00466390 f i RoyalRumble.obj
 0001:00065390       ??_G?$CTypedPtrArray@VCPtrArray@@PAVCRecoverRate@@@@UAEPAXI@Z 00466390 f i ServerDlg.obj
 0001:00065390       ??_E?$CTypedPtrArray@VCPtrArray@@PAU_DRESSING_RESULT@@@@UAEPAXI@Z 00466390 f i USER2.obj
 0001:00065390       ??_E?$CTypedPtrArray@VCPtrArray@@PAU_ITEMLOG@@@@UAEPAXI@Z 00466390 f i USER.obj
 0001:00065390       ??_G?$CTypedPtrArray@VCPtrArray@@PAVCELL@@@@UAEPAXI@Z 00466390 f i ServerDlg.obj
 0001:00065390       ??_E?$CTypedPtrArray@VCPtrArray@@PAVCEventItemNew@@@@UAEPAXI@Z 00466390 f i ServerDlg.obj
 0001:00065390       ??_E?$CTypedPtrArray@VCPtrArray@@PAVEXEC@@@@UAEPAXI@Z 00466390 f i EVENT_DATA.obj
 0001:00065390       ??_E?$CTypedPtrArray@VCPtrArray@@PAVCGuild@@@@UAEPAXI@Z 00466390 f i ServerDlg.obj
 0001:00065390       ??_E?$CTypedPtrArray@VCPtrArray@@PAVEVENT_DATA@@@@UAEPAXI@Z 00466390 f i EVENT.obj
 0001:00065390       ??_G?$CTypedPtrArray@VCPtrArray@@PAU_ITEMLOG@@@@UAEPAXI@Z 00466390 f i USER.obj
 0001:00065390       ??_E?$CTypedPtrArray@VCPtrArray@@PAVCDNTable@@@@UAEPAXI@Z 00466390 f i ServerDlg.obj
 0001:00065390       ??_G?$CTypedPtrArray@VCPtrArray@@PAVCMagicItemTable@@@@UAEPAXI@Z 00466390 f i ServerDlg.obj
 0001:00065390       ??_G?$CTypedPtrArray@VCPtrArray@@PAVCPsiTable@@@@UAEPAXI@Z 00466390 f i ServerDlg.obj
 0001:00065390       ??_G?$CTypedPtrArray@VCPtrArray@@PAVCGuildHouse@@@@UAEPAXI@Z 00466390 f i ServerDlg.obj
 0001:00065390       ??_G?$CTypedPtrArray@VCPtrArray@@PAVCGuild@@@@UAEPAXI@Z 00466390 f i ServerDlg.obj
 0001:00065390       ??_E?$CTypedPtrArray@VCPtrArray@@PAVCSkillTable@@@@UAEPAXI@Z 00466390 f i ServerDlg.obj
 0001:00065390       ??_G?$CTypedPtrArray@VCPtrArray@@PAPAX@@UAEPAXI@Z 00466390 f i IOCPBASE.obj
 0001:00065390       ??_E?$CTypedPtrArray@VCPtrArray@@PAVCGuildHouseWar@@@@UAEPAXI@Z 00466390 f i ServerDlg.obj
 0001:00065390       ??_E?$CTypedPtrArray@VCPtrArray@@PAI@@UAEPAXI@Z 00466390 f i IOCPBASE.obj
 0001:00065390       ??_G?$CTypedPtrArray@VCPtrArray@@PAVMarkGonggao@@@@UAEPAXI@Z 00466390 f i ServerDlg.obj
 0001:00065390       ??_G?$CTypedPtrArray@VCPtrArray@@PAVCUserLevelUpTable@@@@UAEPAXI@Z 00466390 f i ServerDlg.obj
 0001:00065390       ??_G?$CTypedPtrArray@VCPtrArray@@PAU_ThreadPacket@@@@UAEPAXI@Z 00466390 f i IOCPBASE.obj
 0001:00065390       ??_G?$CTypedPtrArray@VCPtrArray@@PAU_DB_CONNECTION@@@@UAEPAXI@Z 00466390 f i MyDB.obj
 0001:00065390       ??_E?$CTypedPtrArray@VCPtrArray@@PAVCItemTable@@@@UAEPAXI@Z 00466390 f i ServerDlg.obj
 0001:00065390       ??_E?$CTypedPtrArray@VCPtrArray@@PAVCGuildMapInfoTable@@@@UAEPAXI@Z 00466390 f i ServerDlg.obj
 0001:00065390       ??_E?$CTypedPtrArray@VCPtrArray@@PAVLOGIC_ELSE@@@@UAEPAXI@Z 00466390 f i EVENT_DATA.obj
 0001:00065390       ??_G?$CTypedPtrArray@VCPtrArray@@PAVCEventItemTable@@@@UAEPAXI@Z 00466390 f i ServerDlg.obj
 0001:00065390       ??_G?$CTypedPtrArray@VCPtrArray@@PAVCRecover@@@@UAEPAXI@Z 00466390 f i ServerDlg.obj
 0001:00065390       ??_E?$CTypedPtrArray@VCPtrArray@@PAVCSummonTable@@@@UAEPAXI@Z 00466390 f i ServerDlg.obj
 0001:00065390       ??_G?$CTypedPtrArray@VCPtrArray@@PAVEVENT_DATA@@@@UAEPAXI@Z 00466390 f i EVENT.obj
 0001:00065390       ??_E?$CTypedPtrArray@VCPtrArray@@PAU_ZONEINFO@@@@UAEPAXI@Z 00466390 f i ServerDlg.obj
 0001:00065390       ??_E?$CTypedPtrArray@VCPtrArray@@PAVCNpcSayTable@@@@UAEPAXI@Z 00466390 f i ServerDlg.obj
 0001:00065390       ??_E?$CTypedPtrArray@VCPtrArray@@PAVCNpc@@@@UAEPAXI@Z 00466390 f i ServerDlg.obj
 0001:00065390       ??_E?$CTypedPtrArray@VCPtrArray@@PAPAX@@UAEPAXI@Z 00466390 f i IOCPBASE.obj
 0001:00065390       ??_E?$CTypedPtrArray@VCPtrArray@@PAVCVirtualRoom@@@@UAEPAXI@Z 00466390 f i ServerDlg.obj
 0001:00065390       ??_G?$CTypedPtrArray@VCPtrArray@@PAVMarkIni@@@@UAEPAXI@Z 00466390 f i ServerDlg.obj
 0001:00065390       ??_G?$CTypedPtrArray@VCPtrArray@@PAVMarkPay@@@@UAEPAXI@Z 00466390 f i ServerDlg.obj
 0001:00065390       ??_E?$CTypedPtrArray@VCPtrArray@@PAVCRemodelingTable@@@@UAEPAXI@Z 00466390 f i ServerDlg.obj
 0001:00065390       ??_E?$CTypedPtrArray@VCPtrArray@@PAVVIPPay@@@@UAEPAXI@Z 00466390 f i ServerDlg.obj
 0001:00065390       ??_E?$CTypedPtrArray@VCPtrArray@@PAVItemList@@@@UAEPAXI@Z 00466390 f i CELL.obj
 0001:00065390       ??_E?$CTypedPtrArray@VCPtrArray@@PAVCPsiTable@@@@UAEPAXI@Z 00466390 f i ServerDlg.obj
 0001:00065390       ??_G?$CTypedPtrArray@VCPtrArray@@PAVCStore@@@@UAEPAXI@Z 00466390 f i ServerDlg.obj
 0001:00065390       ??_G?$CTypedPtrArray@VCPtrArray@@PAVOnlineShop@@@@UAEPAXI@Z 00466390 f i ServerDlg.obj
 0001:00065390       ??_G?$CTypedPtrArray@VCPtrArray@@PAUExchangeItem@@@@UAEPAXI@Z 00466390 f i USER.obj
 0001:00065390       ??_G?$CTypedPtrArray@VCPtrArray@@PAH@@UAEPAXI@Z 00466390 f i MAP.obj
 0001:00065390       ??_G?$CTypedPtrArray@VCPtrArray@@PAVCNpcTable@@@@UAEPAXI@Z 00466390 f i ServerDlg.obj
 0001:00065390       ??_E?$CTypedPtrArray@VCPtrArray@@PAU_WEATHER_INFO@@@@UAEPAXI@Z 00466390 f i ServerDlg.obj
 0001:00065390       ??_E?$CTypedPtrArray@VCPtrArray@@PAVCStore@@@@UAEPAXI@Z 00466390 f i ServerDlg.obj
 0001:00065390       ??_E?$CTypedPtrArray@VCPtrArray@@PAVCMonsterPsi@@@@UAEPAXI@Z 00466390 f i ServerDlg.obj
 0001:00065390       ??_G?$CTypedPtrArray@VCPtrArray@@PAVLOGIC@@@@UAEPAXI@Z 00466390 f i EVENT_DATA.obj
 0001:00065390       ??_E?$CTypedPtrArray@VCPtrArray@@PAU_INITITEMTABLE@@@@UAEPAXI@Z 00466390 f i ServerDlg.obj
 0001:00065390       ??_G?$CTypedPtrArray@VCPtrArray@@PAVCMonsterPsi@@@@UAEPAXI@Z 00466390 f i ServerDlg.obj
 0001:00065390       ??_G?$CTypedPtrArray@VCPtrArray@@PAVCGuildHouseWar@@@@UAEPAXI@Z 00466390 f i ServerDlg.obj
 0001:00065390       ??_E?$CTypedPtrArray@VCPtrArray@@PAVCNpcThread@@@@UAEPAXI@Z 00466390 f i ServerDlg.obj
 0001:00065390       ??_E?$CTypedPtrArray@VCPtrArray@@PAU_DB_CONNECTION@@@@UAEPAXI@Z 00466390 f i MyDB.obj
 0001:00065390       ??_G?$CTypedPtrArray@VCPtrArray@@PAVCSkillTable@@@@UAEPAXI@Z 00466390 f i ServerDlg.obj
 0001:00065390       ??_E?$CTypedPtrArray@VCPtrArray@@PAVCRoyalRumbleUser@@@@UAEPAXI@Z 00466390 f i RoyalRumble.obj
 0001:00065390       ??_G?$CTypedPtrArray@VCPtrArray@@PAU_StoreDB@@@@UAEPAXI@Z 00466390 f i ServerDlg.obj
 0001:00065390       ??_G?$CTypedPtrArray@VCPtrArray@@PAVCDNTable@@@@UAEPAXI@Z 00466390 f i ServerDlg.obj
 0001:00065390       ??_G?$CTypedPtrArray@VCPtrArray@@PAVCBoxEventTable@@@@UAEPAXI@Z 00466390 f i ServerDlg.obj
 0001:00065390       ??_G?$CTypedPtrArray@VCPtrArray@@PAVCNpcThread@@@@UAEPAXI@Z 00466390 f i ServerDlg.obj
 0001:00065390       ??_G?$CTypedPtrArray@VCPtrArray@@PAVVIPPay@@@@UAEPAXI@Z 00466390 f i ServerDlg.obj
 0001:00065390       ??_E?$CTypedPtrArray@VCPtrArray@@PAVMarkGonggao@@@@UAEPAXI@Z 00466390 f i ServerDlg.obj
 0001:00065390       ??_E?$CTypedPtrArray@VCPtrArray@@PAVCEBodyIdentifyTable@@@@UAEPAXI@Z 00466390 f i ServerDlg.obj
 0001:00065390       ??_E?$CTypedPtrArray@VCPtrArray@@PAUShopItem@@@@UAEPAXI@Z 00466390 f i USER.obj
 0001:00065390       ??_G?$CTypedPtrArray@VCPtrArray@@PAVCVirtualRoom@@@@UAEPAXI@Z 00466390 f i ServerDlg.obj
 0001:00065390       ??_E?$CTypedPtrArray@VCPtrArray@@PAVCMagicItemTable@@@@UAEPAXI@Z 00466390 f i ServerDlg.obj
 0001:00065390       ??_G?$CTypedPtrArray@VCPtrArray@@PAU_INITITEMTABLE@@@@UAEPAXI@Z 00466390 f i ServerDlg.obj
 0001:00065390       ??_G?$CTypedPtrArray@VCPtrArray@@PAVCRemodelingTable@@@@UAEPAXI@Z 00466390 f i ServerDlg.obj
 0001:00065390       ??_G?$CTypedPtrArray@VCPtrArray@@PAVCSharedMemory@@@@UAEPAXI@Z 00466390 f i ServerDlg.obj
 0001:00065390       ??_G?$CTypedPtrArray@VCPtrArray@@PAVCEBodyIdentifyTable@@@@UAEPAXI@Z 00466390 f i ServerDlg.obj
 0001:00065390       ??_E?$CTypedPtrArray@VCPtrArray@@PAVOnlineShop@@@@UAEPAXI@Z 00466390 f i ServerDlg.obj
 0001:00065390       ??_G?$CTypedPtrArray@VCPtrArray@@PAUShopItem@@@@UAEPAXI@Z 00466390 f i USER.obj
 0001:00065390       ??_E?$CTypedPtrArray@VCPtrArray@@PAU_EVENT@@@@UAEPAXI@Z 00466390 f i EventBlockingTable.obj
 0001:00065390       ??_E?$CTypedPtrArray@VCPtrArray@@PAVCNpcTable@@@@UAEPAXI@Z 00466390 f i ServerDlg.obj
 0001:00065390       ??_G?$CTypedPtrArray@VCPtrArray@@PAU_DRESSING_DATA@@@@UAEPAXI@Z 00466390 f i ServerDlg.obj
 0001:00065390       ??_E?$CTypedPtrArray@VCPtrArray@@PAVCAccessoriUpTable@@@@UAEPAXI@Z 00466390 f i ServerDlg.obj
 0001:00065390       ??_E?$CTypedPtrArray@VCPtrArray@@PAH@@UAEPAXI@Z 00466390 f i MAP.obj
 0001:00065390       ??_G?$CTypedPtrArray@VCPtrArray@@PAU_ZONEINFO@@@@UAEPAXI@Z 00466390 f i ServerDlg.obj
 0001:00065390       ??_G?$CTypedPtrArray@VCPtrArray@@PAU_TOWNPOTAL@@@@UAEPAXI@Z 00466390 f i ServerDlg.obj
 0001:00065390       ??_G?$CTypedPtrArray@VCPtrArray@@PAVCNpcChat@@@@UAEPAXI@Z 00466390 f i ServerDlg.obj
 0001:00065390       ??_G?$CTypedPtrArray@VCPtrArray@@PAVMarkChouJiang@@@@UAEPAXI@Z 00466390 f i ServerDlg.obj
 0001:00065390       ??_G?$CTypedPtrArray@VCPtrArray@@PAVCEBodyTable@@@@UAEPAXI@Z 00466390 f i ServerDlg.obj
 0001:00065390       ??_G?$CTypedPtrArray@VCPtrArray@@PAVCItemTable@@@@UAEPAXI@Z 00466390 f i ServerDlg.obj
 0001:00065390       ??_E?$CTypedPtrArray@VCPtrArray@@PAVCEBodyTable@@@@UAEPAXI@Z 00466390 f i ServerDlg.obj
 0001:00065390       ??_G?$CTypedPtrArray@VCPtrArray@@PAU_DRESSING_RESULT@@@@UAEPAXI@Z 00466390 f i USER2.obj
 0001:00065390       ??_G?$CTypedPtrArray@VCPtrArray@@PAVSERVERINFO@@@@UAEPAXI@Z 00466390 f i ServerDlg.obj
 0001:00065390       ??_E?$CTypedPtrArray@VCPtrArray@@PAVCGuildHouse@@@@UAEPAXI@Z 00466390 f i ServerDlg.obj
 0001:00065390       ??_E?$CTypedPtrArray@VCPtrArray@@PAVCLevelUpTable@@@@UAEPAXI@Z 00466390 f i ServerDlg.obj
 0001:00065390       ??_G?$CTypedPtrArray@VCPtrArray@@PAVMarkGMIni@@@@UAEPAXI@Z 00466390 f i ServerDlg.obj
 0001:00065390       ??_G?$CTypedPtrArray@VCPtrArray@@PAVCAccessoriUpTable@@@@UAEPAXI@Z 00466390 f i ServerDlg.obj
 0001:00065390       ??_G?$CTypedPtrArray@VCPtrArray@@PAVEVENT@@@@UAEPAXI@Z 00466390 f i ServerDlg.obj
 0001:00065390       ??_E?$CTypedPtrArray@VCPtrArray@@PAU_ThreadPacket@@@@UAEPAXI@Z 00466390 f i IOCPBASE.obj
 0001:00065390       ??_E?$CTypedPtrArray@VCPtrArray@@PAVCNpcChat@@@@UAEPAXI@Z 00466390 f i ServerDlg.obj
 0001:00065390       ??_E?$CTypedPtrArray@VCPtrArray@@PAU_DRESSING_DATA@@@@UAEPAXI@Z 00466390 f i ServerDlg.obj
 0001:00065390       ??_E?$CTypedPtrArray@VCPtrArray@@PAVTableItem@@@@UAEPAXI@Z 00466390 f i ServerDlg.obj
 0001:00065390       ??_E?$CTypedPtrArray@VCPtrArray@@PAVCGuildFortress@@@@UAEPAXI@Z 00466390 f i ServerDlg.obj
 0001:00065390       ??_G?$CTypedPtrArray@VCPtrArray@@PAVCGuildUser@@@@UAEPAXI@Z 00466390 f i ServerDlg.obj
 0001:00065390       ??_G?$CTypedPtrArray@VCPtrArray@@PAI@@UAEPAXI@Z 00466390 f i IOCPBASE.obj
 0001:000653c0       ??0?$CTypedPtrArray@VCPtrArray@@PAVCGuildFortress@@@@QAE@XZ 004663c0 f i ServerDlg.obj
 0001:000653e0       ??0?$CTypedPtrArray@VCPtrArray@@PAVCMonsterPsi@@@@QAE@XZ 004663e0 f i ServerDlg.obj
 0001:00065400       ??0?$CTypedPtrArray@VCPtrArray@@PAU_DRESSING_DATA@@@@QAE@XZ 00466400 f i ServerDlg.obj
 0001:00065420       ?InitEnv@CServerDlg@@QAEHXZ 00466420 f   ServerDlg2.obj
 0001:00065720       ?MakeThreadSafeUserMessage@CServerDlg@@QAEHHHJ@Z 00466720 f   ServerDlg2.obj
 0001:00065730       ?MakeThreadSafeMessage@CServerDlg@@QAEHHHJ@Z 00466730 f   ServerDlg2.obj
 0001:00065740       ?ServerCloseMessage@CServerDlg@@QAEXHJ@Z 00466740 f   ServerDlg2.obj
 0001:00065770       ?UserCloseMessage@CServerDlg@@QAEXHJ@Z 00466770 f   ServerDlg2.obj
 0001:000657a0       ?AutoMataAppCmd@CServerDlg@@QAEHPAVWAIT_RECV_DATA@@@Z 004667a0 f   ServerDlg2.obj
 0001:000658c0       ?OnStartAutomata@CServerDlg@@QAEJIJ@Z 004668c0 f   ServerDlg2.obj
 0001:000658e0       ?WorkerLoginThread@@YAIPAX@Z 004668e0 f   ServerDlg2.obj
 0001:00065a80       ?WorkerLogoutThread@@YAIPAX@Z 00466a80 f   ServerDlg2.obj
 0001:00065bf0       ?WorkerSQLThread@@YAIPAX@Z 00466bf0 f   ServerDlg2.obj
 0001:00065ff0       ?WorkerFortressThread@@YAIPAX@Z 00466ff0 f   ServerDlg2.obj
 0001:000663a0       ?InitThreads@CServerDlg@@QAEXXZ 004673a0 f   ServerDlg2.obj
 0001:000664b0       ?UserFree@CServerDlg@@QAEXH@Z 004674b0 f   ServerDlg2.obj
 0001:000664f0       ?SetAliveSignalFill@CServerDlg@@QAEXXZ 004674f0 f   ServerDlg2.obj
 0001:000665e0       ?WorkerChatThread@@YAIPAX@Z 004675e0 f   ServerDlg2.obj
 0001:00066810       ?GetServerSocket@CServerDlg@@QAEPAVCSSocket@@PAVCIOCPBASE@@@Z 00467810 f   ServerDlg2.obj
 0001:000668c0       ?DBSocketConnect@CServerDlg@@QAEHXZ 004678c0 f   ServerDlg2.obj
 0001:000669d0       ?ZoneSocketConnect@CServerDlg@@QAEHXZ 004679d0 f   ServerDlg2.obj
 0001:00066ae0       ?DBAccountLoginResult@CServerDlg@@QAEXPADHH@Z 00467ae0 f   ServerDlg2.obj
 0001:00066b50       ?DBGameStartResult@CServerDlg@@QAEXPADHH@Z 00467b50 f   ServerDlg2.obj
 0001:00066e50       ?DBjobPhasor@CServerDlg@@QAEXPAVCSSocket@@PADH@Z 00467e50 f   ServerDlg2.obj
 0001:00066f30       ?Send2DBsvr@CServerDlg@@QAEXPADH@Z 00467f30 f   ServerDlg2.obj
 0001:00066f60       ?WorkerServerThread@@YAKPAX@Z 00467f60 f   ServerDlg2.obj
 0001:00067020       ?WorkerUserThread@@YAKPAX@Z 00468020 f   ServerDlg2.obj
 0001:000670f0       ?OnBnClickedQuanout@CServerDlg@@QAEXXZ 004680f0 f   ServerDlg2.obj
 0001:00067190       ?SetThreadCount@CIOCPBASE@@QAEXH@Z 00468190 f i ServerDlg2.obj
 0001:000671b0       ??_G__CHATDATAPACKET@@QAEPAXI@Z 004681b0 f i ServerDlg2.obj
 0001:000671b0       ??_G__SQLDATAPACKET@@QAEPAXI@Z 004681b0 f i ServerDlg2.obj
 0001:000671e0       ??1__CHATDATAPACKET@@QAE@XZ 004681e0 f i ServerDlg2.obj
 0001:000671e0       ??1__SQLDATAPACKET@@QAE@XZ 004681e0 f i ServerDlg2.obj
 0001:00067220       ?GetCompressionBufferPtr@CCompressManager@@QAEPADXZ 00468220 f i ServerDlg2.obj
 0001:00067240       ?GetExtractedBufferPtr@CCompressManager@@QAEPADXZ 00468240 f i ServerDlg2.obj
 0001:00067260       ?IsSocketAlive@CBSocket@@QAEHXZ 00468260 f i ServerDlg2.obj
 0001:00067280       ??0SERVERINFO@@QAE@XZ      00468280 f   SERVERINFO.obj
 0001:00067330       ??1SERVERINFO@@UAE@XZ      00468330 f   SERVERINFO.obj
 0001:00067410       ??_GSERVERINFO@@UAEPAXI@Z  00468410 f i SERVERINFO.obj
 0001:00067410       ??_ESERVERINFO@@UAEPAXI@Z  00468410 f i SERVERINFO.obj
 0001:00067440       ??0CSharedMemory@@QAE@XZ   00468440 f   SharedMemory.obj
 0001:00067480       ??0CSharedMemory@@QAE@IPBD@Z 00468480 f   SharedMemory.obj
 0001:000674d0       ??1CSharedMemory@@UAE@XZ   004684d0 f   SharedMemory.obj
 0001:000674f0       ?Create@CSharedMemory@@QAEHIPBD@Z 004684f0 f   SharedMemory.obj
 0001:00067580       ?Delete@CSharedMemory@@QAEXXZ 00468580 f   SharedMemory.obj
 0001:000675f0       ?Open@CSharedMemory@@QAEHPBDIH@Z 004685f0 f   SharedMemory.obj
 0001:00067670       ??_GCSharedMemory@@UAEPAXI@Z 00468670 f i SharedMemory.obj
 0001:00067670       ??_ECSharedMemory@@UAEPAXI@Z 00468670 f i SharedMemory.obj
 0001:000676a0       ??0CSharedQueue@@QAE@XZ    004686a0 f   SharedQueue.obj
 0001:000676c0       ??1CSharedQueue@@QAE@XZ    004686c0 f   SharedQueue.obj
 0001:000676e0       ?Create@CSharedQueue@@QAEHPBDH@Z 004686e0 f   SharedQueue.obj
 0001:00067790       ?Open@CSharedQueue@@QAEHPBD@Z 00468790 f   SharedQueue.obj
 0001:00067850       ?Release@CSharedQueue@@QAEHXZ 00468850 f   SharedQueue.obj
 0001:000678a0       ?GetQueue@CSharedQueue@@QAEHPAUQUEUE@@@Z 004688a0 f   SharedQueue.obj
 0001:00067920       ?PutQueue@CSharedQueue@@QAEHPAUQUEUE@@@Z 00468920 f   SharedQueue.obj
 0001:000679a0       ?IncQueuePos@CSharedQueue@@AAEXPAH@Z 004689a0 f   SharedQueue.obj
 0001:000679e0       ?IncFront@CSharedQueue@@AAEHXZ 004689e0 f   SharedQueue.obj
 0001:00067a20       ?IncRear@CSharedQueue@@AAEHXZ 00468a20 f   SharedQueue.obj
 0001:00067a70       ?IsExistData@CSharedQueue@@AAEHXZ 00468a70 f   SharedQueue.obj
 0001:00067aa0       ?IsFullData@CSharedQueue@@AAEHXZ 00468aa0 f   SharedQueue.obj
 0001:00067ae0       ??0_INSTANCE_DATA@@QAE@XZ  00468ae0 f   sinstance.obj
 0001:00067b00       ??1_INSTANCE_DATA@@QAE@XZ  00468b00 f   sinstance.obj
 0001:00067b30       ??0CInstanceChecker@@QAE@ABV?$CStringT@DV?$StrTraitMFC@DV?$ChTraitsCRT@D@ATL@@@@@ATL@@@Z 00468b30 f   sinstance.obj
 0001:00067bc0       ?ActivateChecker@CInstanceChecker@@QAEXXZ 00468bc0 f   sinstance.obj
 0001:00067c50       ??1CInstanceChecker@@UAE@XZ 00468c50 f   sinstance.obj
 0001:00067cd0       ?ReleaseLock@CInstanceChecker@@IAEXXZ 00468cd0 f   sinstance.obj
 0001:00067d20       ?TrackFirstInstanceRunning@CInstanceChecker@@QAEHXZ 00468d20 f   sinstance.obj
 0001:00067e30       ?PreviousInstanceRunning@CInstanceChecker@@QAEHXZ 00468e30 f   sinstance.obj
 0001:00067ea0       ?GetMMFFilename@CInstanceChecker@@MAE?AV?$CStringT@DV?$StrTraitMFC@DV?$ChTraitsCRT@D@ATL@@@@@ATL@@XZ 00468ea0 f   sinstance.obj
 0001:00067f30       ?GetWindowToTrack@CInstanceChecker@@MAEPAUHWND__@@XZ 00468f30 f   sinstance.obj
 0001:00067f50       ?ActivatePreviousInstance@CInstanceChecker@@QAEPAUHWND__@@XZ 00468f50 f   sinstance.obj
 0001:00068100       ??_GCInstanceChecker@@UAEPAXI@Z 00469100 f i sinstance.obj
 0001:00068100       ??_ECInstanceChecker@@UAEPAXI@Z 00469100 f i sinstance.obj
 0001:00068130       ??_GCSingleLock@@QAEPAXI@Z 00469130 f i sinstance.obj
 0001:00068160       ??1CSingleLock@@QAE@XZ     00469160 f i sinstance.obj
 0001:00068180       ?AfxGetAppName@@YGPBDXZ    00469180 f i sinstance.obj
 0001:00068190       ?AfxGetMainWnd@@YGPAVCWnd@@XZ 00469190 f i sinstance.obj
 0001:000681d0       ?GetLastActivePopup@CWnd@@QBEPAV1@XZ 004691d0 f i sinstance.obj
 0001:000681f0       ?SetForegroundWindow@CWnd@@QAEHXZ 004691f0 f i sinstance.obj
 0001:00068210       ??0CSkillTable@@QAE@XZ     00469210 f   SkillTable.obj
 0001:00068280       ??1CSkillTable@@QAE@XZ     00469280 f   SkillTable.obj
 0001:00068310       ?RemoveAll@CByteArray@@QAEXXZ 00469310 f i SkillTable.obj
 0001:00068330       ?GetRuntimeClass@CSkillTableSet@@UBEPAUCRuntimeClass@@XZ 00469330 f   SkillTableSet.obj
 0001:00068340       ??0CSkillTableSet@@QAE@PAVCDatabase@@@Z 00469340 f   SkillTableSet.obj
 0001:000683d0       ?GetDefaultConnect@CSkillTableSet@@UAE?AV?$CStringT@DV?$StrTraitMFC@DV?$ChTraitsCRT@D@ATL@@@@@ATL@@XZ 004693d0 f   SkillTableSet.obj
 0001:00068400       ?GetDefaultSQL@CSkillTableSet@@UAE?AV?$CStringT@DV?$StrTraitMFC@DV?$ChTraitsCRT@D@ATL@@@@@ATL@@XZ 00469400 f   SkillTableSet.obj
 0001:00068430       ?DoFieldExchange@CSkillTableSet@@UAEXPAVCFieldExchange@@@Z 00469430 f   SkillTableSet.obj
 0001:000684f0       ??_ECLevelUpTableSet@@UAEPAXI@Z 004694f0 f i LevelUpTableSet.obj
 0001:000684f0       ??_ECEBodyUpgradeTableSet@@UAEPAXI@Z 004694f0 f i EBodyUpgradeTableSet.obj
 0001:000684f0       ??_GCGuildMapInfoSet@@UAEPAXI@Z 004694f0 f i GuildMapInfoSet.obj
 0001:000684f0       ??_ECGuildFortressTaxSet@@UAEPAXI@Z 004694f0 f i GuildFortressTaxSet.obj
 0001:000684f0       ??_GCGuildFortressTaxSet@@UAEPAXI@Z 004694f0 f i GuildFortressTaxSet.obj
 0001:000684f0       ??_ECRecoverSet@@UAEPAXI@Z 004694f0 f i RecoverSet.obj
 0001:000684f0       ??_GCEBodyStoreSet@@UAEPAXI@Z 004694f0 f i EBodyStoreSet.obj
 0001:000684f0       ??_ECDressingSet@@UAEPAXI@Z 004694f0 f i DressingSet.obj
 0001:000684f0       ??_ECZoneInfoSet@@UAEPAXI@Z 004694f0 f i ZoneInfoSet.obj
 0001:000684f0       ??_ECRecoverRateSet@@UAEPAXI@Z 004694f0 f i RecoverRateSet.obj
 0001:000684f0       ??_GCPAMAExpSet@@UAEPAXI@Z 004694f0 f i PAMAExpSet.obj
 0001:000684f0       ??_GCDressingSet@@UAEPAXI@Z 004694f0 f i DressingSet.obj
 0001:000684f0       ??_ECNpcItemSet@@UAEPAXI@Z 004694f0 f i NpcItemSet.obj
 0001:000684f0       ??_GCZoneInfoSet@@UAEPAXI@Z 004694f0 f i ZoneInfoSet.obj
 0001:000684f0       ??_ECSkillTableSet@@UAEPAXI@Z 004694f0 f i SkillTableSet.obj
 0001:000684f0       ??_ECStoreSet@@UAEPAXI@Z   004694f0 f i StoreSet.obj
 0001:000684f0       ??_GCStoreRepairSet@@UAEPAXI@Z 004694f0 f i StoreRepairSet.obj
 0001:000684f0       ??_ECEBodyIdentifyTableSet@@UAEPAXI@Z 004694f0 f i EBodyIdentifyTableSet.obj
 0001:000684f0       ??_GCUserLevelUpSet@@UAEPAXI@Z 004694f0 f i UserLevelUpSet.obj
 0001:000684f0       ??_ECStoreSellSet@@UAEPAXI@Z 004694f0 f i StoreSellSet.obj
 0001:000684f0       ??_GCLevelUpTableSet@@UAEPAXI@Z 004694f0 f i LevelUpTableSet.obj
 0001:000684f0       ??_ECDNTableSet@@UAEPAXI@Z 004694f0 f i DNTableSet.obj
 0001:000684f0       ??_GCGuildHouseRankSet@@UAEPAXI@Z 004694f0 f i GuildHouseRankSet.obj
 0001:000684f0       ??_GCRecoverSet@@UAEPAXI@Z 004694f0 f i RecoverSet.obj
 0001:000684f0       ??_ECMechanicStoreSet@@UAEPAXI@Z 004694f0 f i MechanicStoreSet.obj
 0001:000684f0       ??_ECPsiStoreSet@@UAEPAXI@Z 004694f0 f i PsiStoreSet.obj
 0001:000684f0       ??_ECUserLevelUpSet@@UAEPAXI@Z 004694f0 f i UserLevelUpSet.obj
 0001:000684f0       ??_ECGuildHouseRankSet@@UAEPAXI@Z 004694f0 f i GuildHouseRankSet.obj
 0001:000684f0       ??_GCValItemTableSet@@UAEPAXI@Z 004694f0 f i ValItemTableSet.obj
 0001:000684f0       ??_ECStoreRepairSet@@UAEPAXI@Z 004694f0 f i StoreRepairSet.obj
 0001:000684f0       ??_GCMechanicStoreSet@@UAEPAXI@Z 004694f0 f i MechanicStoreSet.obj
 0001:000684f0       ??_GCEBodyIdentifyTableSet@@UAEPAXI@Z 004694f0 f i EBodyIdentifyTableSet.obj
 0001:000684f0       ??_GCGuildHouseSet@@UAEPAXI@Z 004694f0 f i GuildHouseSet.obj
 0001:000684f0       ??_GCStoreSellSet@@UAEPAXI@Z 004694f0 f i StoreSellSet.obj
 0001:000684f0       ??_GCNpcItemSet@@UAEPAXI@Z 004694f0 f i NpcItemSet.obj
 0001:000684f0       ??_ECGuildHouseSet@@UAEPAXI@Z 004694f0 f i GuildHouseSet.obj
 0001:000684f0       ??_GCEBodyUpgradeTableSet@@UAEPAXI@Z 004694f0 f i EBodyUpgradeTableSet.obj
 0001:000684f0       ??_GCStoreSet@@UAEPAXI@Z   004694f0 f i StoreSet.obj
 0001:000684f0       ??_ECValItemTableSet@@UAEPAXI@Z 004694f0 f i ValItemTableSet.obj
 0001:000684f0       ??_GCRecoverRateSet@@UAEPAXI@Z 004694f0 f i RecoverRateSet.obj
 0001:000684f0       ??_ECGuildMapInfoSet@@UAEPAXI@Z 004694f0 f i GuildMapInfoSet.obj
 0001:000684f0       ??_ECInitItemTableSet@@UAEPAXI@Z 004694f0 f i InitItemTableSet.obj
 0001:000684f0       ??_GCDNTableSet@@UAEPAXI@Z 004694f0 f i DNTableSet.obj
 0001:000684f0       ??_ECTownPotalTableSet@@UAEPAXI@Z 004694f0 f i TownPotalTableSet.obj
 0001:000684f0       ??_GCTownPotalTableSet@@UAEPAXI@Z 004694f0 f i TownPotalTableSet.obj
 0001:000684f0       ??_GCInitItemTableSet@@UAEPAXI@Z 004694f0 f i InitItemTableSet.obj
 0001:000684f0       ??_ECEBodyStoreSet@@UAEPAXI@Z 004694f0 f i EBodyStoreSet.obj
 0001:000684f0       ??_ECPAMAExpSet@@UAEPAXI@Z 004694f0 f i PAMAExpSet.obj
 0001:000684f0       ??_GCPsiStoreSet@@UAEPAXI@Z 004694f0 f i PsiStoreSet.obj
 0001:000684f0       ??_GCSkillTableSet@@UAEPAXI@Z 004694f0 f i SkillTableSet.obj
 0001:00068520       ??0CSocketManager@@QAE@XZ  00469520 f   SocketManager.obj
 0001:00068540       ??1CSocketManager@@QAE@XZ  00469540 f   SocketManager.obj
 0001:00068560       ??0CSockResourceArray@@QAE@J@Z 00469560 f   SResourceArray.obj
 0001:00068590       ??1CSockResourceArray@@UAE@XZ 00469590 f   SResourceArray.obj
 0001:000685b0       ?GetResourceHandle@CSockResourceArray@@UAEJXZ 004695b0 f   SResourceArray.obj
 0001:00068640       ?ReleaseResourceHandle@CSockResourceArray@@UAEXJ@Z 00469640 f   SResourceArray.obj
 0001:00068690       ?GetUsedResourceCount@CSockResourceArray@@QAEHXZ 00469690 f   SResourceArray.obj
 0001:00068700       ?SetFree@CSockResourceArray@@UAEXJ@Z 00469700 f   SResourceArray.obj
 0001:00068750       ?TimeOutSetFree@CSockResourceArray@@UAEHJ@Z 00469750 f   SResourceArray.obj
 0001:000687b0       ??_GCSockResourceArray@@UAEPAXI@Z 004697b0 f i SResourceArray.obj
 0001:000687b0       ??_ECSockResourceArray@@UAEPAXI@Z 004697b0 f i SResourceArray.obj
 0001:000687e0       ?SetIOPendingEnableFlag@CBSocket@@QAEXH@Z 004697e0 f i SResourceArray.obj
 0001:00068810       ??0CSSocket@@QAE@PAVCIOCPBASE@@@Z 00469810 f   SSocket.obj
 0001:00068840       ??1CSSocket@@UAE@XZ        00469840 f   SSocket.obj
 0001:00068860       ?Init@CSSocket@@UAEHH@Z    00469860 f   SSocket.obj
 0001:000688c0       ?Send@CSSocket@@QAEHPADH@Z 004698c0 f   SSocket.obj
 0001:000688e0       ?Send@CSSocket@@QAEHHPAD@Z 004698e0 f   SSocket.obj
 0001:00068b00       ?OnSend@CSSocket@@UAEXH@Z  00469b00 f   SSocket.obj
 0001:00068b40       ?StopAction@CSSocket@@UAEXXZ 00469b40 f   SSocket.obj
 0001:00068b50       ?OnClose@CSSocket@@UAEXH@Z 00469b50 f   SSocket.obj
 0001:00068b70       ?AcceptProcess@CSSocket@@QAEHXZ 00469b70 f   SSocket.obj
 0001:00068b80       ?SockCloseProcess@CSSocket@@UAEHH@Z 00469b80 f   SSocket.obj
 0001:00068ba0       ?SocketDisConnect@CSSocket@@UAEHXZ 00469ba0 f   SSocket.obj
 0001:00068bc0       ?GetPeerName@CSSocket@@QAEHAAV?$CStringT@DV?$StrTraitMFC@DV?$ChTraitsCRT@D@ATL@@@@@ATL@@AAI@Z 00469bc0 f   SSocket.obj
 0001:00068c10       ?AutomataServer@CSSocket@@QAEXPADH@Z 00469c10 f   SSocket.obj
 0001:00069440       ?SoftClose@CSSocket@@QAEXXZ 0046a440 f   SSocket.obj
 0001:00069460       ??_GCSSocket@@UAEPAXI@Z    0046a460 f i SSocket.obj
 0001:00069460       ??_ECSSocket@@UAEPAXI@Z    0046a460 f i SSocket.obj
 0001:00069490       ??0CStore@@QAE@XZ          0046a490 f   Store.obj
 0001:000695e0       ??1CStore@@QAE@XZ          0046a5e0 f   Store.obj
 0001:000696a0       ?IsCanSell@CStore@@QAEHF@Z 0046a6a0 f   Store.obj
 0001:00069710       ?IsCanBuyPsi@CStore@@QAEHPAV1@H@Z 0046a710 f   Store.obj
 0001:000697f0       ?IsCanRepair@CStore@@QAEHF@Z 0046a7f0 f   Store.obj
 0001:00069860       ?InitStoreInfo@CStore@@QAEXH@Z 0046a860 f   Store.obj
 0001:000699d0       ?StrToGuildList@CStore@@QAEXPAD@Z 0046a9d0 f   Store.obj
 0001:00069a40       ?GuildListToStr@CStore@@QAEXPAD@Z 0046aa40 f   Store.obj
 0001:00069a90       ?UpdateGuildStore@CStore@@QAEHXZ 0046aa90 f   Store.obj
 0001:00069c70       ?SetGuildStoreTex@CStore@@QAEXXZ 0046ac70 f   Store.obj
 0001:00069c80       ?IsCanBuy@CStore@@QAEHF@Z  0046ac80 f   Store.obj
 0001:00069d00       ??0COleDateTimeSpan@ATL@@QAE@N@Z 0046ad00 f i Store.obj
 0001:00069d30       ?CheckRange@COleDateTimeSpan@ATL@@QAEXXZ 0046ad30 f i Store.obj
 0001:00069d70       ??YCOleDateTime@ATL@@QAEAAV01@VCOleDateTimeSpan@1@@Z 0046ad70 f i Store.obj
 0001:00069db0       ??BCOleDateTimeSpan@ATL@@QBENXZ 0046adb0 f i Store.obj
 0001:00069dc0       ?DoubleFromDate@COleDateTime@ATL@@KGNN@Z 0046adc0 f i Store.obj
 0001:00069e00       ?DateFromDouble@COleDateTime@ATL@@KGNN@Z 0046ae00 f i Store.obj
 0001:00069e40       ?GetRuntimeClass@CStoreRepairSet@@UBEPAUCRuntimeClass@@XZ 0046ae40 f   StoreRepairSet.obj
 0001:00069e50       ??0CStoreRepairSet@@QAE@PAVCDatabase@@@Z 0046ae50 f   StoreRepairSet.obj
 0001:00069eb0       ?GetDefaultConnect@CStoreRepairSet@@UAE?AV?$CStringT@DV?$StrTraitMFC@DV?$ChTraitsCRT@D@ATL@@@@@ATL@@XZ 0046aeb0 f   StoreRepairSet.obj
 0001:00069ee0       ?GetDefaultSQL@CStoreRepairSet@@UAE?AV?$CStringT@DV?$StrTraitMFC@DV?$ChTraitsCRT@D@ATL@@@@@ATL@@XZ 0046aee0 f   StoreRepairSet.obj
 0001:00069f10       ?DoFieldExchange@CStoreRepairSet@@UAEXPAVCFieldExchange@@@Z 0046af10 f   StoreRepairSet.obj
 0001:00069f60       ?GetRuntimeClass@CStoreSellSet@@UBEPAUCRuntimeClass@@XZ 0046af60 f   StoreSellSet.obj
 0001:00069f70       ??0CStoreSellSet@@QAE@PAVCDatabase@@@Z 0046af70 f   StoreSellSet.obj
 0001:00069fd0       ?GetDefaultConnect@CStoreSellSet@@UAE?AV?$CStringT@DV?$StrTraitMFC@DV?$ChTraitsCRT@D@ATL@@@@@ATL@@XZ 0046afd0 f   StoreSellSet.obj
 0001:0006a000       ?GetDefaultSQL@CStoreSellSet@@UAE?AV?$CStringT@DV?$StrTraitMFC@DV?$ChTraitsCRT@D@ATL@@@@@ATL@@XZ 0046b000 f   StoreSellSet.obj
 0001:0006a030       ?DoFieldExchange@CStoreSellSet@@UAEXPAVCFieldExchange@@@Z 0046b030 f   StoreSellSet.obj
 0001:0006a080       ?GetRuntimeClass@CStoreSet@@UBEPAUCRuntimeClass@@XZ 0046b080 f   StoreSet.obj
 0001:0006a090       ??0CStoreSet@@QAE@PAVCDatabase@@@Z 0046b090 f   StoreSet.obj
 0001:0006a0f0       ?GetDefaultConnect@CStoreSet@@UAE?AV?$CStringT@DV?$StrTraitMFC@DV?$ChTraitsCRT@D@ATL@@@@@ATL@@XZ 0046b0f0 f   StoreSet.obj
 0001:0006a120       ?GetDefaultSQL@CStoreSet@@UAE?AV?$CStringT@DV?$StrTraitMFC@DV?$ChTraitsCRT@D@ATL@@@@@ATL@@XZ 0046b120 f   StoreSet.obj
 0001:0006a150       ?DoFieldExchange@CStoreSet@@UAEXPAVCFieldExchange@@@Z 0046b150 f   StoreSet.obj
 0001:0006a1a0       ??0CSummonTable@@QAE@XZ    0046b1a0 f   SummonTable.obj
 0001:0006a220       ??1CSummonTable@@UAE@XZ    0046b220 f   SummonTable.obj
 0001:0006a240       ??_ECSummonTable@@UAEPAXI@Z 0046b240 f i SummonTable.obj
 0001:0006a240       ??_GCSummonTable@@UAEPAXI@Z 0046b240 f i SummonTable.obj
 0001:0006a270       ??0TableItem@@QAE@XZ       0046b270 f   TableItem.obj
 0001:0006a290       ??1TableItem@@UAE@XZ       0046b290 f   TableItem.obj
 0001:0006a2b0       ?GetData@TableItem@@QAEHPADAAH@Z 0046b2b0 f   TableItem.obj
 0001:0006a570       ??_ETableItem@@UAEPAXI@Z   0046b570 f i TableItem.obj
 0001:0006a570       ??_GTableItem@@UAEPAXI@Z   0046b570 f i TableItem.obj
 0001:0006a5a0       ??0CThrowItem@@QAE@XZ      0046b5a0 f   ThrowItem.obj
 0001:0006a5d0       ??1CThrowItem@@UAE@XZ      0046b5d0 f   ThrowItem.obj
 0001:0006a610       ??_ECThrowItem@@UAEPAXI@Z  0046b610 f i ThrowItem.obj
 0001:0006a610       ??_GCThrowItem@@UAEPAXI@Z  0046b610 f i ThrowItem.obj
 0001:0006a640       ?GetRuntimeClass@CTownPotalTableSet@@UBEPAUCRuntimeClass@@XZ 0046b640 f   TownPotalTableSet.obj
 0001:0006a650       ??0CTownPotalTableSet@@QAE@PAVCDatabase@@@Z 0046b650 f   TownPotalTableSet.obj
 0001:0006a6f0       ?GetDefaultConnect@CTownPotalTableSet@@UAE?AV?$CStringT@DV?$StrTraitMFC@DV?$ChTraitsCRT@D@ATL@@@@@ATL@@XZ 0046b6f0 f   TownPotalTableSet.obj
 0001:0006a720       ?GetDefaultSQL@CTownPotalTableSet@@UAE?AV?$CStringT@DV?$StrTraitMFC@DV?$ChTraitsCRT@D@ATL@@@@@ATL@@XZ 0046b720 f   TownPotalTableSet.obj
 0001:0006a750       ?DoFieldExchange@CTownPotalTableSet@@UAEXPAVCFieldExchange@@@Z 0046b750 f   TownPotalTableSet.obj
 0001:0006a810       ??0UNI_CHAR@@QAE@XZ        0046b810 f   UNI_CHAR.obj
 0001:0006a830       ??1UNI_CHAR@@UAE@XZ        0046b830 f   UNI_CHAR.obj
 0001:0006a850       ?CheckString@UNI_CHAR@@SAHV?$CStringT@DV?$StrTraitMFC@DV?$ChTraitsCRT@D@ATL@@@@@ATL@@@Z 0046b850 f   UNI_CHAR.obj
 0001:0006aa40       ?CheckUNIChar@UNI_CHAR@@KAHVCVJ@1@@Z 0046ba40 f   UNI_CHAR.obj
 0001:0006aa80       ?UNIDivChar@UNI_CHAR@@KA?AVCVJ@1@PAD@Z 0046ba80 f   UNI_CHAR.obj
 0001:0006ab80       ??_EUNI_CHAR@@UAEPAXI@Z    0046bb80 f i UNI_CHAR.obj
 0001:0006ab80       ??_GUNI_CHAR@@UAEPAXI@Z    0046bb80 f i UNI_CHAR.obj
 0001:0006abb0       ?GetAt@?$CSimpleStringT@D$0A@@ATL@@QBEDH@Z 0046bbb0 f i UNI_CHAR.obj
 0001:0006abb0       ??A?$CSimpleStringT@D$0A@@ATL@@QBEDH@Z 0046bbb0 f i USER.obj
 0001:0006abf0       ??0CUserResourceArray@@QAE@J@Z 0046bbf0 f   UResourceArray.obj
 0001:0006ac20       ??1CUserResourceArray@@UAE@XZ 0046bc20 f   UResourceArray.obj
 0001:0006ac40       ?GetResourceHandle@CUserResourceArray@@UAEJXZ 0046bc40 f   UResourceArray.obj
 0001:0006acd0       ?ReleaseResourceHandle@CUserResourceArray@@UAEXJ@Z 0046bcd0 f   UResourceArray.obj
 0001:0006ad20       ?GetUsedResourceCount@CUserResourceArray@@QAEHXZ 0046bd20 f   UResourceArray.obj
 0001:0006ad90       ?SetFree@CUserResourceArray@@UAEXJ@Z 0046bd90 f   UResourceArray.obj
 0001:0006add0       ?TimeOutSetFree@CUserResourceArray@@UAEHJ@Z 0046bdd0 f   UResourceArray.obj
 0001:0006ae10       ??_GCUserResourceArray@@UAEPAXI@Z 0046be10 f i UResourceArray.obj
 0001:0006ae10       ??_ECUserResourceArray@@UAEPAXI@Z 0046be10 f i UResourceArray.obj
 0001:0006ae40       ?SaveDump@@YAXPADH@Z       0046be40 f   USER.obj
 0001:0006aec0       ?init_encode@USER@@QAEX_J@Z 0046bec0 f   USER.obj
 0001:0006af10       ?Encode_Decode@USER@@QAEXPAD0HH@Z 0046bf10 f   USER.obj
 0001:0006afc0       ?ClearAbnormalTime@USER@@QAEXK@Z 0046bfc0 f   USER.obj
 0001:0006b1d0       ??0USER@@QAE@XZ            0046c1d0 f   USER.obj
 0001:0006b460       ??1USER@@UAE@XZ            0046c460 f   USER.obj
 0001:0006b740       ?Init@USER@@UAEHH@Z        0046c740 f   USER.obj
 0001:0006b8d0       ?InitUser@USER@@QAEHXZ     0046c8d0 f   USER.obj
 0001:0006c6b0       ?InitEventSlot@USER@@QAEXXZ 0046d6b0 f   USER.obj
 0001:0006c750       ?InitUserItem@USER@@QAEXXZ 0046d750 f   USER.obj
 0001:0006c890       ?InitUserBankItem@USER@@QAEXXZ 0046d890 f   USER.obj
 0001:0006c990       ?InitAccountBankItem@USER@@QAEXXZ 0046d990 f   USER.obj
 0001:0006ca90       ?InitGuildItem@USER@@QAEXXZ 0046da90 f   USER.obj
 0001:0006cb90       ?GetUser@USER@@QAEPAV1@H@Z 0046db90 f   USER.obj
 0001:0006cbd0       ?GetUser@USER@@QAEPAV1@PAD@Z 0046dbd0 f   USER.obj
 0001:0006cd00       ?GetNpc@USER@@QAEPAVCNpc@@H@Z 0046dd00 f   USER.obj
 0001:0006cd40       ?GetNpc@USER@@QAEPAVCNpc@@PAD@Z 0046dd40 f   USER.obj
 0001:0006cdd0       ?NoEncodeSend@USER@@QAEHHPAD@Z 0046ddd0 f   USER.obj
 0001:0006ce20       ?Send@USER@@QAEXPADH@Z     0046de20 f   USER.obj
 0001:0006d090       ?ProcessData@USER@@QAEXPADH@Z 0046e090 f   USER.obj
 0001:0006d3a0       ?PullOutCore@USER@@IAEHAAH0@Z 0046e3a0 f   USER.obj
 0001:0006d630       ?Parse@USER@@IAEXHPADAAH@Z 0046e630 f   USER.obj
 0001:0006e4a0       ?ViewUserItem@USER@@QAEXPAD@Z 0046f4a0 f   USER.obj
 0001:0006e6e0       ?Face_painting@USER@@QAEXPADH@Z 0046f6e0 f   USER.obj
 0001:0006e9a0       ?DianGuangChat@USER@@QAEXPADH@Z 0046f9a0 f   USER.obj
 0001:0006ed20       ?CheckSessionLoginReq@USER@@IAEHPAD0AAH@Z 0046fd20 f   USER.obj
 0001:0006ef90       ?IsDoubleAccount@USER@@QAEHPAD@Z 0046ff90 f   USER.obj
 0001:0006f120       ?SessionLoginReq@USER@@IAEXPAD@Z 00470120 f   USER.obj
 0001:0006f2e0       ?NewAccountReq@USER@@IAEXPAD@Z 004702e0 f   USER.obj
 0001:0006f810       ?LoadCharData@USER@@IAEHPAD@Z 00470810 f   USER.obj
 0001:0006fc10       ?SendCharInfo@USER@@IAEHPAD0AAH@Z 00470c10 f   USER.obj
 0001:000707a0       ?IsExistCharId@USER@@IAEHPAD@Z 004717a0 f   USER.obj
 0001:000709b0       ?GameStart@USER@@QAEXPAD@Z 004719b0 f   USER.obj
 0001:00071030       ?SetGameStartInfo@USER@@IAEXXZ 00472030 f   USER.obj
 0001:000710d0       ?GetMagicItemSetting@USER@@QAEXXZ 004720d0 f   USER.obj
 0001:00071b30       ?GetMagicItemSetting_38@USER@@QAEXXZ 00472b30 f   USER.obj
 0001:00071fc0       ?GetSkillSetting_130@USER@@QAEXXZ 00472fc0 f   USER.obj
 0001:00072c50       ?FuShou_Attack@USER@@QAEXXZ 00473c50 f   USER.obj
 0001:00073750       ?GetGuiIdMagic@USER@@QAEXXZ 00474750 f   USER.obj
 0001:00073af0       ?GetMagicItem_100@USER@@QAEHE@Z 00474af0 f   USER.obj
 0001:00073be0       ?LogOut@USER@@QAEXXZ       00474be0 f   USER.obj
 0001:00073f80       ?ZoneLogOut@USER@@QAEXHHH@Z 00474f80 f   USER.obj
 0001:00074350       ?UpdateUserData@USER@@QAEHH@Z 00475350 f   USER.obj
 0001:00074ea0       ?UpdateUserExchangeData@USER@@QAEHPAV1@@Z 00475ea0 f   USER.obj
 0001:000751b0       ?LoadUserData@USER@@IAEHPAD@Z 004761b0 f   USER.obj
 0001:00077a30       ?LoadVIPPayData@USER@@QAEHXZ 00478a30 f   USER.obj
 0001:00077e40       ?LoadMarkPayData@USER@@QAEHXZ 00478e40 f   USER.obj
 0001:00078250       ?StrToHaveEventData@USER@@QAEXPAD@Z 00479250 f   USER.obj
 0001:00078310       ?UserHaveEventDataToStr@USER@@QAEXPAD@Z 00479310 f   USER.obj
 0001:000783b0       ?SetGuildVariable@USER@@QAEXXZ 004793b0 f   USER.obj
 0001:00078580       ?CheckGuildWar@USER@@QAEXXZ 00479580 f   USER.obj
 0001:000787f0       ?GetRecoverySpeed@USER@@QAEXXZ 004797f0 f   USER.obj
 0001:00078a80       ?IsZoneInThisServer@USER@@IAEHH@Z 00479a80 f   USER.obj
 0001:00078ae0       ?ChangeServer@USER@@IAEXH@Z 00479ae0 f   USER.obj
 0001:00078c60       ?SetZoneIndex@USER@@IAEXH@Z 00479c60 f   USER.obj
 0001:00078cc0       ?SightRecalc@USER@@IAEXXZ  00479cc0 f   USER.obj
 0001:00078ec0       ?SendUserInfoBySightChange@USER@@QAEXHHHH@Z 00479ec0 f   USER.obj
 0001:00079540       ?SendCompressedRangeInfoToMe@USER@@QAEXXZ 0047a540 f   USER.obj
 0001:000797e0       ?UserInfoReq@USER@@QAEXPAD@Z 0047a7e0 f   USER.obj
 0001:00079900       ?IsInSight@USER@@QAEHHHH@Z 0047a900 f   USER.obj
 0001:00079a40       ?SendNpcInfo@USER@@QAEXPAVCNpc@@E@Z 0047aa40 f   USER.obj
 0001:00079dc0       ?MakeRangeInfoToMe@USER@@QAEHPAVCNpc@@EPAD@Z 0047adc0 f   USER.obj
 0001:0007a280       ?GetGuildWarWin@USER@@QAEPAVCGuildFortress@@XZ 0047b280 f   USER.obj
 0001:0007a310       ?AddRangeInfoToMe@USER@@QAEXPAVCNpc@@E@Z 0047b310 f   USER.obj
 0001:0007a430       ?SendUserInfo@USER@@QAEXPAV1@E@Z 0047b430 f   USER.obj
 0001:0007a7d0       ?MakeRangeInfoToMe@USER@@QAEHPAV1@EPAD@Z 0047b7d0 f   USER.obj
 0001:0007ac80       ?AddRangeInfoToMe@USER@@QAEXPAV1@E@Z 0047bc80 f   USER.obj
 0001:0007adb0       ?SendCharData@USER@@QAEXXZ 0047bdb0 f   USER.obj
 0001:0007b6c0       ?SendMyInfo@USER@@QAEXEE@Z 0047c6c0 f   USER.obj
 0001:0007ba90       ?SendAll@USER@@QAEXPADH@Z  0047ca90 f   USER.obj
 0001:0007bb50       ?SendZone@USER@@QAEXPADH@Z 0047cb50 f   USER.obj
 0001:0007bc20       ?SendRange@USER@@QAEXPADHVCRect@@@Z 0047cc20 f   USER.obj
 0001:0007bd20       ?SendInsight@USER@@QAEXPADH@Z 0047cd20 f   USER.obj
 0001:0007be20       ?SendExactScreen@USER@@QAEXPADH@Z 0047ce20 f   USER.obj
 0001:0007bf20       ?SendScreen@USER@@QAEXPADH@Z 0047cf20 f   USER.obj
 0001:0007c000       ?ChangeDir@USER@@QAEXPAD@Z 0047d000 f   USER.obj
 0001:0007c0f0       ?GetDirection@USER@@QAEHVCPoint@@0H@Z 0047d0f0 f   USER.obj
 0001:0007c450       ?MoveFirstReq@USER@@IAEXPAD@Z 0047d450 f   USER.obj
 0001:0007c640       ?MoveReq@USER@@IAEXPAD@Z   0047d640 f   USER.obj
 0001:0007c830       ?MoveEndReq@USER@@IAEXPAD@Z 0047d830 f   USER.obj
 0001:0007ca20       ?MoveChatReq@USER@@IAEXPADH@Z 0047da20 f   USER.obj
 0001:0007ccc0       ?MopCatchReq@USER@@QAEXPAD@Z 0047dcc0 f   USER.obj
 0001:0007cfb0       ?UserCallReq@USER@@QAEXPAD@Z 0047dfb0 f   USER.obj
 0001:0007d480       ?UserRemoteCallReq@USER@@QAEXPAD@Z 0047e480 f   USER.obj
 0001:0007da20       ?FindNearRandomPoint@USER@@QAE?AVCPoint@@HH@Z 0047ea20 f   USER.obj
 0001:0007dfa0       ?Move_C@USER@@IAEHHHH@Z    0047efa0 f   USER.obj
 0001:0007e180       ?IsMovable_S@USER@@QAEHHH@Z 0047f180 f   USER.obj
 0001:0007e4f0       ?IsMovable_S@USER@@QAEHHHH@Z 0047f4f0 f   USER.obj
 0001:0007e850       ?GetDistance@USER@@QAEHHHHPAH@Z 0047f850 f   USER.obj
 0001:0007e940       ?RunFirstReq@USER@@IAEXPAD@Z 0047f940 f   USER.obj
 0001:0007ec90       ?RunReq@USER@@IAEXPAD@Z    0047fc90 f   USER.obj
 0001:0007efe0       ?RunEndReq@USER@@IAEXPAD@Z 0047ffe0 f   USER.obj
 0001:0007f360       ?GetSP@USER@@QAEFXZ        00480360 f   USER.obj
 0001:0007f5f0       ?CheckRecoverTableByClass@USER@@IAEHXZ 004805f0 f   USER.obj
 0001:0007f630       ?DecSP@USER@@QAEFF@Z       00480630 f   USER.obj
 0001:0007f680       ?SendSP@USER@@QAEXH@Z      00480680 f   USER.obj
 0001:0007f770       ?ChatReqWithLength@USER@@QAEXPADH@Z 00480770 f   USER.obj
 0001:0007fca0       ?ChatReqWithThread@USER@@IAEXHPAD@Z 00480ca0 f   USER.obj
 0001:0007fe60       ?SendPKCount@USER@@QAEXXZ  00480e60 f   USER.obj
 0001:0007fef0       ?SendAllChat@USER@@QAEXPAD@Z 00480ef0 f   USER.obj
 0001:0007fff0       ?MopCallReq@USER@@QAEXPAD@Z 00480ff0 f   USER.obj
 0001:00080130       ?NormalChat@USER@@IAEXPAD@Z 00481130 f   USER.obj
 0001:000803d0       ?WhisperChat@USER@@IAEXPADH@Z 004813d0 f   USER.obj
 0001:000807a0       ?ShoutChat@USER@@IAEXPAD@Z 004817a0 f   USER.obj
 0001:00080a30       ?WhisperOnOff@USER@@IAEXPAD@Z 00481a30 f   USER.obj
 0001:00080b30       ?FindUserReq@USER@@IAEXPAD@Z 00481b30 f   USER.obj
 0001:00080c70       ?BuddyChat@USER@@QAEXPAD@Z 00481c70 f   USER.obj
 0001:00080e60       ?SetBuddyMode@USER@@QAEXPAD@Z 00481e60 f   USER.obj
 0001:00080e70       ?SetItemMode@USER@@QAEXPAD@Z 00481e70 f   USER.obj
 0001:00080ef0       ?IsThereUser@USER@@QAEHPAV1@@Z 00481ef0 f   USER.obj
 0001:00080fb0       ?BuddyUserChange@USER@@QAEXPADEH@Z 00481fb0 f   USER.obj
 0001:00081650       ?SendBuddyUserChange@USER@@QAEXEH@Z 00482650 f   USER.obj
 0001:00081b90       ?SendBuddyUserLeave@USER@@QAEXH@Z 00482b90 f   USER.obj
 0001:00082360       ?SendBBSError@USER@@QAEXE@Z 00483360 f   USER.obj
 0001:000823f0       ?BBSOpen@USER@@IAEXH@Z     004833f0 f   USER.obj
 0001:000829d0       ?BBSNext@USER@@QAEXPAD@Z   004839d0 f   USER.obj
 0001:00083000       ?BBSRead@USER@@QAEXPAD@Z   00484000 f   USER.obj
 0001:00083680       ?BBSWrite@USER@@QAEXPAD@Z  00484680 f   USER.obj
 0001:00083a70       ?BBSEdit@USER@@QAEXPAD@Z   00484a70 f   USER.obj
 0001:00083f70       ?MailInfoReq@USER@@QAEXPAD@Z 00484f70 f   USER.obj
 0001:00084040       ?MailSendReq@USER@@QAEXPAD@Z 00485040 f   USER.obj
 0001:00084810       ?MailListReq@USER@@QAEXPAD@Z 00485810 f   USER.obj
 0001:000848a0       ?MailGetList@USER@@QAEHPADHHAAH@Z 004858a0 f   USER.obj
 0001:00084ea0       ?MailGetInfo@USER@@QAEEPADAAH@Z 00485ea0 f   USER.obj
 0001:000851d0       ?MailContentReq@USER@@QAEXPAD@Z 004861d0 f   USER.obj
 0001:000857a0       ?MailDeleteReq@USER@@QAEXPAD@Z 004867a0 f   USER.obj
 0001:00085c40       ?InsertLoveName@USER@@QAEXPAD@Z 00486c40 f   USER.obj
 0001:000860c0       ?BBSDelete@USER@@QAEXPAD@Z 004870c0 f   USER.obj
 0001:000863e0       ?GetAttack@USER@@QAEHXZ    004873e0 f   USER.obj
 0001:00086400       ?GetDefense@USER@@QAEHPAF@Z 00487400 f   USER.obj
 0001:000865f0       ?GetIronSkill@USER@@QAENXZ 004875f0 f   USER.obj
 0001:000867a0       ?SetDamage@USER@@QAEXH@Z   004877a0 f   USER.obj
 0001:000868b0       ?Dead@USER@@IAEXXZ         004878b0 f   USER.obj
 0001:00086bc0       ?GetLevelDownExp@USER@@QAEXHHHPAD@Z 00487bc0 f   USER.obj
 0001:00088280       ?DropItemFromDeadUser@USER@@QAEXHH@Z 00489280 f   USER.obj
 0001:00088bb0       ?SendPP@USER@@QAEXH@Z      00489bb0 f   USER.obj
 0001:00088c80       ?GetPP@USER@@QAEFXZ        00489c80 f   USER.obj
 0001:00088f10       ?PsiAttack@USER@@QAEXPAD@Z 00489f10 f   USER.obj
 0001:00089df0       ?IsException@USER@@QAEHHEVCPoint@@@Z 0048adf0 f   USER.obj
 0001:0008a560       ?SendPsiAttackResult@USER@@QAEXEHE@Z 0048b560 f   USER.obj
 0001:0008a920       ?Attack@USER@@QAEXPAD@Z    0048b920 f   USER.obj
 0001:0008c920       ?SendDamagedItem@USER@@QAEHH@Z 0048d920 f   USER.obj
 0001:0008c9c0       ?GetCounterAttack@USER@@QAEHXZ 0048d9c0 f   USER.obj
 0001:0008c9f0       ?CheckBuddyMember@USER@@QAEHPAD@Z 0048d9f0 f   USER.obj
 0001:0008cac0       ?GetExp@USER@@QAEXK@Z      0048dac0 f   USER.obj
 0001:0008cef0       ?GetExpBuddy@USER@@QAEXH@Z 0048def0 f   USER.obj
 0001:0008d2a0       ?GetExpCommon@USER@@QAEXH@Z 0048e2a0 f   USER.obj
 0001:0008da10       ?SendExp@USER@@QAEXH@Z     0048ea10 f   USER.obj
 0001:0008db00       ?UserStatusSkillUp@USER@@QAEXPAD@Z 0048eb00 f   USER.obj
 0001:0008e030       ?SendUserStatusSkill@USER@@QAEXXZ 0048f030 f   USER.obj
 0001:0008e400       ?GetUserSpellAttack@USER@@QAEFXZ 0048f400 f   USER.obj
 0001:0008e780       ?GetUserSpellDefence@USER@@QAEFXZ 0048f780 f   USER.obj
 0001:0008e940       ?CheckSkillClass@USER@@QAEHF@Z 0048f940 f   USER.obj
 0001:0008e9a0       ?SendAttackFail@USER@@QAEXE@Z 0048f9a0 f   USER.obj
 0001:0008ea40       ?SendAttackMiss@USER@@QAEXH@Z 0048fa40 f   USER.obj
 0001:0008eaf0       ?SendAttackSuccess@USER@@QAEXHHFF@Z 0048faf0 f   USER.obj
 0001:0008ec10       ?LiveCity@USER@@QAEHHHE@Z  0048fc10 f   USER.obj
 0001:0008ed90       ?LiveReq@USER@@QAEXPADE@Z  0048fd90 f   USER.obj
 0001:0008f540       ?RevivalReq@USER@@QAEXPAD@Z 00490540 f   USER.obj
 0001:0008ff90       ?GetSkillName@USER@@IAEHHAAV?$CStringT@DV?$StrTraitMFC@DV?$ChTraitsCRT@D@ATL@@@@@ATL@@@Z 00490f90 f   USER.obj
 0001:0008ffb0       ?GetSkillNameLevel@USER@@IAEHEPAD0@Z 00490fb0 f   USER.obj
 0001:00090080       ?GetEquipItemPid@USER@@IAEHPAD0@Z 00491080 f   USER.obj
 0001:00090310       ?MakeEmptySkill@USER@@QAEXPADE@Z 00491310 f   USER.obj
 0001:00090370       ?MakeInintItem@USER@@QAEXPADE@Z 00491370 f   USER.obj
 0001:00090660       ?MakeEmptyPsi@USER@@QAEXPAD@Z 00491660 f   USER.obj
 0001:000906a0       ?GetNextPAMAExp@USER@@QAEKK@Z 004916a0 f   USER.obj
 0001:00090710       ?GetNextLevel@USER@@QAEKH@Z 00491710 f   USER.obj
 0001:00090750       ?GetSkillInfo@USER@@QAEXHAAE@Z 00491750 f   USER.obj
 0001:00090760       ?GetSkillRate@USER@@QAEEEHH@Z 00491760 f   USER.obj
 0001:00090780       ?SetTradeMode@USER@@IAEXPAD@Z 00491780 f   USER.obj
 0001:00090790       ?ItemMoveReq@USER@@IAEXPAD@Z 00491790 f   USER.obj
 0001:000922e0       ?CheckMagicItemMove@USER@@QAEXXZ 004932e0 f   USER.obj
 0001:00092bc0       ?IsCanEquipItem@USER@@QAEHH@Z 00493bc0 f   USER.obj
 0001:00092fa0       ?ReSetItemSlot@USER@@QAEXPAVItemList@@@Z 00493fa0 f   USER.obj
 0001:00093050       ?SendItemMoveFail@USER@@IAEXXZ 00494050 f   USER.obj
 0001:000930e0       ?GetSlotClass@USER@@QAEHHHH@Z 004940e0 f   USER.obj
 0001:00093130       ?GetEmptySlot@USER@@QAEHH@Z 00494130 f   USER.obj
 0001:000932a0       ?GetSameItem@USER@@QAEHVItemList@@H@Z 004942a0 f   USER.obj
 0001:00093960       ?SendQuickChange@USER@@QAEXXZ 00494960 f   USER.obj
 0001:00093970       ?ItemUseReq@USER@@QAEXPAD@Z 00494970 f   USER.obj
 0001:00095a90       ?CheckLottery@USER@@QAEKXZ 00496a90 f   USER.obj
 0001:00095c80       ?LoadGuildLevel@USER@@QAEHXZ 00496c80 f   USER.obj
 0001:00095e90       ?UpdateGuildLevel@USER@@QAEHH@Z 00496e90 f   USER.obj
 0001:000960e0       ?GetItemFieldNum@USER@@QAEHH@Z 004970e0 f   USER.obj
 0001:000962e0       ?ItemGiveReq@USER@@QAEXPAD@Z 004972e0 f   USER.obj
 0001:000963c0       ?GiveMoneyToUser@USER@@QAEXPAD@Z 004973c0 f   USER.obj
 0001:00096990       ?GiveItemToUser@USER@@QAEXPAD@Z 00497990 f   USER.obj
 0001:00097ee0       ?GiveMoneyToMap@USER@@QAEXPAD@Z 00498ee0 f   USER.obj
 0001:00098400       ?GiveItemToMap@USER@@QAEXPADH@Z 00499400 f   USER.obj
 0001:00099040       ?PKGiveItemToMap@USER@@QAEXPADH@Z 0049a040 f   USER.obj
 0001:00099bd0       ?ItemLoadReq@USER@@QAEXPAD@Z 0049abd0 f   USER.obj
 0001:0009b050       ?SendItemFieldInfo@USER@@QAEXEEPAVItemList@@HH@Z 0049c050 f   USER.obj
 0001:0009b230       ?GetMapMoneyInfo@USER@@QAEXKVCPoint@@H@Z 0049c230 f   USER.obj
 0001:0009b240       ?GetEquipPos@USER@@QAEXEAAVCPoint@@@Z 0049c240 f   USER.obj
 0001:0009b370       ?GetEBodyPos@USER@@QAEHE@Z 0049c370 f   USER.obj
 0001:0009b3f0       ?StrToUserItem@USER@@QAEXPAD@Z 0049c3f0 f   USER.obj
 0001:0009b940       ?UserItemToStr@USER@@QAEXPAD@Z 0049c940 f   USER.obj
 0001:0009baf0       ?UserItemToStrForSend@USER@@QAEXPAD@Z 0049caf0 f   USER.obj
 0001:0009bc40       ?StrToUserSkill@USER@@QAEXPAD@Z 0049cc40 f   USER.obj
 0001:0009bd20       ?UserSkillToStr@USER@@QAEXPAD@Z 0049cd20 f   USER.obj
 0001:0009bdf0       ?StrToUserPsi@USER@@QAEXPAD@Z 0049cdf0 f   USER.obj
 0001:0009bea0       ?UserPsiToStr@USER@@QAEXPAD@Z 0049cea0 f   USER.obj
 0001:0009bf30       ?UserSkillInfoToStr@USER@@QAEXPAD@Z 0049cf30 f   USER.obj
 0001:0009bf80       ?SendSystemMsg@USER@@QAEXPADEH@Z 0049cf80 f   USER.obj
 0001:0009c0a0       ?SendTradeSuccess@USER@@QAEXHPAD@Z 0049d0a0 f   USER.obj
 0001:0009c150       ?SendTradeFail@USER@@QAEXHE@Z 0049d150 f   USER.obj
 0001:0009c220       ?ItemTradeReq@USER@@IAEXPAD@Z 0049d220 f   USER.obj
 0001:0009c8c0       ?ExchangeReq@USER@@IAEXPAD@Z 0049d8c0 f   USER.obj
 0001:0009e780       ?SendExchangeFail@USER@@QAEXEE@Z 0049f780 f   USER.obj
 0001:0009ebd0       ?SendExchangeItem@USER@@QAEXPAV1@EK@Z 0049fbd0 f   USER.obj
 0001:0009f060       ?RunExchange@USER@@IAEXPAV1@@Z 004a0060 f   USER.obj
 0001:000a1f10       ?SendWeatherInMoveZone@USER@@QAEXXZ 004a2f10 f   USER.obj
 0001:000a1fa0       ?SetWeather@USER@@QAEXHH@Z 004a2fa0 f   USER.obj
 0001:000a2060       ?NpcEvent@USER@@QAEXPAD@Z  004a3060 f   USER.obj
 0001:000a2260       ?HyperTextEvent@USER@@QAEXPAD@Z 004a3260 f   USER.obj
 0001:000a2400       ?RunQuestEvent@USER@@QAEXPAVCNpc@@HH@Z 004a3400 f   USER.obj
 0001:000a2580       ?ClientEvent@USER@@IAEXPAD@Z 004a3580 f   USER.obj
 0001:000a25e0       ?CheckEventLogic@USER@@IAEHPAVEVENT_DATA@@@Z 004a35e0 f   USER.obj
 0001:000a2ad0       ?CheckUserCityValue@USER@@QAEHHH@Z 004a3ad0 f   USER.obj
 0001:000a2b10       ?CheckLevel@USER@@QAEHHH@Z 004a3b10 f   USER.obj
 0001:000a2b50       ?CheckVip@USER@@QAEHXZ     004a3b50 f   USER.obj
 0001:000a2c00       ?CheckPKDASAI@USER@@QAEHXZ 004a3c00 f   USER.obj
 0001:000a2c70       ?CheckGuildMaster@USER@@QAEHXZ 004a3c70 f   USER.obj
 0001:000a2cb0       ?CheckTerm@USER@@QAEHHHH@Z 004a3cb0 f   USER.obj
 0001:000a2cf0       ?MassZoneMove@USER@@QAEHH@Z 004a3cf0 f   USER.obj
 0001:000a2d00       ?FindEvent@USER@@QAEHH@Z   004a3d00 f   USER.obj
 0001:000a2d60       ?FindSkill@USER@@QAEHH@Z   004a3d60 f   USER.obj
 0001:000a2de0       ?AddSkill@USER@@QAEXH@Z    004a3de0 f   USER.obj
 0001:000a2e00       ?RunSkill120@USER@@QAEXH@Z 004a3e00 f   USER.obj
 0001:000a2f90       ?FindItem@USER@@QAEHH@Z    004a3f90 f   USER.obj
 0001:000a3150       ?FindEventItem@USER@@QAEHHH@Z 004a4150 f   USER.obj
 0001:000a32c0       ?CheckItemWeight@USER@@QAEHHHHHHHHHHHH@Z 004a42c0 f   USER.obj
 0001:000a3410       ?CheckItemSlot@USER@@QAEHHPAVLOGIC_ELSE@@@Z 004a4410 f   USER.obj
 0001:000a3560       ?CheckClass@USER@@QAEHH@Z  004a4560 f   USER.obj
 0001:000a3590       ?RobItem@USER@@QAEXHH@Z    004a4590 f   USER.obj
 0001:000a39c0       ?EventRobItem@USER@@QAEHHH@Z 004a49c0 f   USER.obj
 0001:000a3e20       ?AddXPUp@USER@@QAEXH@Z     004a4e20 f   USER.obj
 0001:000a3e60       ?RunNpcEvent@USER@@IAEHPAVCNpc@@PAVEXEC@@@Z 004a4e60 f   USER.obj
 0001:000a4ab0       ?GiveAllItem@USER@@QAEXHHHHHHHH@Z 004a5ab0 f   USER.obj
 0001:000a4cd0       ?GiveAllItem1@USER@@QAEXHHHHHHHHH@Z 004a5cd0 f   USER.obj
 0001:000a4ef0       ?GetFashiPsi@USER@@QAEHE@Z 004a5ef0 f   USER.obj
 0001:000a5160       ?FortressMove@USER@@QAEXPAVCNpc@@HHHHH@Z 004a6160 f   USER.obj
 0001:000a52c0       ?GetEventInCurrentZone@USER@@QAEPAVEVENT@@XZ 004a62c0 f   USER.obj
 0001:000a5330       ?AddMyEventNum@USER@@QAEXH@Z 004a6330 f   USER.obj
 0001:000a53f0       ?DelMyEventNum@USER@@QAEXH@Z 004a63f0 f   USER.obj
 0001:000a54c0       ?GuardBow@USER@@QAEXPAVCNpc@@@Z 004a64c0 f   USER.obj
 0001:000a5720       ?NpcXING@USER@@QAEXXZ      004a6720 f   USER.obj
 0001:000a5f80       ?NpcDuBoDA@USER@@QAEXHH@Z  004a6f80 f   USER.obj
 0001:000a6660       ?NpcDuBoXIAO@USER@@QAEXHH@Z 004a7660 f   USER.obj
 0001:000a6d40       ?NpcShangdian@USER@@QAEXH@Z 004a7d40 f   USER.obj
 0001:000a7010       ?NpcZHUANZHI@USER@@QAEXH@Z 004a8010 f   USER.obj
 0001:000a79a0       ?SendFieldGuildSay@USER@@QAEXPAVCNpc@@HH@Z 004a89a0 f   USER.obj
 0001:000a7be0       ?GuildWarApply@USER@@QAEXH@Z 004a8be0 f   USER.obj
 0001:000a7d10       ?GuildWarApplyReq@USER@@QAEXPAD@Z 004a8d10 f   USER.obj
 0001:000a7de0       ?GuildFortressWarApplyReq@USER@@QAEHH@Z 004a8de0 f   USER.obj
 0001:000a85d0       ?EventMove@USER@@QAEXHHH@Z 004a95d0 f   USER.obj
 0001:000a8860       ?SendAllCure@USER@@QAEXHH@Z 004a9860 f   USER.obj
 0001:000a8b90       ?ZoneMoveReq@USER@@QAEXHHH@Z 004a9b90 f   USER.obj
 0001:000a8fa0       ?ZoneChangeProcess@USER@@QAEHHHH@Z 004a9fa0 f   USER.obj
 0001:000a9420       ?SendZoneChange@USER@@QAEXH@Z 004aa420 f   USER.obj
 0001:000a95a0       ?SendNpcSay@USER@@IAEXPAVCNpc@@H@Z 004aa5a0 f   USER.obj
 0001:000a9650       ?HelpStatusOpenReq@USER@@QAEXXZ 004aa650 f   USER.obj
 0001:000a9670       ?GetStore@USER@@QAEPAVCStore@@H@Z 004aa670 f   USER.obj
 0001:000a96f0       ?GetFortress@USER@@QAEPAVCGuildFortress@@H@Z 004aa6f0 f   USER.obj
 0001:000a9770       ?GetPsiStore@USER@@QAEPAVCStore@@H@Z 004aa770 f   USER.obj
 0001:000a97f0       ?GetEbodyStore@USER@@QAEPAVCStore@@H@Z 004aa7f0 f   USER.obj
 0001:000a9870       ?SendStoreOpen@USER@@IAEXHH@Z 004aa870 f   USER.obj
 0001:000a9ae0       ?SendFieldStoreOpen@USER@@QAEXHHH@Z 004aaae0 f   USER.obj
 0001:000a9be0       ?EditHyperText@USER@@QAEXPAVCStore@@H@Z 004aabe0 f   USER.obj
 0001:000aa250       ?EditHyperFortressText@USER@@QAEXPAVCGuildFortress@@H@Z 004ab250 f   USER.obj
 0001:000aa980       ?SendPsiStoreOpen@USER@@QAEXH@Z 004ab980 f   USER.obj
 0001:000aadd0       ?BuyPsi@USER@@QAEXPAD@Z    004abdd0 f   USER.obj
 0001:000ab320       ?CheckPsiClass@USER@@QAEHF@Z 004ac320 f   USER.obj
 0001:000ab390       ?GetEmptyInvenSlot@USER@@QAEHPAH@Z 004ac390 f   USER.obj
 0001:000ab3f0       ?UpdateInvenSlot@USER@@QAEXPAVCWordArray@@0E@Z 004ac3f0 f   USER.obj
 0001:000ab710       ?SendMoneyChanged@USER@@QAEXXZ 004ac710 f   USER.obj
 0001:000ab7b0       ?BuyItem@USER@@IAEXPAD@Z   004ac7b0 f   USER.obj
 0001:000acda0       ?UpdateFortressTax@USER@@QAEXHK@Z 004adda0 f   USER.obj
 0001:000acea0       ?SellItemOpenReq@USER@@QAEXH@Z 004adea0 f   USER.obj
 0001:000ad600       ?GetSellCost@USER@@QAEKF@Z 004ae600 f   USER.obj
 0001:000ad970       ?SwapItem@USER@@QAEXHH@Z   004ae970 f   USER.obj
 0001:000ada00       ?ChangeWeaponReq@USER@@IAEXPAD@Z 004aea00 f   USER.obj
 0001:000add60       ?SendMyWeaponChangeInfo@USER@@QAEXXZ 004aed60 f   USER.obj
 0001:000adf70       ?SkillOnOffReq@USER@@IAEXPAD@Z 004aef70 f   USER.obj
 0001:000adf80       ?PsiChangeReq@USER@@IAEXPAD@Z 004aef80 f   USER.obj
 0001:000ae120       ?SellItem@USER@@QAEXPAD@Z  004af120 f   USER.obj
 0001:000af040       ?RepairItemOpenReq@USER@@QAEXH@Z 004b0040 f   USER.obj
 0001:000af240       ?GetRepairCost@USER@@QAEKF@Z 004b0240 f   USER.obj
 0001:000af610       ?RepairItem@USER@@QAEXPAD@Z 004b0610 f   USER.obj
 0001:000afb10       ?CheckAttackDelay@USER@@QAEHPAHE@Z 004b0b10 f   USER.obj
 0001:000afd70       ?IsCanUseWeaponSkill@USER@@QAEHAAE@Z 004b0d70 f   USER.obj
 0001:000afe50       ?IsSkillSuccess@USER@@IAEXPAHE@Z 004b0e50 f   USER.obj
 0001:000b0090       ?GetBreakRate@USER@@QAEHF@Z 004b1090 f   USER.obj
 0001:000b00e0       ?GetBreakDec@USER@@QAEHXZ  004b10e0 f   USER.obj
 0001:000b0170       ?SendSroreFail@USER@@QAEXHE@Z 004b1170 f   USER.obj
 0001:000b0180       ?GetMaxDuration@USER@@QAEHF@Z 004b1180 f   USER.obj
 0001:000b01d0       ?GetAttackRange@USER@@QAEHF@Z 004b11d0 f   USER.obj
 0001:000b0220       ?GetHitRate@USER@@QAEHFE@Z 004b1220 f   USER.obj
 0001:000b03f0       ?DecAttackSP@USER@@QAEHPAHE@Z 004b13f0 f   USER.obj
 0001:000b0400       ?GetAvoid@USER@@QAEHXZ     004b1400 f   USER.obj
 0001:000b0610       ?GetCriticalGuard@USER@@QAENPAHAAE@Z 004b1610 f   USER.obj
 0001:000b0820       ?GetNormalInitDamage@USER@@QAEHEPAV1@AAHH@Z 004b1820 f   USER.obj
 0001:000b10b0       ?GetCriticalInitDamage@USER@@QAEHPAHE@Z 004b20b0 f   USER.obj
 0001:000b1240       ?GetWeaponDamage@USER@@QAEHFH@Z 004b2240 f   USER.obj
 0001:000b13c0       ?GetWeaponDamagePSI@USER@@QAEHFH@Z 004b23c0 f   USER.obj
 0001:000b1540       ?GetCriticalHit@USER@@QAENEH@Z 004b2540 f   USER.obj
 0001:000b16d0       ?GetItemDefense@USER@@QAEFFH@Z 004b26d0 f   USER.obj
 0001:000b1790       ?GetDecDuration@USER@@QAEFF@Z 004b2790 f   USER.obj
 0001:000b17e0       ?SendDuration@USER@@QAEXEH@Z 004b27e0 f   USER.obj
 0001:000b1a00       ?SendBullNum@USER@@QAEXE@Z 004b2a00 f   USER.obj
 0001:000b1ac0       ?CheckRenWuZhangHao@USER@@QAEHPAD0@Z 004b2ac0 f   USER.obj
 0001:000b1d70       ?GetHP@USER@@QAEFXZ        004b2d70 f   USER.obj
 0001:000b2000       ?SendHP@USER@@QAEXXZ       004b3000 f   USER.obj
 0001:000b20d0       ?GetNpcClass@USER@@QAEEPAVCNpc@@@Z 004b30d0 f   USER.obj
 0001:000b2150       ?IsHavePsionic@USER@@QAEHE@Z 004b3150 f   USER.obj
 0001:000b2230       ?DecAttackPP@USER@@QAEHPAHEFH@Z 004b3230 f   USER.obj
 0001:000b2370       ?GetNeedPP@USER@@QAEFPAHEF@Z 004b3370 f   USER.obj
 0001:000b2590       ?GetPsiRange@USER@@QAEHF@Z 004b3590 f   USER.obj
 0001:000b25f0       ?CheckPsiCastingDelay@USER@@QAEHXZ 004b35f0 f   USER.obj
 0001:000b2640       ?PsionicProcess@USER@@QAEHHFVCPoint@@F@Z 004b3640 f   USER.obj
 0001:000b4cc0       ?EBODY_Skill@USER@@QAEXFPAV1@PAVCNpc@@H@Z 004b5cc0 f   USER.obj
 0001:000b5690       ?SendXP@USER@@QAEXXZ       004b6690 f   USER.obj
 0001:000b5720       ?TownPotal@USER@@QAEXXZ    004b6720 f   USER.obj
 0001:000b5c50       ?SendTownPotal@USER@@QAEXEE@Z 004b6c50 f   USER.obj
 0001:000b5d90       ?AddCellUidFromTownPotal@USER@@QAEXXZ 004b6d90 f   USER.obj
 0001:000b5da0       ?DeleteCellUidFromTownPotal@USER@@QAEXXZ 004b6da0 f   USER.obj
 0001:000b5db0       ?UserTimer@USER@@QAEXXZ    004b6db0 f   USER.obj
 0001:000b9970       ?SetPsiAbnormalStatus@USER@@QAEXXZ 004ba970 f   USER.obj
 0001:000b9bc0       ?SendCHONGSHENG@USER@@QAEXXZ 004babc0 f   USER.obj
 0001:000b9fd0       ?SetStatus@USER@@QAEXXZ    004bafd0 f   USER.obj
 0001:000ba160       ?ReturnTown@USER@@QAEHEE@Z 004bb160 f   USER.obj
 0001:000ba3f0       ?GetAbsentGuildInfo@USER@@QAEHH@Z 004bb3f0 f   USER.obj
 0001:000baa90       ?GetAbsentGuildUserInfo@USER@@QAEXH@Z 004bba90 f   USER.obj
 0001:000bad80       ?IsMyDBServer@USER@@QAEHH@Z 004bbd80 f   USER.obj
 0001:000badf0       ?BridgeServerUserLogin@USER@@QAEXPAD0@Z 004bbdf0 f   USER.obj
 0001:000bb590       ?SetIsGuildCB@USER@@QAEXXZ 004bc590 f   USER.obj
 0001:000bb640       ?BridgeServerUserZoneLogin@USER@@QAEXPAD0@Z 004bc640 f   USER.obj
 0001:000bb9c0       ?BridgeServerUserWhisper@USER@@QAEXPAD00@Z 004bc9c0 f   USER.obj
 0001:000bbac0       ?BridgeServerGuildNewResult@USER@@QAEXHPAD@Z 004bcac0 f   USER.obj
 0001:000bbe00       ?BridgeServerGuildDisperseResult@USER@@QAEXH@Z 004bce00 f   USER.obj
 0001:000bc180       ?BridgeServerGuildInviteResult@USER@@QAEXHPAD@Z 004bd180 f   USER.obj
 0001:000bc450       ?BridgeServerGuildOffResult@USER@@QAEXPAD0@Z 004bd450 f   USER.obj
 0001:000bca70       ?BridgeDeputeGuildMasterOfPowerResult@USER@@QAEXH@Z 004bda70 f   USER.obj
 0001:000bce40       ?BridgeRemoveGuildMasterOfPowerResult@USER@@QAEXXZ 004bde40 f   USER.obj
 0001:000bd1b0       ?BridgeServerGuildMarkResult@USER@@QAEXPAD@Z 004be1b0 f   USER.obj
 0001:000bd4f0       ?BridgeServerUserRestartResult@USER@@QAEXXZ 004be4f0 f   USER.obj
 0001:000bd8a0       ?BridgeServerUserZoneLogOutResult@USER@@QAEXHHH@Z 004be8a0 f   USER.obj
 0001:000bd9f0       ?CheckRoyalRumbleEnterTime@USER@@QAEHXZ 004be9f0 f   USER.obj
 0001:000bda10       ?CheckRoyalRumbleEnterMaxUser@USER@@QAEHXZ 004bea10 f   USER.obj
 0001:000bda30       ?ExitRoyalRumble@USER@@QAEXXZ 004bea30 f   USER.obj
 0001:000bda70       ?GetGuildMapIndex@USER@@QAEHH@Z 004bea70 f   USER.obj
 0001:000bdaf0       ?GuildUserCallReq@USER@@QAEXPADH@Z 004beaf0 f   USER.obj
 0001:000be070       ?GetIntAddr@USER@@QAEHV?$CStringT@DV?$StrTraitMFC@DV?$ChTraitsCRT@D@ATL@@@@@ATL@@@Z 004bf070 f   USER.obj
 0001:000be200       ?GetStrAddr@USER@@QAEPADHPAD@Z 004bf200 f   USER.obj
 0001:000be2a0       ?SetJiaoYiMiMa@USER@@QAE_NPAD@Z 004bf2a0 f   USER.obj
 0001:000be5a0       ?GetUserItem@USER@@QAEXPAVItemList@@H@Z 004bf5a0 f   USER.obj
 0001:000bf050       ?AddAbnormalInfo@USER@@QAEXK@Z 004c0050 f i USER.obj
 0001:000bf080       ?ClearAbnormalGroup@USER@@QAEXK@Z 004c0080 f i USER.obj
 0001:000bf0b0       ??_EUSER@@UAEPAXI@Z        004c00b0 f i USER.obj
 0001:000bf0b0       ??_GUSER@@UAEPAXI@Z        004c00b0 f i USER.obj
 0001:000bf0e0       ??0?$CTypedPtrArray@VCPtrArray@@PAUExchangeItem@@@@QAE@XZ 004c00e0 f i USER.obj
 0001:000bf100       ??0?$CTypedPtrArray@VCPtrArray@@PAUShopItem@@@@QAE@XZ 004c0100 f i USER.obj
 0001:000bf120       ??0?$CTypedPtrArray@VCPtrArray@@PAU_ITEMLOG@@@@QAE@XZ 004c0120 f i USER.obj
 0001:000bf140       ?GetValidCount@CCircularBuffer@@QAEHXZ 004c0140 f i USER.obj
 0001:000bf170       ?PutData@CCircularBuffer@@QAEXPADH@Z 004c0170 f i USER.obj
 0001:000bf250       ?IsOverFlowCondition@CCircularBuffer@@IAEHAAH@Z 004c0250 f i USER.obj
 0001:000bf280       ?IsIndexOverFlow@CCircularBuffer@@IAEHAAH@Z 004c0280 f i USER.obj
 0001:000bf2b0       ?BufferResize@CCircularBuffer@@IAEXXZ 004c02b0 f i USER.obj
 0001:000bf370       ?GetData@CCircularBuffer@@QAEXPADH@Z 004c0370 f i USER.obj
 0001:000bf410       ?HeadIncrease@CCircularBuffer@@QAEHH@Z 004c0410 f i USER.obj
 0001:000bf460       ?SetUid@USER@@QAEHHHH@Z    004c0460 f i USER.obj
 0001:000bf540       ?DeleteAbnormalInfo@USER@@QAEXK@Z 004c0540 f i USER.obj
 0001:000bf570       ?CheckAbnormalInfo@USER@@QAEHK@Z 004c0570 f i USER.obj
 0001:000bf5a0       ?GetExtractedDataCount@CCompressManager@@QAEJXZ 004c05a0 f i ServerDlg2.obj
 0001:000bf5a0       ?GetCompressedDataCount@CCompressManager@@QAEJXZ 004c05a0 f i USER.obj
 0001:000bf5c0       ??0__SQLDATAPACKET@@QAE@XZ 004c05c0 f i USER2.obj
 0001:000bf5c0       ??0__CHATDATAPACKET@@QAE@XZ 004c05c0 f i USER.obj
 0001:000bf600       ??4CGuildUser@@QAEAAV0@ABV0@@Z 004c0600 f i USER.obj
 0001:000bf660       ?GetAt@CWordArray@@QBEGH@Z 004c0660 f i USER.obj
 0001:000bf690       ?DeleteStateInfo@USER@@QAEXK@Z 004c0690 f i USER.obj
 0001:000bf6c0       ?AddStateInfo@USER@@QAEXK@Z 004c06c0 f i USER.obj
 0001:000bf6f0       ?Replace@?$CStringT@DV?$StrTraitMFC@DV?$ChTraitsCRT@D@ATL@@@@@ATL@@QAEHPBD0@Z 004c06f0 f i USER.obj
 0001:000bf8b0       ?Find@?$CStringT@DV?$StrTraitMFC@DV?$ChTraitsCRT@D@ATL@@@@@ATL@@QBEHDH@Z 004c08b0 f i USER.obj
 0001:000bf920       ?Mid@?$CStringT@DV?$StrTraitMFC@DV?$ChTraitsCRT@D@ATL@@@@@ATL@@QBE?AV12@HH@Z 004c0920 f i USER.obj
 0001:000bfa00       ?Right@?$CStringT@DV?$StrTraitMFC@DV?$ChTraitsCRT@D@ATL@@@@@ATL@@QBE?AV12@H@Z 004c0a00 f i USER.obj
 0001:000bfa80       ??HATL@@YA?AV?$CStringT@DV?$StrTraitMFC@DV?$ChTraitsCRT@D@ATL@@@@@0@ABV10@PBD@Z 004c0a80 f i USER.obj
 0001:000bfb30       ??8ATL@@YA_NABV?$CStringT@DV?$StrTraitMFC@DV?$ChTraitsCRT@D@ATL@@@@@0@0@Z 004c0b30 f i USER.obj
 0001:000bfb50       ??8ATL@@YA_NABV?$CStringT@DV?$StrTraitMFC@DV?$ChTraitsCRT@D@ATL@@@@@0@PBD@Z 004c0b50 f i USER.obj
 0001:000bfb70       ??8ATL@@YA_NPBDABV?$CStringT@DV?$StrTraitMFC@DV?$ChTraitsCRT@D@ATL@@@@@0@@Z 004c0b70 f i USER.obj
 0001:000bfb90       ?GetBuffer@?$CSimpleStringT@D$0A@@ATL@@QAEPADXZ 004c0b90 f i USER.obj
 0001:000bfbd0       ?Concatenate@?$CSimpleStringT@D$0A@@ATL@@KAXAAV12@PBDH1H@Z 004c0bd0 f i USER.obj
 0001:000bfc40       ?StringFindString@?$ChTraitsCRT@D@ATL@@SAPBDPBD0@Z 004c0c40 f i USER.obj
 0001:000bfc60       ?StringFindString@?$ChTraitsCRT@D@ATL@@SAPADPADPBD@Z 004c0c60 f i USER.obj
 0001:000bfc80       ?StringFindChar@?$ChTraitsCRT@D@ATL@@SAPBDPBDD@Z 004c0c80 f i USER.obj
 0001:000bfca0       ?SafeStringLen@?$ChTraitsCRT@D@ATL@@SAHPBD@Z 004c0ca0 f i USER.obj
 0001:000bfcd0       ??$AtlAddThrow@H@ATL@@YAHHH@Z 004c0cd0 f i USER.obj
 0001:000bfd10       ??$AtlAdd@H@ATL@@YAJPAHHH@Z 004c0d10 f i USER.obj
 0001:000bfd40       ?GameStartWithDbServer@USER@@IAEXPAD@Z 004c0d40 f   USER2.obj
 0001:000bff10       ?DBUpdateUserData@USER@@QAEXPADAAH@Z 004c0f10 f   USER2.obj
 0001:000c07f0       ?DBAccountLoginResult@USER@@QAEXPADHH@Z 004c17f0 f   USER2.obj
 0001:000c09d0       ?DBGameStartResult@USER@@QAEXPADHH@Z 004c19d0 f   USER2.obj
 0001:000c09e0       ?DressingWindowOpen@USER@@QAEXXZ 004c19e0 f   USER2.obj
 0001:000c0a70       ?DressingReq@USER@@QAEXPAD@Z 004c1a70 f   USER2.obj
 0001:000c2080       ?ItemDataVersionCheck@USER@@QAEXXZ 004c3080 f   USER2.obj
 0001:000c2090       ?SelectOver100Skill@USER@@QAEXPAD@Z 004c3090 f   USER2.obj
 0001:000c2270       ?GenerateItemSerial@USER@@QAE_KPAVItemList@@@Z 004c3270 f   USER2.obj
 0001:000c2290       ?AccountBankItemMoveReq@USER@@QAEXPAD@Z 004c3290 f   USER2.obj
 0001:000c2380       ?AccountBankInPut@USER@@QAEXPAD@Z 004c3380 f   USER2.obj
 0001:000c2f60       ?AccountBankOutPut@USER@@QAEXPAD@Z 004c3f60 f   USER2.obj
 0001:000c4060       ?AccountBankInPutDN@USER@@QAEXPAD@Z 004c5060 f   USER2.obj
 0001:000c42f0       ?AccountBankOpenReq@USER@@QAEXH@Z 004c52f0 f   USER2.obj
 0001:000c4690       ?GetPsyAssault@USER@@QAEH_N@Z 004c5690 f   USER2.obj
 0001:000c4800       ?GetPsyAbsoluteDefense@USER@@QAEHXZ 004c5800 f   USER2.obj
 0001:000c49b0       ?GetPsyPsyResist@USER@@QAEHXZ 004c59b0 f   USER2.obj
 0001:000c4ad0       ?ResetOver100LevelSkill@USER@@QAEXH@Z 004c5ad0 f   USER2.obj
 0001:000c4d00       ?CheckMoneyMinMax@USER@@QAEHHH@Z 004c5d00 f   USER2.obj
 0001:000c4de0       ?CheckYuanBaoMinMax@USER@@QAEHHH@Z 004c5de0 f   USER2.obj
 0001:000c4ec0       ?CheckRandom@USER@@QAEHH@Z 004c5ec0 f   USER2.obj
 0001:000c4f20       ?GiveDN@USER@@QAEXH@Z      004c5f20 f   USER2.obj
 0001:000c4f90       ?RobDN@USER@@QAEXH@Z       004c5f90 f   USER2.obj
 0001:000c5020       ?GiveShopPingYB@USER@@QAEXH@Z 004c6020 f   USER2.obj
 0001:000c5070       ?GiveHiExpTime@USER@@QAEXH@Z 004c6070 f   USER2.obj
 0001:000c50d0       ?GiveMagicFindTime@USER@@QAEXH@Z 004c60d0 f   USER2.obj
 0001:000c5130       ?GiveFUExpTime@USER@@QAEXH@Z 004c6130 f   USER2.obj
 0001:000c5240       ?RobShopPingYB@USER@@QAEXH@Z 004c6240 f   USER2.obj
 0001:000c52c0       ?Collect@USER@@QAEXPAD@Z   004c62c0 f   USER2.obj
 0001:000c5f80       ?SendEventMsg@USER@@QAEXPAD@Z 004c6f80 f   USER2.obj
 0001:000c5fc0       ?SendNpcToUserMsg@USER@@QAEXPAVCNpc@@HPAD@Z 004c6fc0 f   USER2.obj
 0001:000c6130       ?WriteItemLog@USER@@QAEXPAVItemList@@HPAD@Z 004c7130 f   USER2.obj
 0001:000c62e0       ?CheckItemLog@USER@@QAEHPAVItemList@@@Z 004c72e0 f   USER2.obj
 0001:000c6340       ?UpdateMemItemLog@USER@@QAEHPAU_ITEMLOG@@@Z 004c7340 f   USER2.obj
 0001:000c6450       ?MakeItemLog@USER@@QAEXPAVItemList@@HPAD@Z 004c7450 f   USER2.obj
 0001:000c6610       ?MakeMoneyLog@USER@@QAEXKHPADK@Z 004c7610 f   USER2.obj
 0001:000c67a0       ?FlushItemLog@USER@@QAEXH@Z 004c77a0 f   USER2.obj
 0001:000c68b0       ?GetMinusExpRatioByCityRank@USER@@QAEHH@Z 004c78b0 f   USER2.obj
 0001:000c6da0       ?GetDropItemRankByAttackerCityRank@USER@@QAEHH@Z 004c7da0 f   USER2.obj
 0001:000c6e10       ?Mem2Game@USER@@QAEHPAVCMemUser@@@Z 004c7e10 f   USER2.obj
 0001:000c7b80       ?CheckMemoryAccountBankDB@USER@@QAEHPAD@Z 004c8b80 f   USER2.obj
 0001:000c7de0       ?Mem2GameAccountBank@USER@@QAEHPAVCMemUser@@@Z 004c8de0 f   USER2.obj
 0001:000c7e30       ?GiveMagicItem@USER@@QAEHHH@Z 004c8e30 f   USER2.obj
 0001:000c84d0       ?EventItemSerialWindowOpen@USER@@QAEXXZ 004c94d0 f   USER2.obj
 0001:000c8560       ?RecvEventItemSerial@USER@@QAEXPAD@Z 004c9560 f   USER2.obj
 0001:000c8810       ?UpdateEventItemSerial@USER@@QAEHPADAAH1@Z 004c9810 f   USER2.obj
 0001:000c8aa0       ?EventItemSerialForGameRoomWindowOpen@USER@@QAEXXZ 004c9aa0 f   USER2.obj
 0001:000c8b30       ?UpdateEventItemSerialForGameRoom@USER@@QAEHPAD0AAH@Z 004c9b30 f   USER2.obj
 0001:000c8d70       ?RecvEventItemSerialForGameRoom@USER@@QAEXPAD@Z 004c9d70 f   USER2.obj
 0001:000c97f0       ?CheckUserLevel@USER@@QAEHXZ 004ca7f0 f   USER2.obj
 0001:000c9880       ?GiveEventGameTime@USER@@QAEXHH@Z 004ca880 f   USER2.obj
 0001:000c9f50       ?UpdateGameTimeForEvent@USER@@QAEHPAD@Z 004caf50 f   USER2.obj
 0001:000ca140       ?SendSystemMsg@USER@@QAEXIEH@Z 004cb140 f   USER2.obj
 0001:000ca310       ?UpgradeItemOpen@USER@@QAEXH@Z 004cb310 f   USER2.obj
 0001:000ca3a0       ?UpgradeItemOpenA@USER@@QAEXHH@Z 004cb3a0 f   USER2.obj
 0001:000ca430       ?UpgradeItemReqBegin@USER@@QAEXPAD@Z 004cb430 f   USER2.obj
 0001:000ca680       ?DownAccessoriReq@USER@@QAEXPAD@Z 004cb680 f   USER2.obj
 0001:000cb180       ?DelEbodyLastSX@USER@@QAEXPAD@Z 004cc180 f   USER2.obj
 0001:000cb6e0       ?RemagicItem_UpgradeReq@USER@@QAEXPAD@Z 004cc6e0 f   USER2.obj
 0001:000cbd60       ?RemagicItem1_UpgradeReq@USER@@QAEXPAD@Z 004ccd60 f   USER2.obj
 0001:000cc190       ?RemagicItem_HuanShi@USER@@QAEXPAD@Z 004cd190 f   USER2.obj
 0001:000cc6d0       ?ShouHouAdd@USER@@QAEXPAD@Z 004cd6d0 f   USER2.obj
 0001:000cce30       ?ShouHouMake@USER@@QAEXPAD@Z 004cde30 f   USER2.obj
 0001:000cd620       ?ShouHouUpgradeReq@USER@@QAEXPAD@Z 004ce620 f   USER2.obj
 0001:000cdd10       ?FindItemSid@USER@@QAEHF@Z 004ced10 f   USER2.obj
 0001:000cdd60       ?ZHUANGBEIID@USER@@QAEHH@Z 004ced60 f   USER2.obj
 0001:000ce1c0       ?RemagicItem_100_3@USER@@QAEXPAD@Z 004cf1c0 f   USER2.obj
 0001:000ce4a0       ?RemagicItem_100_1@USER@@QAEXPAD@Z 004cf4a0 f   USER2.obj
 0001:000ce7b0       ?RemagicItem_100_2@USER@@QAEXPAD@Z 004cf7b0 f   USER2.obj
 0001:000cea50       ?UpgradeHJItemReq@USER@@QAEXPADH@Z 004cfa50 f   USER2.obj
 0001:000cf5a0       ?UpgradeItemReq@USER@@QAEXPAD@Z 004d05a0 f   USER2.obj
 0001:000d0010       ?SetUpgeadeItem@USER@@QAEHF@Z 004d1010 f   USER2.obj
 0001:000d04d0       ?UpgradeAccessoriReq@USER@@QAEXPAD@Z 004d14d0 f   USER2.obj
 0001:000d1da0       ?UpgradeBlessingItemReq@USER@@QAEXPADH@Z 004d2da0 f   USER2.obj
 0001:000d3070       ?SetBlessingUpgradeItem@USER@@QAEHFH@Z 004d4070 f   USER2.obj
 0001:000d4170       ?ChangeUpgradeAcc@USER@@QAEXXZ 004d5170 f   USER2.obj
 0001:000d48b0       ?RemodelingItemReq@USER@@IAEXPAD@Z 004d58b0 f   USER2.obj
 0001:000d5a10       ?RemodelingItem@USER@@IAEHHPAVItemList@@F@Z 004d6a10 f   USER2.obj
 0001:000d5da0       ?CheckOverGuildUserCount@USER@@QAEHH@Z 004d6da0 f   USER2.obj
 0001:000d5f50       ?ApplyGuildRun@USER@@QAEXXZ 004d6f50 f   USER2.obj
 0001:000d6350       ?CheckApplyGuildRun@USER@@QAEHXZ 004d7350 f   USER2.obj
 0001:000d6550       ?SetDecBullNum@USER@@QAEXEF@Z 004d7550 f   USER2.obj
 0001:000d6610       ?SetConFusion@USER@@QAEXXZ 004d7610 f   USER2.obj
 0001:000d6750       ?UpdateTuBiao@USER@@QAEXXZ 004d7750 f   USER2.obj
 0001:000d6840       ?DelTuBiao@USER@@QAEXXZ    004d7840 f   USER2.obj
 0001:000d6950       ?SetColdDamage@USER@@QAEXXZ 004d7950 f   USER2.obj
 0001:000d6aa0       ?SetFireDamage@USER@@QAEXXZ 004d7aa0 f   USER2.obj
 0001:000d6bf0       ?BankOpenReq@USER@@QAEXXZ  004d7bf0 f   USER2.obj
 0001:000d6f90       ?LoadUserBank@USER@@QAEHXZ 004d7f90 f   USER2.obj
 0001:000d72b0       ?LoadAccountBank@USER@@QAEHXZ 004d82b0 f   USER2.obj
 0001:000d75e0       ?StrToUserBankItem@USER@@QAEXPAD@Z 004d85e0 f   USER2.obj
 0001:000d7850       ?StrToAccountBankItem@USER@@QAEXPAD@Z 004d8850 f   USER2.obj
 0001:000d7a80       ?UserBankItemToStr@USER@@QAEXPAD@Z 004d8a80 f   USER2.obj
 0001:000d7c30       ?UserAccountBankItemToStr@USER@@QAEXPAD@Z 004d8c30 f   USER2.obj
 0001:000d7de0       ?UpdateUserBank@USER@@QAEHXZ 004d8de0 f   USER2.obj
 0001:000d8990       ?SendMyTownPotal@USER@@QAEXEE@Z 004d9990 f   USER2.obj
 0001:000d8d20       ?SendUserTownPotal@USER@@QAEXPAV1@E@Z 004d9d20 f   USER2.obj
 0001:000d90c0       ?BankItemMoveReq@USER@@QAEXPAD@Z 004da0c0 f   USER2.obj
 0001:000d91e0       ?BankInPut@USER@@QAEXPAD@Z 004da1e0 f   USER2.obj
 0001:000d9ce0       ?BankOutPut@USER@@QAEXPAD@Z 004dace0 f   USER2.obj
 0001:000da6d0       ?BankInPutDN@USER@@QAEXPAD@Z 004db6d0 f   USER2.obj
 0001:000da920       ?BankOutPutDN@USER@@QAEXPAD@Z 004db920 f   USER2.obj
 0001:000dabb0       ?RestartReq@USER@@QAEXPAD@Z 004dbbb0 f   USER2.obj
 0001:000daf80       ?SendRestartLoginResult@USER@@QAEHXZ 004dbf80 f   USER2.obj
 0001:000db210       ?IsPKZone@USER@@QAEHPAV1@@Z 004dc210 f   USER2.obj
 0001:000db540       ?IsCity@USER@@QAEHXZ       004dc540 f   USER2.obj
 0001:000db640       ?IsMapCheck@USER@@QAEHXZ   004dc640 f   USER2.obj
 0001:000db700       ?SetUserToMagicUser@USER@@QAEXH@Z 004dc700 f   USER2.obj
 0001:000dbbd0       ?GetSkillLevel@USER@@QAEFEF@Z 004dcbd0 f   USER2.obj
 0001:000dbc60       ?SetHaste@USER@@QAEXH@Z    004dcc60 f   USER2.obj
 0001:000dbdd0       ?SetShield@USER@@QAEXH@Z   004dcdd0 f   USER2.obj
 0001:000dbf50       ?SetBigShield@USER@@QAEXH@Z 004dcf50 f   USER2.obj
 0001:000dc100       ?SetDexUp@USER@@IAEXH@Z    004dd100 f   USER2.obj
 0001:000dc270       ?SetMaxHPUp@USER@@IAEXH@Z  004dd270 f   USER2.obj
 0001:000dc420       ?SetAdamantine@USER@@QAEXH@Z 004dd420 f   USER2.obj
 0001:000dc550       ?SetMightyWeapon@USER@@QAEXH@Z 004dd550 f   USER2.obj
 0001:000dc680       ?SetBerserker@USER@@QAEXH@Z 004dd680 f   USER2.obj
 0001:000dc7b0       ?SetFastRun@USER@@QAEXH@Z  004dd7b0 f   USER2.obj
 0001:000dc920       ?SetMindShock@USER@@QAEHH@Z 004dd920 f   USER2.obj
 0001:000dcb60       ?SetMindGuard@USER@@QAEXH@Z 004ddb60 f   USER2.obj
 0001:000dcca0       ?SetPsiShield@USER@@QAEXH@Z 004ddca0 f   USER2.obj
 0001:000dce10       ?SetPiercingShield@USER@@QAEXH@Z 004dde10 f   USER2.obj
 0001:000dcf80       ?SetHide@USER@@QAEXH@Z     004ddf80 f   USER2.obj
 0001:000dcf90       ?Teleport@USER@@QAEHHH@Z   004ddf90 f   USER2.obj
 0001:000dd3c0       ?IsDeadUser@USER@@QAEXXZ   004de3c0 f   USER2.obj
 0001:000dd650       ?GetFinalDamage@USER@@QAEHPAV1@HEAAHH@Z 004de650 f   USER2.obj
 0001:000de5d0       ?IsReservedID@USER@@QAEHPAD@Z 004df5d0 f   USER2.obj
 0001:000de6e0       ?FindNearAvailablePoint_S@USER@@QAE?AVCPoint@@HH@Z 004df6e0 f   USER2.obj
 0001:000dea10       ?FindNearAvailablePoint_S@USER@@QAE?AVCPoint@@HHH@Z 004dfa10 f   USER2.obj
 0001:000ded90       ?FindNearAvailablePoint_C@USER@@QAE?AVCPoint@@HH@Z 004dfd90 f   USER2.obj
 0001:000df050       ?IsMovable_C@USER@@QAEHHH@Z 004e0050 f   USER2.obj
 0001:000df0a0       ?ConvertToClient@USER@@QAE?AVCPoint@@HH@Z 004e00a0 f   USER2.obj
 0001:000df1d0       ?FillUserInfo@USER@@QAEXPADAAHE@Z 004e01d0 f   USER2.obj
 0001:000df650       ?SendRangeInfoToMe@USER@@QAEXHHHHE@Z 004e0650 f   USER2.obj
 0001:000df990       ?SendToRange@USER@@QAEXPADHHHHH@Z 004e0990 f   USER2.obj
 0001:000dfa90       ?ConvertToServer@USER@@QAE?AVCPoint@@HH@Z 004e0a90 f   USER2.obj
 0001:000dfc10       ?ConvertToServerByZone@USER@@QAE?AVCPoint@@HHH@Z 004e0c10 f   USER2.obj
 0001:000dfdc0       ?AddItemFieldInfoToMe@USER@@QAEXPAVItemList@@EHH@Z 004e0dc0 f   USER2.obj
 0001:000dfff0       ?SendItemFieldInfoToMe@USER@@QAEXXZ 004e0ff0 f   USER2.obj
 0001:000e0120       ?GetMaxDamage@USER@@QAEHE@Z 004e1120 f   USER2.obj
 0001:000e03e0       ?SetCounterAttack@USER@@QAEXHH@Z 004e13e0 f   USER2.obj
 0001:000e0470       ?CheckMoveSpeedHack@USER@@QAEHK@Z 004e1470 f   USER2.obj
 0001:000e0570       ?CheckRunSpeedHack@USER@@QAEHKH@Z 004e1570 f   USER2.obj
 0001:000e0590       ?IsLegalDefence@USER@@QAEXPAV1@@Z 004e1590 f   USER2.obj
 0001:000e0710       ?IsLegalDefence_isdead@USER@@QAEHPAV1@@Z 004e1710 f   USER2.obj
 0001:000e0980       ?CheckInvalidZoneInGuildWar@USER@@QAEHPAV1@@Z 004e1980 f   USER2.obj
 0001:000e0b60       ?CheckInvalidZoneInFreeFight@USER@@QAEHPAV1@@Z 004e1b60 f   USER2.obj
 0001:000e0bc0       ?IsChangeCityRank@USER@@QAEXHPAV1@@Z 004e1bc0 f   USER2.obj
 0001:000e0f60       ?GetCityRank@USER@@QAEXXZ  004e1f60 f   USER2.obj
 0001:000e10c0       ?GetItemCostByCityRank@USER@@QAEKHH@Z 004e20c0 f   USER2.obj
 0001:000e1230       ?UpdateUserItemDN@USER@@QAEHXZ 004e2230 f   USER2.obj
 0001:000e1490       ?UpdateUserItemShopPingYB@USER@@QAEHXZ 004e2490 f   USER2.obj
 0001:000e16f0       ?UpdateUserItemHiExpTime@USER@@QAEHXZ 004e26f0 f   USER2.obj
 0001:000e1950       ?UpdateUserItemMagicFindTime@USER@@QAEHXZ 004e2950 f   USER2.obj
 0001:000e1bb0       ?UpdateUserItemFUExpTime@USER@@QAEHXZ 004e2bb0 f   USER2.obj
 0001:000e1e10       ?UpdateVIPPay@USER@@QAEHHH@Z 004e2e10 f   USER2.obj
 0001:000e1fc0       ?DeleteVIPPay@USER@@QAEHH@Z 004e2fc0 f   USER2.obj
 0001:000e2170       ?UpdateMarkPay@USER@@QAEHHH@Z 004e3170 f   USER2.obj
 0001:000e2320       ?DeleteMarkPay@USER@@QAEHH@Z 004e3320 f   USER2.obj
 0001:000e24d0       ?GetPsiAttackUp@USER@@QAEHXZ 004e34d0 f   USER2.obj
 0001:000e25f0       ?GetWideRangeAttack@USER@@QAEXHHH@Z 004e35f0 f   USER2.obj
 0001:000e2e20       ?GetQunGongAttack@USER@@QAEHHHH@Z 004e3e20 f   USER2.obj
 0001:000e32b0       ?GetNpcData@USER@@QAEXPAVCNpc@@HH@Z 004e42b0 f   USER2.obj
 0001:000e3910       ?GetEventNpc@USER@@QAEPAVCNpc@@XZ 004e4910 f   USER2.obj
 0001:000e3990       ?SendHideOff@USER@@QAEXXZ  004e4990 f   USER2.obj
 0001:000e39a0       ?SendItemWeightChange@USER@@QAEXXZ 004e49a0 f   USER2.obj
 0001:000e39b0       ?GetGuild@USER@@QAEPAVCGuild@@H@Z 004e49b0 f   USER2.obj
 0001:000e3a30       ?GetGuildByName@USER@@QAEPAVCGuild@@PAD@Z 004e4a30 f   USER2.obj
 0001:000e3b50       ?GetGuildName@USER@@QAEHHPAD@Z 004e4b50 f   USER2.obj
 0001:000e3c20       ?GetEmptyGuildNum@USER@@QAEHXZ 004e4c20 f   USER2.obj
 0001:000e3c90       ?ReleaseGuild@USER@@QAEXXZ 004e4c90 f   USER2.obj
 0001:000e3cb0       ?GuildOpen@USER@@QAEXXZ    004e4cb0 f   USER2.obj
 0001:000e3fa0       ?NewGuild@USER@@QAEXPAD@Z  004e4fa0 f   USER2.obj
 0001:000e4680       ?InsertGuild@USER@@QAEHPAVCGuild@@@Z 004e5680 f   USER2.obj
 0001:000e4860       ?InsertGuildUser@USER@@QAEHHPAD@Z 004e5860 f   USER2.obj
 0001:000e4a10       ?UpdateGuildMark@USER@@QAEHPADPAVCGuild@@@Z 004e5a10 f   USER2.obj
 0001:000e4c60       ?DeleteGuildUser@USER@@QAEHPAD@Z 004e5c60 f   USER2.obj
 0001:000e4e30       ?DeleteMarkChouJiang@USER@@QAEHPAD@Z 004e5e30 f   USER2.obj
 0001:000e5000       ?GuildMarkAddReq@USER@@QAEXPAD@Z 004e6000 f   USER2.obj
 0001:000e5410       ?GuildAddReq@USER@@QAEXPAD@Z 004e6410 f   USER2.obj
 0001:000e55c0       ?InitMemoryDB@USER@@QAEHH@Z 004e65c0 f   USER2.obj
 0001:000e5790       ?UpdateMem2DB@USER@@IAEXPAVCMemUser@@@Z 004e6790 f   USER2.obj
 0001:000e5f20       ?UpdateBankMem2DB@USER@@IAEXPAVCMemUser@@@Z 004e6f20 f   USER2.obj
 0001:000e6180       ?UpdateAccountBankMem2DB@USER@@QAEXPAVCMemUser@@@Z 004e7180 f   USER2.obj
 0001:000e63e0       ?UpdateMemUserAll@USER@@QAEHH@Z 004e73e0 f   USER2.obj
 0001:000e7560       ?UpdateMemUserBank@USER@@QAEHXZ 004e8560 f   USER2.obj
 0001:000e7580       ?UpdateBankDataOnly@USER@@QAEHXZ 004e8580 f   USER2.obj
 0001:000e77f0       ?ReInitMemoryDB@USER@@QAEXXZ 004e87f0 f   USER2.obj
 0001:000e78a0       ?GuildInvite@USER@@QAEXH@Z 004e88a0 f   USER2.obj
 0001:000e7c50       ?SendGuildInviteUser@USER@@QAEXPAV1@@Z 004e8c50 f   USER2.obj
 0001:000e7da0       ?GuildOff@USER@@QAEXPAD@Z  004e8da0 f   USER2.obj
 0001:000e8140       ?SendGuildOffUser@USER@@QAEXPAV1@@Z 004e9140 f   USER2.obj
 0001:000e8290       ?GuildDisperse@USER@@QAEXPAD@Z 004e9290 f   USER2.obj
 0001:000e8850       ?GuildKickOut@USER@@QAEXPAD@Z 004e9850 f   USER2.obj
 0001:000e8ce0       ?SendGuildInfo@USER@@QAEXPAV1@@Z 004e9ce0 f   USER2.obj
 0001:000e8e10       ?SendMyGuildInfo@USER@@QAEXXZ 004e9e10 f   USER2.obj
 0001:000e8f10       ?GuildWharehouseOpenReq@USER@@QAEXXZ 004e9f10 f   USER2.obj
 0001:000e9630       ?GuildWharehouseCloseReq@USER@@QAEXXZ 004ea630 f   USER2.obj
 0001:000e9810       ?LoadGuildWarehouse@USER@@QAEHXZ 004ea810 f   USER2.obj
 0001:000e9ab0       ?StrToGuildItem@USER@@QAEXPAD@Z 004eaab0 f   USER2.obj
 0001:000e9c80       ?GuildItemToStr@USER@@QAEXPAD@Z 004eac80 f   USER2.obj
 0001:000e9e30       ?GuildItemMoveReq@USER@@QAEXPAD@Z 004eae30 f   USER2.obj
 0001:000e9ff0       ?GuildInPut@USER@@QAEXPAD@Z 004eaff0 f   USER2.obj
 0001:000eab80       ?GuildOutPut@USER@@QAEXPAD@Z 004ebb80 f   USER2.obj
 0001:000eb630       ?GuildInPutDN@USER@@QAEXPAD@Z 004ec630 f   USER2.obj
 0001:000eb8b0       ?GuildOutPutDN@USER@@QAEXPAD@Z 004ec8b0 f   USER2.obj
 0001:000ebb60       ?UpdateGuildWarehouse@USER@@QAEHXZ 004ecb60 f   USER2.obj
 0001:000ebf60       ?SendEBodyOpen@USER@@QAEXH@Z 004ecf60 f   USER2.obj
 0001:000ebf70       ?EBodyBuyReq@USER@@QAEXPAD@Z 004ecf70 f   USER2.obj
 0001:000ebf80       ?GuildUserInfoReq@USER@@QAEXPAD@Z 004ecf80 f   USER2.obj
 0001:000ec2b0       ?GuildUserInfoReqzh@USER@@QAEXXZ 004ed2b0 f   USER2.obj
 0001:000ec5f0       ?GuildUserAllInforChat@USER@@QAEXXZ 004ed5f0 f   USER2.obj
 0001:000ec860       ?SendGuildUserInfo@USER@@QAEXH@Z 004ed860 f   USER2.obj
 0001:000ecd80       ?SetMemUserBank@USER@@IAEXPBD@Z 004edd80 f   USER2.obj
 0001:000ece80       ?SetMemAccountBank@USER@@QAEXPBD@Z 004ede80 f   USER2.obj
 0001:000ecf80       ?LoadMemUserBank@USER@@IAEHXZ 004edf80 f   USER2.obj
 0001:000ed080       ?LoadMemAccountBank@USER@@QAEHXZ 004ee080 f   USER2.obj
 0001:000ed190       ?UpdateMemBankDataOnly@USER@@IAEHXZ 004ee190 f   USER2.obj
 0001:000ed560       ?UpdateMemAccountBankDataOnly@USER@@QAEHXZ 004ee560 f   USER2.obj
 0001:000ed940       ?GuildChat@USER@@QAEXPAD@Z 004ee940 f   USER2.obj
 0001:000edb30       ?SendStoreTax@USER@@QAEXH@Z 004eeb30 f   USER2.obj
 0001:000edd20       ?SendGuildWarScheme@USER@@QAEXH@Z 004eed20 f   USER2.obj
 0001:000edf60       ?GetStoreTax@USER@@QAEXPAD@Z 004eef60 f   USER2.obj
 0001:000edfd0       ?SetGuildStoreTex@USER@@QAEXHH@Z 004eefd0 f   USER2.obj
 0001:000ee1c0       ?GetGuildWarScheme@USER@@QAEXPAD@Z 004ef1c0 f   USER2.obj
 0001:000ee220       ?SetStoreGuildWarScheme@USER@@QAEXPADH@Z 004ef220 f   USER2.obj
 0001:000ee620       ?SetFortressGuildWarScheme@USER@@QAEXPADH@Z 004ef620 f   USER2.obj
 0001:000eea40       ?DayCalculation@USER@@QAEHHHH@Z 004efa40 f   USER2.obj
 0001:000eeb60       ?StoppingTheGuildWar@USER@@QAEHPAVCStore@@@Z 004efb60 f   USER2.obj
 0001:000eeca0       ?UpdateGuildStore@USER@@QAEHHPAD@Z 004efca0 f   USER2.obj
 0001:000eeef0       ?BeginGuildWar@USER@@QAEXXZ 004efef0 f   USER2.obj
 0001:000eef10       ?EndGuildWar@USER@@QAEXE@Z 004eff10 f   USER2.obj
 0001:000eeff0       ?BeginFortressWar@USER@@QAEXXZ 004efff0 f   USER2.obj
 0001:000ef010       ?SendGuildMsgForAnnounceGuildWarEnd@USER@@QAEXPAVCStore@@@Z 004f0010 f   USER2.obj
 0001:000ef190       ?CheckJuminNumber@USER@@IAEHPBD0@Z 004f0190 f   USER2.obj
 0001:000ef490       ?UpdateMemStoreDN@USER@@IAEXHK@Z 004f0490 f   USER2.obj
 0001:000ef560       ?InitMemStore@USER@@IAEXPAVCStore@@@Z 004f0560 f   USER2.obj
 0001:000ef570       ?UpdateMemStoreTax@USER@@IAEXHH@Z 004f0570 f   USER2.obj
 0001:000ef650       ?UpdateMemStoreWarType@USER@@IAEXPAVCStore@@@Z 004f0650 f   USER2.obj
 0001:000ef660       ?UpdateMemFortressWarType@USER@@QAEXPAVCGuildFortress@@@Z 004f0660 f   USER2.obj
 0001:000ef710       ?UpdateMemStoreGuildList@USER@@QAEXPAVCStore@@@Z 004f0710 f   USER2.obj
 0001:000ef720       ?CheckInvalidMapType@USER@@QAEHXZ 004f0720 f   USER2.obj
 0001:000ef810       ?CheckInvalidZoneState@USER@@QAEHH@Z 004f0810 f   USER2.obj
 0001:000ef8c0       ?CheckInvakidZoneChangeState@USER@@QAEHH@Z 004f08c0 f   USER2.obj
 0001:000ef9d0       ?SendServerTick@USER@@QAEXXZ 004f09d0 f   USER2.obj
 0001:000ef9e0       ?UpdateGuildStoreWarTime@USER@@QAEHPAVCStore@@@Z 004f09e0 f   USER2.obj
 0001:000efe20       ?UpdateGuildFortressWarTime@USER@@QAEHPAVCGuildFortress@@@Z 004f0e20 f   USER2.obj
 0001:000f0260       ?SendGuildWarFieldApply@USER@@QAEXPAD@Z 004f1260 f   USER2.obj
 0001:000f0670       ?SendGuildWarFieldApplyResult@USER@@QAEXPAD@Z 004f1670 f   USER2.obj
 0001:000f0a90       ?SendGuildFieldWarBegin@USER@@QAEXXZ 004f1a90 f   USER2.obj
 0001:000f0c60       ?SendGuildWarFieldEnd@USER@@QAEXPAD@Z 004f1c60 f   USER2.obj
 0001:000f0e00       ?CheckServerTest@USER@@QAEXXZ 004f1e00 f   USER2.obj
 0001:000f1080       ?AnnounceNotice@USER@@QAEXPAD@Z 004f2080 f   USER2.obj
 0001:000f1220       ?SendCityRank@USER@@QAEXH@Z 004f2220 f   USER2.obj
 0001:000f1350       ?ConvertCurTimeToSaveTime@USER@@QAEKXZ 004f2350 f   USER2.obj
 0001:000f14a0       ?MassZoneMove@USER@@QAEXPAD@Z 004f24a0 f   USER2.obj
 0001:000f1c80       ?GetCityNumForVirtualRoom@USER@@QAEHH@Z 004f2c80 f   USER2.obj
 0001:000f1cc0       ?GetVirtualRoomNum@USER@@QAEHH@Z 004f2cc0 f   USER2.obj
 0001:000f1d20       ?SendGuildHouseRank@USER@@QAEXHH@Z 004f2d20 f   USER2.obj
 0001:000f22b0       ?MarkRobItem@USER@@QAEXH@Z 004f32b0 f   USER2.obj
 0001:000f3800       ?CheckQuestEventZoneWarEnd@USER@@QAEXXZ 004f4800 f   USER2.obj
 0001:000f3820       ?CheckGuildHouseWarEnd@USER@@QAEXXZ 004f4820 f   USER2.obj
 0001:000f3900       ?CheckGuildUserListInGuildHouseWar@USER@@QAEXXZ 004f4900 f   USER2.obj
 0001:000f3b60       ?CheckInvalidGuildZone@USER@@QAEXXZ 004f4b60 f   USER2.obj
 0001:000f3f00       ?CheckMemoryDB@USER@@QAEHPAD@Z 004f4f00 f   USER2.obj
 0001:000f4320       ?GetTownPotal@USER@@QAE?AVCPoint@@AAHH@Z 004f5320 f   USER2.obj
 0001:000f4830       ?CheckSpeedHack@USER@@IAEXXZ 004f5830 f   USER2.obj
 0001:000f48d0       ?DeleteGuildDB@USER@@QAEHXZ 004f58d0 f   USER2.obj
 0001:000f4b00       ?SockCloseProcess@USER@@UAEHH@Z 004f5b00 f   USER2.obj
 0001:000f4c00       ?OnClose@USER@@UAEXH@Z     004f5c00 f   USER2.obj
 0001:000f4c20       ?OnSend@USER@@UAEXH@Z      004f5c20 f   USER2.obj
 0001:000f4c70       ?AcceptProcess@USER@@QAEHXZ 004f5c70 f   USER2.obj
 0001:000f4c80       ?StopAction@USER@@UAEXXZ   004f5c80 f   USER2.obj
 0001:000f4c90       ?CheckGuildHouseUser@USER@@QAEHH@Z 004f5c90 f   USER2.obj
 0001:000f4d70       ?TeleportReq@USER@@QAEXXZ  004f5d70 f   USER2.obj
 0001:000f4fb0       ?StrToUserTel@USER@@QAEXPAD@Z 004f5fb0 f   USER2.obj
 0001:000f50e0       ?UserTelToStr@USER@@QAEXPAD@Z 004f60e0 f   USER2.obj
 0001:000f51f0       ?InitTelList@USER@@QAEXPAUTeleportList@@@Z 004f61f0 f   USER2.obj
 0001:000f52b0       ?TelportEdit@USER@@QAEXPAD@Z 004f62b0 f   USER2.obj
 0001:000f5bb0       ?ChangeUserSpeed@USER@@QAEXPADH@Z 004f6bb0 f   USER2.obj
 0001:000f5c70       ?GetHanyGate@USER@@QAEXHH@Z 004f6c70 f   USER2.obj
 0001:000f64c0       ?CheckHandyGate@USER@@QAEHXZ 004f74c0 f   USER2.obj
 0001:000f6560       ?SendCopyTel@USER@@QAEHHHHH@Z 004f7560 f   USER2.obj
 0001:000f6780       ?CheckCopyChip@USER@@QAEHXZ 004f7780 f   USER2.obj
 0001:000f6840       ?DoubleCopyTel@USER@@QAEXHHHH@Z 004f7840 f   USER2.obj
 0001:000f6cd0       ?IsMovableTel_S@USER@@QAEHHHH@Z 004f7cd0 f   USER2.obj
 0001:000f70d0       ?ShowCurrentUser@USER@@IAEXXZ 004f80d0 f   USER2.obj
 0001:000f7220       ?ExecuteChatCommand@USER@@QAEXPADH@Z 004f8220 f   USER2.obj
 0001:000ffe10       ?FindInventItem@USER@@QAEHH@Z 00500e10 f   USER2.obj
 0001:000ffe60       ?MarkJiXieHe@USER@@QAEXXZ  00500e60 f   USER2.obj
 0001:001001b0       ?Closeuser@USER@@QAEXH@Z   005011b0 f   USER2.obj
 0001:00100290       ?FengHao@USER@@QAEXH@Z     00501290 f   USER2.obj
 0001:00100390       ?Fchuuser@USER@@QAEXXZ     00501390 f   USER2.obj
 0001:001004d0       ?RandChouJiang@USER@@IAEHXZ 005014d0 f   USER2.obj
 0001:001004e0       ?OpenOnShop@USER@@QAEHXZ   005014e0 f   USER2.obj
 0001:00100560       ?OpenOnWeb@USER@@QAEHXZ    00501560 f   USER2.obj
 0001:00100630       ?BaiJiHuangYuan@USER@@IAEXHH@Z 00501630 f   USER2.obj
 0001:00100df0       ?EventUpgradeItemReq@USER@@QAEXPAD@Z 00501df0 f   USER2.obj
 0001:00101560       ?CheckEventItem@USER@@QAEHAAHHH@Z 00502560 f   USER2.obj
 0001:00101750       ?UpdateEventItem@USER@@QAEHH@Z 00502750 f   USER2.obj
 0001:001019c0       ?GiveEventItem@USER@@QAEXHHHH@Z 005029c0 f   USER2.obj
 0001:00101df0       ?GiveItem@USER@@QAEHHH@Z   00502df0 f   USER2.obj
 0001:001020d0       ?GiveTaoZhuangItem@USER@@QAEXHHHHHHHHH@Z 005030d0 f   USER2.obj
 0001:001024c0       ?GiveItemiGuild@USER@@QAEHHHHHHHHH@Z 005034c0 f   USER2.obj
 0001:00102b80       ?GiveItemAll@USER@@QAEHHHHHHHHHHHHHH@Z 00503b80 f   USER2.obj
 0001:001033d0       ?StoppingTheFortressWar@USER@@QAEXPAVCGuildFortress@@@Z 005043d0 f   USER2.obj
 0001:00103840       ?UpdateFortress@USER@@QAEHPAVCGuildFortress@@@Z 00504840 f   USER2.obj
 0001:00103a90       ?UpdateHighEventLevelUser@USER@@QAEXF@Z 00504a90 f   USER2.obj
 0001:00103cb0       ?UpdateEventLevelUser@USER@@QAEXF@Z 00504cb0 f   USER2.obj
 0001:00103ed0       ?SetTempStoreDN@USER@@QAEXKH@Z 00504ed0 f   USER2.obj
 0001:001040e0       ?AddressWindowOpen@USER@@QAEXHH@Z 005050e0 f   USER2.obj
 0001:001041a0       ?RecvAddress@USER@@QAEXPAD@Z 005051a0 f   USER2.obj
 0001:001048e0       ?GetResource@USER@@QAEXXZ  005058e0 f   USER2.obj
 0001:00104b30       ?SendFortressAttackGuildList@USER@@QAEXPAD@Z 00505b30 f   USER2.obj
 0001:00104eb0       ?SendRepairItem@USER@@QAEXH@Z 00505eb0 f   USER2.obj
 0001:00105140       ?SendPeopleSay@USER@@QAEXH@Z 00506140 f   USER2.obj
 0001:001052c0       ?UpdateMemRepairNpc@USER@@QAEXH@Z 005062c0 f   USER2.obj
 0001:001053c0       ?UpdateMemAttackListNpc@USER@@QAEXH@Z 005063c0 f   USER2.obj
 0001:001053d0       ?CheckInGuildWarring@USER@@QAEHXZ 005063d0 f   USER2.obj
 0001:00105550       ?SocketDisConnect@USER@@UAEHXZ 00506550 f   USER2.obj
 0001:00105670       ?CheckGuildUserInFortress@USER@@QAEXXZ 00506670 f   USER2.obj
 0001:001057c0       ?AddGuildUserInFortress@USER@@QAEXPAV1@@Z 005067c0 f   USER2.obj
 0001:00105960       ?DelGuildUserInFortress@USER@@QAEXPADH@Z 00506960 f   USER2.obj
 0001:00105af0       ?CheckGuildWarArea@USER@@QAEHXZ 00506af0 f   USER2.obj
 0001:00105bc0       ?OpenFortressDoor@USER@@QAEXXZ 00506bc0 f   USER2.obj
 0001:00105e00       ?GetZoneInfo@USER@@QAEPAU_ZONEINFO@@H@Z 00506e00 f   USER2.obj
 0001:00105e80       ?GetCheckValidTime@USER@@QAEXXZ 00506e80 f   USER2.obj
 0001:00106240       ?DeputeGuildMasterOfPower@USER@@QAEXPAD@Z 00507240 f   USER2.obj
 0001:001066f0       ?RemoveGuildMasterOfPower@USER@@QAEXPAD@Z 005076f0 f   USER2.obj
 0001:00106a60       ?UpdateGuildSubMaster@USER@@QAEHPADH@Z 00507a60 f   USER2.obj
 0001:00106cc0       ?EncryptionStartReq@USER@@QAEXPAD@Z 00507cc0 f   USER2.obj
 0001:00106da0       ?SetPublicKey@USER@@QAEXXZ 00507da0 f   USER2.obj
 0001:00107060       ?SendGuildInviteReq@USER@@QAEXPAD@Z 00508060 f   USER2.obj
 0001:00107330       ?GuildInviteResult@USER@@QAEXPAD@Z 00508330 f   USER2.obj
 0001:001075e0       ?LoveName@USER@@QAEXPAD@Z  005085e0 f   USER2.obj
 0001:00107d20       ?CheckClassItem@USER@@QAEHEE@Z 00508d20 f   USER2.obj
 0001:00107df0       ?MoonEvent@USER@@IAEHF@Z   00508df0 f   USER2.obj
 0001:001087a0       ?SummonMonster@USER@@QAEHV?$CStringT@DV?$StrTraitMFC@DV?$ChTraitsCRT@D@ATL@@@@@ATL@@VCPoint@@@Z 005097a0 f   USER2.obj
 0001:00108c00       ?GetItemIndex@USER@@QAEHH@Z 00509c00 f   USER2.obj
 0001:00108c60       ?SoftClose@USER@@QAEXXZ    00509c60 f   USER2.obj
 0001:00108c80       ?UseSpecialPotion@USER@@IAEEF@Z 00509c80 f   USER2.obj
 0001:0010c700       ?BianShen@USER@@QAEXH@Z    0050d700 f   USER2.obj
 0001:0010c9c0       ?HuanYuanBianShen@USER@@QAEXXZ 0050d9c0 f   USER2.obj
 0001:0010cae0       ?ResultGuardianDuration@USER@@QAEXXZ 0050dae0 f   USER2.obj
 0001:0010cc40       ?ResultFuShouDuration@USER@@QAEXXZ 0050dc40 f   USER2.obj
 0001:0010cd90       ?SendAccessoriDuration@USER@@QAEXF@Z 0050dd90 f   USER2.obj
 0001:0010d0c0       ?SendDGDuration@USER@@QAEXFH@Z 0050e0c0 f   USER2.obj
 0001:0010d350       ?UsePsiStone@USER@@IAEHF@Z 0050e350 f   USER2.obj
 0001:0010e020       ?QuestWindowOpenReq@USER@@QAEXXZ 0050f020 f   USER2.obj
 0001:0010e110       ?SendMonsterSay@USER@@QAEXPAVCNpc@@HPAD@Z 0050f110 f   USER2.obj
 0001:0010e260       ?ExcuteSingleQuestEvent@USER@@QAEHHHHHHHH@Z 0050f260 f   USER2.obj
 0001:0010e3a0       ?SummonQuestMonster@USER@@QAEHHHHH@Z 0050f3a0 f   USER2.obj
 0001:0010e900       ?CheckZoneWho@USER@@QAEHHHH@Z 0050f900 f   USER2.obj
 0001:0010e990       ?SendCharDataToOPUser@USER@@QAEXPAV1@@Z 0050f990 f   USER2.obj
 0001:0010f290       ?WriteOpratorLog@USER@@QAEXPADH@Z 00510290 f   USER2.obj
 0001:0010f450       ?SetPsiOne@USER@@IAEXEK@Z  00510450 f   USER2.obj
 0001:0010f5d0       ?SetPsiTwo@USER@@IAEXEK@Z  005105d0 f   USER2.obj
 0001:0010f650       ?SetPsiThree@USER@@IAEXEK@Z 00510650 f   USER2.obj
 0001:0010f690       ?InvaderSummon@USER@@IAEHE@Z 00510690 f   USER2.obj
 0001:0010fae0       ?RemagicItemReq@USER@@IAEXPADH@Z 00510ae0 f   USER2.obj
 0001:00110730       ?GetMagicOption@USER@@IAEHPAVItemList@@EE@Z 00511730 f   USER2.obj
 0001:00110af0       ?CheckClassWear@USER@@IAEHHH@Z 00511af0 f   USER2.obj
 0001:00110cb0       ?EBodyUpgradeReq@USER@@IAEXPAD@Z 00511cb0 f   USER2.obj
 0001:00111920       ?EBodyIdentifyOpen@USER@@IAEXH@Z 00512920 f   USER2.obj
 0001:00111ad0       ?EBodyIdentifyReq@USER@@IAEXPAD@Z 00512ad0 f   USER2.obj
 0001:00112410       ?ScreenCaptureReq@USER@@IAEXXZ 00513410 f   USER2.obj
 0001:001124f0       ?ExpressionReq@USER@@IAEXPAD@Z 005134f0 f   USER2.obj
 0001:00112600       ?ExpressionOpen@USER@@IAEXXZ 00513600 f   USER2.obj
 0001:001126a0       ?SendHelperCure@USER@@IAEXXZ 005136a0 f   USER2.obj
 0001:00112c40       ?TogglePKButton@USER@@IAEXPAD@Z 00513c40 f   USER2.obj
 0001:00112db0       ?GivePSI@USER@@IAEHEH@Z    00513db0 f   USER2.obj
 0001:00113070       ?PersonalShopReq@USER@@IAEXPAD@Z 00514070 f   USER2.obj
 0001:00114210       ?PersonalShopOpen@USER@@IAEXXZ 00515210 f   USER2.obj
 0001:001144c0       ?PersonalShopClose@USER@@IAEXXZ 005154c0 f   USER2.obj
 0001:00114580       ?ViewYuanBaoShop@USER@@IAEXH@Z 00515580 f   USER2.obj
 0001:00114930       ?ViewPersonalShop@USER@@IAEXEH@Z 00515930 f   USER2.obj
 0001:00114f50       ?PersonalShopBuy@USER@@IAEXPAD@Z 00515f50 f   USER2.obj
 0001:00118660       ?GetTransformOption@USER@@IAEHPAVItemList@@@Z 00519660 f   USER2.obj
 0001:001189a0       ?TransformWindow@USER@@IAEXXZ 005199a0 f   USER2.obj
 0001:00118a50       ?TransformReq@USER@@IAEXPAD@Z 00519a50 f   USER2.obj
 0001:00118d40       ?CheckZuanShi@USER@@IAEHH@Z 00519d40 f   USER2.obj
 0001:00118e30       ?EmoGuangChang@USER@@QAEXXZ 00519e30 f   USER2.obj
 0001:00118ed0       ?MarkLingQuCZ@USER@@QAEXXZ 00519ed0 f   USER2.obj
 0001:00118ee0       ?SubTaxRate@USER@@QAEKKF@Z 00519ee0 f   USER2.obj
 0001:00118f50       ?AddTaxToGuildBank@USER@@QAEXKF@Z 00519f50 f   USER2.obj
 0001:00119330       ?UpdateTaxToDN@USER@@QAEXPAVCGuildFortress@@H@Z 0051a330 f   USER2.obj
 0001:001194b0       ?MarkJayHuoDong@USER@@QAEXH@Z 0051a4b0 f   USER2.obj
 0001:0011b940       ?SetNewGongNeng@USER@@QAEXH@Z 0051c940 f   USER2.obj
 0001:0011bcd0       ?SendSysWhisperChat@USER@@IAEXPAD@Z 0051ccd0 f   USER2.obj
 0001:0011be20       ?UpdateUserName@USER@@QAEHPAD0@Z 0051ce20 f   USER2.obj
 0001:0011bfe0       ?DeleteMarkCharBanIP@USER@@QAEHPAD@Z 0051cfe0 f   USER2.obj
 0001:0011c190       ?CheckBadItem@USER@@QAEXXZ 0051d190 f   USER2.obj
 0001:0011c300       ?ResetJiaoBenCheck@USER@@QAEXXZ 0051d300 f   USER2.obj
 0001:0011c340       ?MarkCzSay@USER@@QAEXXZ    0051d340 f   USER2.obj
 0001:0011c560       ?SetCardTime@USER@@QAEXXZ  0051d560 f   USER2.obj
 0001:0011c710       ?SetHuiYuanTime@USER@@QAEXXZ 0051d710 f   USER2.obj
 0001:0011c880       ?ChangeAttributeItem@USER@@QAEXHHHHHHHHHHHHHHHHHHHHHHHH@Z 0051d880 f   USER2.obj
 0001:0011cdc0       ?UpgradeFuShouReq@USER@@QAEXFF@Z 0051ddc0 f   USER2.obj
 0001:0011d360       ?AddMagicPoint@USER@@QAEXF@Z 0051e360 f   USER2.obj
 0001:0011d3f0       ?AutoYiJianChuShou@USER@@QAEXXZ 0051e3f0 f   USER2.obj
 0001:0011e790       ?SendItemLoadResult@USER@@QAEXPAVCWordArray@@E@Z 0051f790 f   USER2.obj
 0001:0011e970       ?ChangeLoveName@USER@@QAEXXZ 0051f970 f   USER2.obj
 0001:0011ed00       ??0?$CTypedPtrArray@VCPtrArray@@PAU_DRESSING_RESULT@@@@QAE@XZ 0051fd00 f i USER2.obj
 0001:0011ed20       ??0_ITEMLOG@@QAE@XZ        0051fd20 f i USER2.obj
 0001:0011ed40       ??ACDWordArray@@QAEAAKH@Z  0051fd40 f i COM.obj
 0001:0011ed40       ??ACPtrArray@@QAEAAPAXH@Z  0051fd40 f i CELL.obj
 0001:0011ed40       ??ACUIntArray@@QAEAAIH@Z   0051fd40 f i USER2.obj
 0001:0011ed60       ?ElementAt@CDWordArray@@QAEAAKH@Z 0051fd60 f i COM.obj
 0001:0011ed60       ?ElementAt@CPtrArray@@QAEAAPAXH@Z 0051fd60 f i CELL.obj
 0001:0011ed60       ?ElementAt@CUIntArray@@QAEAAIH@Z 0051fd60 f i USER2.obj
 0001:0011ed90       ??0__LOGINOUTTHREAD@@QAE@XZ 0051fd90 f i USER2.obj
 0001:0011edc0       ??0ExchangeItem@@QAE@XZ    0051fdc0 f i USER.obj
 0001:0011edc0       ??0ShopItem@@QAE@XZ        0051fdc0 f i USER2.obj
 0001:0011ede0       ?Insert@?$CStringT@DV?$StrTraitMFC@DV?$ChTraitsCRT@D@ATL@@@@@ATL@@QAEHHD@Z 0051fde0 f i USER2.obj
 0001:0011ee80       ?Find@?$CStringT@DV?$StrTraitMFC@DV?$ChTraitsCRT@D@ATL@@@@@ATL@@QBEHPBDH@Z 0051fe80 f i USER2.obj
 0001:0011ef00       ?ReverseFind@?$CStringT@DV?$StrTraitMFC@DV?$ChTraitsCRT@D@ATL@@@@@ATL@@QBEHD@Z 0051ff00 f i USER2.obj
 0001:0011ef50       ?MakeLower@?$CStringT@DV?$StrTraitMFC@DV?$ChTraitsCRT@D@ATL@@@@@ATL@@QAEAAV12@XZ 0051ff50 f i USER2.obj
 0001:0011efa0       ??9ATL@@YA_NABV?$CStringT@DV?$StrTraitMFC@DV?$ChTraitsCRT@D@ATL@@@@@0@0@Z 0051ffa0 f i USER2.obj
 0001:0011efc0       ?StringFindCharRev@?$ChTraitsCRT@D@ATL@@SAPBDPBDD@Z 0051ffc0 f i USER2.obj
 0001:0011efe0       ?StringLowercase@?$ChTraitsCRT@D@ATL@@SAPADPADI@Z 0051ffe0 f i USER2.obj
 0001:0011f000       ?mbslwr_s@Checked@ATL@@YAXPAEI@Z 00520000 f i USER2.obj
 0001:0011f020       ??$_snprintf_s@$0BPEA@@@YAHAAY0BPEA@DIPBDZZ 00520020 f i USER2.obj
 0001:0011f050       ?GetRuntimeClass@CUserLevelUpSet@@UBEPAUCRuntimeClass@@XZ 00520050 f   UserLevelUpSet.obj
 0001:0011f060       ??0CUserLevelUpSet@@QAE@PAVCDatabase@@@Z 00520060 f   UserLevelUpSet.obj
 0001:0011f0f0       ?GetDefaultConnect@CUserLevelUpSet@@UAE?AV?$CStringT@DV?$StrTraitMFC@DV?$ChTraitsCRT@D@ATL@@@@@ATL@@XZ 005200f0 f   UserLevelUpSet.obj
 0001:0011f120       ?GetDefaultSQL@CUserLevelUpSet@@UAE?AV?$CStringT@DV?$StrTraitMFC@DV?$ChTraitsCRT@D@ATL@@@@@ATL@@XZ 00520120 f   UserLevelUpSet.obj
 0001:0011f150       ?DoFieldExchange@CUserLevelUpSet@@UAEXPAVCFieldExchange@@@Z 00520150 f   UserLevelUpSet.obj
 0001:0011f200       ??0CUserLevelUpTable@@QAE@XZ 00520200 f   UserLevelUpTable.obj
 0001:0011f260       ??1CUserLevelUpTable@@UAE@XZ 00520260 f   UserLevelUpTable.obj
 0001:0011f280       ??_GCUserLevelUpTable@@UAEPAXI@Z 00520280 f i UserLevelUpTable.obj
 0001:0011f280       ??_ECUserLevelUpTable@@UAEPAXI@Z 00520280 f i UserLevelUpTable.obj
 0001:0011f2b0       ??0CUserManager@@QAE@XZ    005202b0 f   UserManager.obj
 0001:0011f2d0       ??1CUserManager@@QAE@XZ    005202d0 f   UserManager.obj
 0001:0011f2f0       ?ResourceFree@CUserManager@@QAEXH@Z 005202f0 f   UserManager.obj
 0001:0011f340       ??0CValItemTable@@QAE@XZ   00520340 f   ValItemTable.obj
 0001:0011f3d0       ??1CValItemTable@@UAE@XZ   005203d0 f   ValItemTable.obj
 0001:0011f3f0       ??_GCValItemTable@@UAEPAXI@Z 005203f0 f i ValItemTable.obj
 0001:0011f3f0       ??_ECValItemTable@@UAEPAXI@Z 005203f0 f i ValItemTable.obj
 0001:0011f420       ?GetRuntimeClass@CValItemTableSet@@UBEPAUCRuntimeClass@@XZ 00520420 f   ValItemTableSet.obj
 0001:0011f430       ??0CValItemTableSet@@QAE@PAVCDatabase@@@Z 00520430 f   ValItemTableSet.obj
 0001:0011f510       ?GetDefaultConnect@CValItemTableSet@@UAE?AV?$CStringT@DV?$StrTraitMFC@DV?$ChTraitsCRT@D@ATL@@@@@ATL@@XZ 00520510 f   ValItemTableSet.obj
 0001:0011f540       ?GetDefaultSQL@CValItemTableSet@@UAE?AV?$CStringT@DV?$StrTraitMFC@DV?$ChTraitsCRT@D@ATL@@@@@ATL@@XZ 00520540 f   ValItemTableSet.obj
 0001:0011f570       ?DoFieldExchange@CValItemTableSet@@UAEXPAVCFieldExchange@@@Z 00520570 f   ValItemTableSet.obj
 0001:0011f6c0       ??0VIPPay@@QAE@XZ          005206c0 f   VIPPay.obj
 0001:0011f710       ??1VIPPay@@UAE@XZ          00520710 f   VIPPay.obj
 0001:0011f730       ??_EVIPPay@@UAEPAXI@Z      00520730 f i VIPPay.obj
 0001:0011f730       ??_GVIPPay@@UAEPAXI@Z      00520730 f i VIPPay.obj
 0001:0011f760       ??0CVirtualRoom@@QAE@XZ    00520760 f   VirtualRoom.obj
 0001:0011f780       ??1CVirtualRoom@@UAE@XZ    00520780 f   VirtualRoom.obj
 0001:0011f7a0       ??_ECVirtualRoom@@UAEPAXI@Z 005207a0 f i VirtualRoom.obj
 0001:0011f7a0       ??_GCVirtualRoom@@UAEPAXI@Z 005207a0 f i VirtualRoom.obj
 0001:0011f7d0       ?GetRuntimeClass@CZoneInfoSet@@UBEPAUCRuntimeClass@@XZ 005207d0 f   ZoneInfoSet.obj
 0001:0011f7e0       ??0CZoneInfoSet@@QAE@PAVCDatabase@@@Z 005207e0 f   ZoneInfoSet.obj
 0001:0011f890       ?GetDefaultConnect@CZoneInfoSet@@UAE?AV?$CStringT@DV?$StrTraitMFC@DV?$ChTraitsCRT@D@ATL@@@@@ATL@@XZ 00520890 f   ZoneInfoSet.obj
 0001:0011f8c0       ?GetDefaultSQL@CZoneInfoSet@@UAE?AV?$CStringT@DV?$StrTraitMFC@DV?$ChTraitsCRT@D@ATL@@@@@ATL@@XZ 005208c0 f   ZoneInfoSet.obj
 0001:0011f8f0       ?DoFieldExchange@CZoneInfoSet@@UAEXPAVCFieldExchange@@@Z 005208f0 f   ZoneInfoSet.obj
 0001:0011f9e0       ??0CJvCryption@@QAE@XZ     005209e0 f   JvCryption:JvCryption.obj
 0001:0011fa00       ??1CJvCryption@@QAE@XZ     00520a00 f   JvCryption:JvCryption.obj
 0001:0011fa10       _crc32                     00520a10 f   IMPLODE:crc32.obj
 0001:0011fa50       _implode                   00520a50 f   IMPLODE:implode.obj
 0001:00120530       _explode                   00521530 f   IMPLODE:explode.obj
 0001:00120ba4       ?AfxNewHandler@@YAHI@Z     00521ba4 f   nafxcw:afxmem.obj
 0001:00120ba9       ?AfxSetNewHandler@@YGP6AHI@ZP6AHI@Z@Z 00521ba9 f   nafxcw:afxmem.obj
 0001:00120bc0       ??2@YAPAXI@Z               00521bc0 f   nafxcw:afxmem.obj
 0001:00120bef       ??_U@YAPAXI@Z              00521bef f   nafxcw:afxmem.obj
 0001:00120bfa       ??_V@YAXPAX@Z              00521bfa f   nafxcw:afxmem.obj
 0001:00120bfa       ??3@YAXPAX@Z               00521bfa f   nafxcw:afxmem.obj
 0001:00120c05       ?GetRuntimeClass@CWordArray@@UBEPAUCRuntimeClass@@XZ 00521c05 f   nafxcw:array_w.obj
 0001:00120c0b       ??0CWordArray@@QAE@XZ      00521c0b f   nafxcw:array_w.obj
 0001:00120c22       ??1CWordArray@@UAE@XZ      00521c22 f   nafxcw:array_w.obj
 0001:00120c32       ?SetSize@CWordArray@@QAEXHH@Z 00521c32 f   nafxcw:array_w.obj
 0001:00120d51       ?SetAtGrow@CWordArray@@QAEXHG@Z 00521d51 f   nafxcw:array_w.obj
 0001:00120d87       ?Serialize@CWordArray@@UAEXAAVCArchive@@@Z 00521d87 f   nafxcw:array_w.obj
 0001:00120e1a       ?CreateObject@CWordArray@@SGPAVCObject@@XZ 00521e1a f   nafxcw:array_w.obj
 0001:00120e30       ??_ECWordArray@@UAEPAXI@Z  00521e30 f i nafxcw:array_w.obj
 0001:00120e30       ??_GCWordArray@@UAEPAXI@Z  00521e30 f i nafxcw:array_w.obj
 0001:00120e51       ?OnSetOptions@CDatabase@@UAEXPAX@Z 00521e51 f   nafxcw:dbcore.obj
 0001:00120e84       ?CheckHstmt@CDatabase@@QBGHFPAX@Z 00521e84 f   nafxcw:dbcore.obj
 0001:00120ea6       ?VerifyConnect@CDatabase@@IAEXXZ 00521ea6 f   nafxcw:dbcore.obj
 0001:00120f32       ?GetConnectInfo@CDatabase@@IAEXXZ 00521f32 f   nafxcw:dbcore.obj
 0001:0012111d       ?Cancel@CRecordset@@QAEXXZ 0052211d f   nafxcw:dbcore.obj
 0001:0012113c       ?tcsncpy_s@Checked@ATL@@YAHPADIPBDI@Z 0052213c f i nafxcw:dbcore.obj
 0001:0012115d       ?mbsupr_s@Checked@ATL@@YAXPAEI@Z 0052215d f i nafxcw:dbcore.obj
 0001:00121178       ?Check@CRecordset@@UBEHF@Z 00522178 f   nafxcw:dbcore.obj
 0001:0012119d       ?VerifyDriverBehavior@CRecordset@@IAEXXZ 0052219d f   nafxcw:dbcore.obj
 0001:00121254       ?VerifyCursorSupport@CRecordset@@IAEKXZ 00522254 f   nafxcw:dbcore.obj
 0001:001212f3       ?AllocRowset@CRecordset@@IAEXXZ 005222f3 f   nafxcw:dbcore.obj
 0001:00121328       ?FreeRowset@CRecordset@@IAEXXZ 00522328 f   nafxcw:dbcore.obj
 0001:00121382       ?SetUpdateMethod@CRecordset@@IAEXXZ 00522382 f   nafxcw:dbcore.obj
 0001:001213ad       ?SetConcurrencyAndCursorType@CRecordset@@IAEXPAXK@Z 005223ad f   nafxcw:dbcore.obj
 0001:001214ac       ?ResetCursor@CRecordset@@QAEXXZ 005224ac f   nafxcw:dbcore.obj
 0001:001214d4       ?AllocStatusArrays@CRecordset@@QAEXXZ 005224d4 f   nafxcw:dbcore.obj
 0001:001215b9       ?GetBoundFieldIndex@CRecordset@@QAEHPAX@Z 005225b9 f   nafxcw:dbcore.obj
 0001:001215dd       ?GetBoundParamIndex@CRecordset@@QAEHPAX@Z 005225dd f   nafxcw:dbcore.obj
 0001:00121601       ?GetFieldLengthBuffer@CRecordset@@QAEPAJKH@Z 00522601 f   nafxcw:dbcore.obj
 0001:00121642       ?GetFieldStatus@CRecordset@@QAEEK@Z 00522642 f   nafxcw:dbcore.obj
 0001:00121667       ?SetFieldStatus@CRecordset@@QAEXKE@Z 00522667 f   nafxcw:dbcore.obj
 0001:00121690       ?ClearFieldStatus@CRecordset@@QAEXXZ 00522690 f   nafxcw:dbcore.obj
 0001:001216a4       ?IsFieldStatusDirty@CRecordset@@QBEHK@Z 005226a4 f   nafxcw:dbcore.obj
 0001:001216cd       ?SetDirtyFieldStatus@CRecordset@@QAEXK@Z 005226cd f   nafxcw:dbcore.obj
 0001:001216f4       ?ClearDirtyFieldStatus@CRecordset@@QAEXK@Z 005226f4 f   nafxcw:dbcore.obj
 0001:0012171b       ?IsFieldStatusNull@CRecordset@@QBEHK@Z 0052271b f   nafxcw:dbcore.obj
 0001:00121744       ?SetNullFieldStatus@CRecordset@@QAEXK@Z 00522744 f   nafxcw:dbcore.obj
 0001:0012176b       ?ClearNullFieldStatus@CRecordset@@QAEXK@Z 0052276b f   nafxcw:dbcore.obj
 0001:00121792       ?IsParamStatusNull@CRecordset@@QBEHK@Z 00522792 f   nafxcw:dbcore.obj
 0001:001217bb       ?SetNullParamStatus@CRecordset@@QAEXK@Z 005227bb f   nafxcw:dbcore.obj
 0001:001217e2       ?ClearNullParamStatus@CRecordset@@QAEXK@Z 005227e2 f   nafxcw:dbcore.obj
 0001:00121809       ?BindParams@CRecordset@@QAEIPAX@Z 00522809 f   nafxcw:dbcore.obj
 0001:0012183a       ?RebindParams@CRecordset@@QAEXPAX@Z 0052283a f   nafxcw:dbcore.obj
 0001:0012186e       ?BindFieldsToColumns@CRecordset@@QAEIXZ 0052286e f   nafxcw:dbcore.obj
 0001:001218ab       ?BindFieldsForUpdate@CRecordset@@QAEXXZ 005228ab f   nafxcw:dbcore.obj
 0001:001218e7       ?UnbindFieldsForUpdate@CRecordset@@QAEXXZ 005228e7 f   nafxcw:dbcore.obj
 0001:00121923       ?Fixups@CRecordset@@QAEXXZ 00522923 f   nafxcw:dbcore.obj
 0001:0012194f       ?AppendNames@CRecordset@@QAEIPAV?$CStringT@DV?$StrTraitMFC@DV?$ChTraitsCRT@D@ATL@@@@@ATL@@PBD@Z 0052294f f   nafxcw:dbcore.obj
 0001:00121994       ?AppendNamesValues@CRecordset@@QAEIPAXPAV?$CStringT@DV?$StrTraitMFC@DV?$ChTraitsCRT@D@ATL@@@@@ATL@@PBD@Z 00522994 f   nafxcw:dbcore.obj
 0001:00121a04       ?AppendValues@CRecordset@@QAEIPAXPAV?$CStringT@DV?$StrTraitMFC@DV?$ChTraitsCRT@D@ATL@@@@@ATL@@PBD@Z 00522a04 f   nafxcw:dbcore.obj
 0001:00121a41       ?StoreFields@CRecordset@@QAEXXZ 00522a41 f   nafxcw:dbcore.obj
 0001:00121a67       ?LoadFields@CRecordset@@QAEXXZ 00522a67 f   nafxcw:dbcore.obj
 0001:00121a92       ?MarkForUpdate@CRecordset@@QAEXXZ 00522a92 f   nafxcw:dbcore.obj
 0001:00121ab8       ?MarkForAddNew@CRecordset@@QAEXXZ 00522ab8 f   nafxcw:dbcore.obj
 0001:00121ade       ?AllocDataCache@CRecordset@@QAEXXZ 00522ade f   nafxcw:dbcore.obj
 0001:00121b04       ?GetLBReallocSize@CRecordset@@MAEJJ@Z 00522b04 f   nafxcw:dbcore.obj
 0001:00121b04       ?GetLBFetchSize@CRecordset@@MAEJJ@Z 00522b04 f   nafxcw:dbcore.obj
 0001:00121b12       ?GetDefaultFieldType@CRecordset@@SGFF@Z 00522b12 f   nafxcw:dbcore.obj
 0001:00121ba5       ?GetTextLen@CRecordset@@SGJFK@Z 00522ba5 f   nafxcw:dbcore.obj
 0001:00121bed       ?_AfxSetCurrentRecord@@YGXPAJJF@Z 00522bed f   nafxcw:dbcore.obj
 0001:00121c17       ?_AfxSetRecordCount@@YGXPAJJHF@Z 00522c17 f   nafxcw:dbcore.obj
 0001:00121c4c       ?GetRuntimeClass@CDBException@@UBEPAUCRuntimeClass@@XZ 00522c4c f   nafxcw:dbcore.obj
 0001:00121c52       ?GetRuntimeClass@CDatabase@@UBEPAUCRuntimeClass@@XZ 00522c52 f   nafxcw:dbcore.obj
 0001:00121c58       ?GetRuntimeClass@CRecordset@@UBEPAUCRuntimeClass@@XZ 00522c58 f   nafxcw:dbcore.obj
 0001:00121c5e       ?StringUppercase@?$ChTraitsCRT@D@ATL@@SAPADPADI@Z 00522c5e f i nafxcw:dbcore.obj
 0001:00121c75       ?CopyChars@?$CSimpleStringT@_W$0A@@ATL@@SAXPA_WIPB_WH@Z 00522c75 f i nafxcw:dbcore.obj
 0001:00121c96       ?ThrowMemoryException@?$CSimpleStringT@_W$0A@@ATL@@KAXXZ 00522c96 f i nafxcw:dbcore.obj
 0001:00121ca1       ?StringLengthN@?$CSimpleStringT@_W$0A@@ATL@@SAHPB_WI@Z 00522ca1 f i nafxcw:dbcore.obj
 0001:00121cb6       ?GetErrorMessage@CDBException@@UBEHPADIPAI@Z 00522cb6 f   nafxcw:dbcore.obj
 0001:00121cf9       ?Check@CDatabase@@UBEHF@Z  00522cf9 f   nafxcw:dbcore.obj
 0001:00121d0d       ?ReplaceBrackets@CDatabase@@QAEXPAD@Z 00522d0d f   nafxcw:dbcore.obj
 0001:00121dc1       ?IsFieldDirty@CRecordset@@QAEHPAX@Z 00522dc1 f   nafxcw:dbcore.obj
 0001:00121e2e       ?Edit@CRecordset@@UAEXXZ   00522e2e f   nafxcw:dbcore.obj
 0001:00121eed       ?SetFieldDirty@CRecordset@@QAEXPAXH@Z 00522eed f   nafxcw:dbcore.obj
 0001:00121f36       ?SetFieldNull@CRecordset@@QAEXPAXH@Z 00522f36 f   nafxcw:dbcore.obj
 0001:00121f97       ?EnableBookmarks@CRecordset@@IAEXXZ 00522f97 f   nafxcw:dbcore.obj
 0001:00121fe0       ?InitRecord@CRecordset@@QAEXXZ 00522fe0 f   nafxcw:dbcore.obj
 0001:00122013       ?CheckRowsetCurrencyStatus@CRecordset@@QAEXGJ@Z 00523013 f   nafxcw:dbcore.obj
 0001:001220a6       ?FetchData@CRecordset@@QAEFGJPAK@Z 005230a6 f   nafxcw:dbcore.obj
 0001:0012213e       ?SkipDeletedRecords@CRecordset@@QAEXGJPAKPAF@Z 0052313e f   nafxcw:dbcore.obj
 0001:001221f2       ?SetRowsetCurrencyStatus@CRecordset@@UAEXFGJK@Z 005231f2 f   nafxcw:dbcore.obj
 0001:001223ef       ?SetLength@?$CSimpleStringT@_W$0A@@ATL@@AAEXH@Z 005233ef f i nafxcw:dbcore.obj
 0001:0012241c       ?Fork@?$CSimpleStringT@_W$0A@@ATL@@AAEXH@Z 0052341c f i nafxcw:dbcore.obj
 0001:00122486       ?Reallocate@?$CSimpleStringT@_W$0A@@ATL@@AAEXH@Z 00523486 f i nafxcw:dbcore.obj
 0001:001224bf       ?Empty@?$CSimpleStringT@_W$0A@@ATL@@QAEXXZ 005234bf f i nafxcw:dbcore.obj
 0001:001224f6       ?ReleaseBuffer@?$CSimpleStringT@_W$0A@@ATL@@QAEXH@Z 005234f6 f i nafxcw:dbcore.obj
 0001:00122520       ?Move@CRecordset@@UAEXJG@Z 00523520 f   nafxcw:dbcore.obj
 0001:001225fc       ?AddNew@CRecordset@@UAEXXZ 005235fc f   nafxcw:dbcore.obj
 0001:00122660       ?OnSetOptions@CRecordset@@UAEXPAX@Z 00523660 f   nafxcw:dbcore.obj
 0001:001226c7       ??0?$CSimpleStringT@_W$0A@@ATL@@QAE@PAUIAtlStringMgr@1@@Z 005236c7 f i nafxcw:dbcore.obj
 0001:001226f1       ?CreateObject@?$CProcessLocal@V_AFX_DB_STATE@@@@SGPAVCNoTrackObject@@XZ 005236f1 f i nafxcw:dbcore.obj
 0001:00122706       ??_G_AFX_DB_STATE@@UAEPAXI@Z 00523706 f i nafxcw:dbcore.obj
 0001:00122706       ??_GCThreadData@@UAEPAXI@Z 00523706 f i nafxcw:afxtls.obj
 0001:00122706       ??_ECThreadData@@UAEPAXI@Z 00523706 f i nafxcw:afxtls.obj
 0001:00122706       ??_E_AFX_DB_STATE@@UAEPAXI@Z 00523706 f i nafxcw:dbcore.obj
 0001:00122721       ?PrepareWrite2@?$CSimpleStringT@_W$0A@@ATL@@AAEXH@Z 00523721 f i nafxcw:dbcore.obj
 0001:0012276f       ??0CDBException@@QAE@F@Z   0052376f f   nafxcw:dbcore.obj
 0001:001227a1       ??1CDBException@@UAE@XZ    005237a1 f   nafxcw:dbcore.obj
 0001:001227c3       ??0CDatabase@@QAE@XZ       005237c3 f   nafxcw:dbcore.obj
 0001:00122817       ??1CODBCFieldInfo@@QAE@XZ  00523817 f i nafxcw:dbcore.obj
 0001:00122821       ?IsOpen@CRecordset@@QBEHXZ 00523821 f   nafxcw:dbcore.obj
 0001:001228d9       ?SetRowsetSize@CRecordset@@UAEXK@Z 005238d9 f   nafxcw:dbcore.obj
 0001:001229a9       ?PrepareAndExecute@CRecordset@@IAEXXZ 005239a9 f   nafxcw:dbcore.obj
 0001:00122b6c       ??0CODBCFieldInfo@@QAE@XZ  00523b6c f i nafxcw:dbcore.obj
 0001:00122b7a       ?SendLongBinaryData@CRecordset@@IAEXPAX@Z 00523b7a f   nafxcw:dbcore.obj
 0001:00122cc3       ??_G?$CStringT@DV?$StrTraitMFC@DV?$ChTraitsCRT@D@ATL@@@@@ATL@@QAEPAXI@Z 00523cc3 f i nafxcw:dbcore.obj
 0001:00122cc3       ??_G?$CStringT@_WV?$StrTraitMFC@_WV?$ChTraitsCRT@_W@ATL@@@@@ATL@@QAEPAXI@Z 00523cc3 f i nafxcw:dbcore.obj
 0001:00122ce9       ?SetAt@?$CSimpleStringT@D$0A@@ATL@@QAEXHD@Z 00523ce9 f i nafxcw:dbcore.obj
 0001:00122d28       ??0?$CStringT@_WV?$StrTraitMFC@_WV?$ChTraitsCRT@_W@ATL@@@@@ATL@@QAE@XZ 00523d28 f i nafxcw:dbcore.obj
 0001:00122d3e       ?PrepareWrite@?$CSimpleStringT@_W$0A@@ATL@@AAEPA_WH@Z 00523d3e f i nafxcw:dbcore.obj
 0001:00122d6c       ?GetBufferSetLength@?$CSimpleStringT@D$0A@@ATL@@QAEPADH@Z 00523d6c f i nafxcw:dbcore.obj
 0001:00122d91       ??_GCDBException@@UAEPAXI@Z 00523d91 f i nafxcw:dbcore.obj
 0001:00122d91       ??_ECDBException@@UAEPAXI@Z 00523d91 f i nafxcw:dbcore.obj
 0001:00122db2       ??_ECODBCFieldInfo@@QAEPAXI@Z 00523db2 f i nafxcw:dbcore.obj
 0001:00122e03       ?AllocAndCacheFieldInfo@CRecordset@@IAEXXZ 00523e03 f   nafxcw:dbcore.obj
 0001:00122f2d       ?ExecuteUpdateSQL@CRecordset@@IAEXXZ 00523f2d f   nafxcw:dbcore.obj
 0001:00123009       ?FreeDataCache@CRecordset@@QAEXXZ 00524009 f   nafxcw:dbcore.obj
 0001:001230b0       ?MakeUpper@?$CStringT@DV?$StrTraitMFC@DV?$ChTraitsCRT@D@ATL@@@@@ATL@@QAEAAV12@XZ 005240b0 f i nafxcw:dbcore.obj
 0001:001230da       ?Close@CDatabase@@UAEXXZ   005240da f   nafxcw:dbcore.obj
 0001:0012316f       ?Free@CDatabase@@IAEXXZ    0052416f f   nafxcw:dbcore.obj
 0001:001231e3       ?AllocConnect@CDatabase@@IAEXK@Z 005241e3 f   nafxcw:dbcore.obj
 0001:001232b3       ?Close@CRecordset@@UAEXXZ  005242b3 f   nafxcw:dbcore.obj
 0001:00123476       ??HATL@@YA?AV?$CStringT@DV?$StrTraitMFC@DV?$ChTraitsCRT@D@ATL@@@@@0@PBDABV10@@Z 00524476 f i nafxcw:dbcore.obj
 0001:001234cb       ?GetBufferSetLength@?$CSimpleStringT@_W$0A@@ATL@@QAEPA_WH@Z 005244cb f i nafxcw:dbcore.obj
 0001:001234f0       ??1CDatabase@@UAE@XZ       005244f0 f   nafxcw:dbcore.obj
 0001:001235f5       ??1CRecordset@@UAE@XZ      005245f5 f   nafxcw:dbcore.obj
 0001:001236f0       ?Requery@CRecordset@@UAEHXZ 005246f0 f   nafxcw:dbcore.obj
 0001:00123815       ?AllocHstmt@CRecordset@@IAEHXZ 00524815 f   nafxcw:dbcore.obj
 0001:001239df       ?GetDataBuffer@CRecordset@@SGPAXAAVCDBVariant@@FPAJFK@Z 005249df f   nafxcw:dbcore.obj
 0001:00123bea       ?AfxThrowDBException@@YGXFPAVCDatabase@@PAX@Z 00524bea f   nafxcw:dbcore.obj
 0001:00123c7c       ??_GCDatabase@@UAEPAXI@Z   00524c7c f i nafxcw:dbcore.obj
 0001:00123c7c       ??_ECDatabase@@UAEPAXI@Z   00524c7c f i nafxcw:dbcore.obj
 0001:00123c9d       ??_GCRecordset@@UAEPAXI@Z  00524c9d f i nafxcw:dbcore.obj
 0001:00123c9d       ??_ECRecordset@@UAEPAXI@Z  00524c9d f i nafxcw:dbcore.obj
 0001:00123cbe       ?SetState@CRecordset@@IAEXHPBDK@Z 00524cbe f   nafxcw:dbcore.obj
 0001:00123d70       ?ExecuteSetPosUpdate@CRecordset@@IAEXXZ 00524d70 f   nafxcw:dbcore.obj
 0001:00123e12       ?PrepareUpdateHstmt@CRecordset@@IAEXXZ 00524e12 f   nafxcw:dbcore.obj
 0001:00123eac       ?GetData@CRecordset@@SGJPAVCDatabase@@PAXFF1JF@Z 00524eac f   nafxcw:dbcore.obj
 0001:00123f01       ?GetLongBinaryDataAndCleanup@CRecordset@@SGXPAVCDatabase@@PAXFJPAPAXJAAVCDBVariant@@F@Z 00524f01 f   nafxcw:dbcore.obj
 0001:0012412e       ?ThrowDBException@CDatabase@@MAEXF@Z 0052512e f i nafxcw:dbcore.obj
 0001:00124140       ?BuildErrorString@CDBException@@UAEXPAVCDatabase@@PAXH@Z 00525140 f   nafxcw:dbcore.obj
 0001:00124429       ?Open@CDatabase@@UAEHPBDHH0H@Z 00525429 f   nafxcw:dbcore.obj
 0001:00124531       ?Connect@CDatabase@@IAEHK@Z 00525531 f   nafxcw:dbcore.obj
 0001:00124609       ??0CRecordset@@QAE@PAVCDatabase@@@Z 00525609 f   nafxcw:dbcore.obj
 0001:00124807       ?CheckRowsetError@CRecordset@@UAEXF@Z 00525807 f   nafxcw:dbcore.obj
 0001:001248b4       ?GetDefaultConnect@CRecordset@@UAE?AV?$CStringT@DV?$StrTraitMFC@DV?$ChTraitsCRT@D@ATL@@@@@ATL@@XZ 005258b4 f   nafxcw:dbcore.obj
 0001:001248d2       ?GetDefaultSQL@CRecordset@@UAE?AV?$CStringT@DV?$StrTraitMFC@DV?$ChTraitsCRT@D@ATL@@@@@ATL@@XZ 005258d2 f   nafxcw:dbcore.obj
 0001:001248f0       ?FindSQLToken@CRecordset@@SGPBDPBD0@Z 005258f0 f   nafxcw:dbcore.obj
 0001:00124a36       ?BuildSelectSQL@CRecordset@@IAEXXZ 00525a36 f   nafxcw:dbcore.obj
 0001:00124b42       ?AppendFilterAndSortSQL@CRecordset@@IAEXXZ 00525b42 f   nafxcw:dbcore.obj
 0001:00124b97       ?BuildUpdateSQL@CRecordset@@IAEXXZ 00525b97 f   nafxcw:dbcore.obj
 0001:00124d91       ?UpdateInsertDelete@CRecordset@@IAEHXZ 00525d91 f   nafxcw:dbcore.obj
 0001:00124f6f       ?GetLongCharDataAndCleanup@CRecordset@@SGXPAVCDatabase@@PAXFJPAPAXJAAV?$CStringT@_WV?$StrTraitMFC@_WV?$ChTraitsCRT@_W@ATL@@@@@ATL@@FF@Z 00525f6f f   nafxcw:dbcore.obj
 0001:00124f9a       ?GetLongCharDataAndCleanup@CRecordset@@SGXPAVCDatabase@@PAXFJPAPAXJAAV?$CStringT@DV?$StrTraitMFC@DV?$ChTraitsCRT@D@ATL@@@@@ATL@@FF@Z 00525f9a f   nafxcw:dbcore.obj
 0001:00124fc5       ?OpenEx@CDatabase@@UAEHPBDK@Z 00525fc5 f   nafxcw:dbcore.obj
 0001:0012505c       ?Update@CRecordset@@UAEHXZ 0052605c f   nafxcw:dbcore.obj
 0001:00125092       ?Delete@CRecordset@@UAEXXZ 00526092 f   nafxcw:dbcore.obj
 0001:001250bf       ?GetFieldValue@CRecordset@@QAEXFAAVCDBVariant@@F@Z 005260bf f   nafxcw:dbcore.obj
 0001:00125204       ?IsJoin@CRecordset@@SGHPBD@Z 00526204 f   nafxcw:dbcore.obj
 0001:00125236       ?IsSelectQueryUpdatable@CRecordset@@QAEHPBD@Z 00526236 f   nafxcw:dbcore.obj
 0001:00125373       ?IsSQLUpdatable@CRecordset@@QAEHPBD@Z 00526373 f   nafxcw:dbcore.obj
 0001:001253d5       ?IsRecordsetUpdatable@CRecordset@@IAEHXZ 005263d5 f   nafxcw:dbcore.obj
 0001:0012541a       ?BuildSQL@CRecordset@@IAEXPBD@Z 0052641a f   nafxcw:dbcore.obj
 0001:001254fc       ?Open@CRecordset@@UAEHIPBDK@Z 005264fc f   nafxcw:dbcore.obj
 0001:00125626       ?SetLength@CDBByteArray@@QAEXH@Z 00526626 f i nafxcw:dbrfx.obj
 0001:0012563f       ??0CFieldExchange@@QAE@IPAVCRecordset@@PAX@Z 0052663f f   nafxcw:dbrfx.obj
 0001:0012568e       ?IsFieldType@CFieldExchange@@QAEHPAI@Z 0052668e f   nafxcw:dbrfx.obj
 0001:001256f5       ?RFX_Text_inc@nsRFX_Text@@YAXPAPAD@Z 005266f5 f i nafxcw:dbrfx.obj
 0001:0012570b       ?CopyCharsOverlapped@?$CSimpleStringT@_W$0A@@ATL@@SAXPA_WIPB_WH@Z 0052670b f i nafxcw:dbrfx.obj
 0001:0012572c       ??9CTime@ATL@@QBE_NV01@@Z  0052672c f i nafxcw:dbrfx.obj
 0001:0012574b       ?GetSecond@CTime@ATL@@QBEHXZ 0052674b f i nafxcw:dbrfx.obj
 0001:00125769       ??8COleDateTime@ATL@@QBE_NABV01@@Z 00526769 f i nafxcw:dbrfx.obj
 0001:001257a3       ?Compare@?$CStringT@_WV?$StrTraitMFC@_WV?$ChTraitsCRT@_W@ATL@@@@@ATL@@QBEHPB_W@Z 005267a3 f i nafxcw:dbrfx.obj
 0001:001257c9       ?CloneData@?$CSimpleStringT@_W$0A@@ATL@@CAPAUCStringData@2@PAU32@@Z 005267c9 f i nafxcw:dbrfx.obj
 0001:00125829       ??8ATL@@YA_NABV?$CStringT@_WV?$StrTraitMFC@_WV?$ChTraitsCRT@_W@ATL@@@@@0@0@Z 00526829 f i nafxcw:dbrfx.obj
 0001:00125842       ?LockBuffer@?$CSimpleStringT@D$0A@@ATL@@QAEPADXZ 00526842 f i nafxcw:dbrfx.obj
 0001:0012586c       ?AfxCompareValueByRef@@YGHPAX0H@Z 0052686c f   nafxcw:dbrfx.obj
 0001:001259cd       ?SetString@?$CSimpleStringT@_W$0A@@ATL@@QAEXPB_WH@Z 005269cd f i nafxcw:dbrfx.obj
 0001:00125a40       ??4?$CSimpleStringT@_W$0A@@ATL@@QAEAAV01@ABV01@@Z 00526a40 f i nafxcw:dbrfx.obj
 0001:00125a92       ??4?$CStringT@_WV?$StrTraitMFC@_WV?$ChTraitsCRT@_W@ATL@@@@@ATL@@QAEAAV01@ABV01@@Z 00526a92 f i nafxcw:dbrfx.obj
 0001:00125aa9       ?AfxCopyValueByRef@@YGXPAX0PAJH@Z 00526aa9 f   nafxcw:dbrfx.obj
 0001:00125bf0       ?AfxStoreField@@YGXAAVCRecordset@@IPAX@Z 00526bf0 f   nafxcw:dbrfx.obj
 0001:00125c71       ?AfxLoadField@@YGXAAVCRecordset@@IPAXPAJ@Z 00526c71 f   nafxcw:dbrfx.obj
 0001:00125cea       ?Default@CFieldExchange@@QAEXPBDPAXPAJHKK@Z 00526cea f   nafxcw:dbrfx.obj
 0001:00126032       ?RFX_Int@@YGXPAVCFieldExchange@@PBDAAH@Z 00527032 f   nafxcw:dbrfx.obj
 0001:00126169       ?RFX_BigInt@@YGXPAVCFieldExchange@@PBDAA_J@Z 00527169 f   nafxcw:dbrfx.obj
 0001:001262d7       ?RFX_Long@@YGXPAVCFieldExchange@@PBDAAJ@Z 005272d7 f   nafxcw:dbrfx.obj
 0001:0012640f       ?RFX_Byte@@YGXPAVCFieldExchange@@PBDAAE@Z 0052740f f   nafxcw:dbrfx.obj
 0001:00126538       ?RFX_Binary@@YGXPAVCFieldExchange@@PBDAAVCByteArray@@H@Z 00527538 f   nafxcw:dbrfx.obj
 0001:001267cd       ?RFX_Date@@YGXPAVCFieldExchange@@PBDAAVCTime@ATL@@@Z 005277cd f   nafxcw:dbrfx.obj
 0001:00126e39       ??$RFX_Text@V?$CStringT@DV?$StrTraitMFC@DV?$ChTraitsCRT@D@ATL@@@@@ATL@@@nsRFX_Text@@YAXPAVCFieldExchange@@PBDAAV?$CStringT@DV?$StrTraitMFC@DV?$ChTraitsCRT@D@ATL@@@@@ATL@@HHFFD@Z 00527e39 f i nafxcw:dbrfx.obj
 0001:00127220       ?RFX_Text@@YGXPAVCFieldExchange@@PBDAAV?$CStringT@DV?$StrTraitMFC@DV?$ChTraitsCRT@D@ATL@@@@@ATL@@HHF@Z 00528220 f   nafxcw:dbrfx.obj
 0001:00127247       ?GetRuntimeClass@COleException@@UBEPAUCRuntimeClass@@XZ 00528247 f   nafxcw:olemisc.obj
 0001:0012724d       ??$AtlMultiply@I@ATL@@YAJPAIII@Z 0052824d f i nafxcw:olemisc.obj
 0001:00127271       ??0COleException@@QAE@XZ   00528271 f i nafxcw:olemisc.obj
 0001:00127289       ?AfxThrowOleException@@YGXJ@Z 00528289 f   nafxcw:olemisc.obj
 0001:001272cc       ?GetErrorMessage@COleException@@UBEHPADIPAI@Z 005282cc f   nafxcw:olemisc.obj
 0001:00127328       ?AtlCrtErrorCheck@ATL@@YAHH@Z 00528328 f i nafxcw:olemisc.obj
 0001:00127362       ??_ECOleException@@UAEPAXI@Z 00528362 f i nafxcw:olemisc.obj
 0001:00127362       ??_GCOleException@@UAEPAXI@Z 00528362 f i nafxcw:olemisc.obj
 0001:00127384       ?Delete@CException@@QAEXXZ 00528384 f   nafxcw:except.obj
 0001:00127392       ?GetErrorMessage@CException@@UAEHPADIPAI@Z 00528392 f   nafxcw:except.obj
 0001:0012739d       ?ReportError@CException@@UAEHII@Z 0052839d f   nafxcw:except.obj
 0001:00127411       ?GetRuntimeClass@CSimpleException@@UBEPAUCRuntimeClass@@XZ 00528411 f   nafxcw:except.obj
 0001:00127417       ?GetRuntimeClass@CMemoryException@@UBEPAUCRuntimeClass@@XZ 00528417 f   nafxcw:except.obj
 0001:0012741d       ?GetRuntimeClass@CNotSupportedException@@UBEPAUCRuntimeClass@@XZ 0052841d f   nafxcw:except.obj
 0001:00127423       ?GetRuntimeClass@CInvalidArgException@@UBEPAUCRuntimeClass@@XZ 00528423 f   nafxcw:except.obj
 0001:00127429       ?InitString@CSimpleException@@QAEXXZ 00528429 f   nafxcw:except.obj
 0001:00127454       ?AfxThrowMemoryException@@YGXXZ 00528454 f   nafxcw:except.obj
 0001:00127470       ?AfxThrowNotSupportedException@@YGXXZ 00528470 f   nafxcw:except.obj
 0001:0012748c       ?AfxThrowInvalidArgException@@YGXXZ 0052848c f   nafxcw:except.obj
 0001:001274a8       ?CreateObject@?$CThreadLocal@V_AFX_THREAD_STATE@@@@SGPAVCNoTrackObject@@XZ 005284a8 f i nafxcw:except.obj
 0001:001274d7       ??0CException@@QAE@XZ      005284d7 f   nafxcw:except.obj
 0001:001274e1       ??0CException@@QAE@H@Z     005284e1 f   nafxcw:except.obj
 0001:001274f2       ?GetErrorMessage@CSimpleException@@UBEHPADIPAI@Z 005284f2 f   nafxcw:except.obj
 0001:00127546       ??_ECInvalidArgException@@UAEPAXI@Z 00528546 f i nafxcw:except.obj
 0001:00127546       ??_GCResourceException@@UAEPAXI@Z 00528546 f i nafxcw:wingdi.obj
 0001:00127546       ??_GCUserException@@UAEPAXI@Z 00528546 f i nafxcw:wingdi.obj
 0001:00127546       ??_GCMemoryException@@UAEPAXI@Z 00528546 f i nafxcw:except.obj
 0001:00127546       ??_GCNotSupportedException@@UAEPAXI@Z 00528546 f i nafxcw:except.obj
 0001:00127546       ??_ECResourceException@@UAEPAXI@Z 00528546 f i nafxcw:wingdi.obj
 0001:00127546       ??_GCInvalidArgException@@UAEPAXI@Z 00528546 f i nafxcw:except.obj
 0001:00127546       ??_ECNotSupportedException@@UAEPAXI@Z 00528546 f i nafxcw:except.obj
 0001:00127546       ??_ECMemoryException@@UAEPAXI@Z 00528546 f i nafxcw:except.obj
 0001:00127546       ??_ECUserException@@UAEPAXI@Z 00528546 f i nafxcw:wingdi.obj
 0001:00127568       ?AfxLoadString@@YGHIPADI@Z 00528568 f   nafxcw:winstr.obj
 0001:001275c2       ?AfxFindStringResourceHandle@@YGPAUHINSTANCE__@@I@Z 005285c2 f   nafxcw:winstr.obj
 0001:001275cd       ?AfxGetStringManager@@YGPAUIAtlStringMgr@ATL@@XZ 005285cd f   nafxcw:strcore.obj
 0001:001275d3       ?Allocate@CAfxStringMgr@@UAEPAUCStringData@ATL@@HH@Z 005285d3 f   nafxcw:strcore.obj
 0001:00127612       ?Free@CAfxStringMgr@@UAEXPAUCStringData@ATL@@@Z 00528612 f   nafxcw:strcore.obj
 0001:00127624       ?Reallocate@CAfxStringMgr@@UAEPAUCStringData@ATL@@PAU23@HH@Z 00528624 f   nafxcw:strcore.obj
 0001:00127656       ?Clone@CAfxStringMgr@@UAEPAUIAtlStringMgr@ATL@@XZ 00528656 f   nafxcw:strcore.obj
 0001:00127659       ??$AtlMultiplyThrow@I@ATL@@YAIII@Z 00528659 f i nafxcw:strcore.obj
 0001:00127680       ??0CAfxStringMgr@@QAE@XZ   00528680 f i nafxcw:strcore.obj
 0001:001276a3       ?GetNilString@CAfxStringMgr@@UAEPAUCStringData@ATL@@XZ 005286a3 f   nafxcw:strcore.obj
 0001:001276b1       ?GetRuntimeClass@CObject@@UBEPAUCRuntimeClass@@XZ 005286b1 f   nafxcw:objcore.obj
 0001:001276b7       ?CreateObject@CRuntimeClass@@QAEPAVCObject@@XZ 005286b7 f   nafxcw:objcore.obj
 0001:00127701       ?IsDerivedFrom@CRuntimeClass@@QBEHPBU1@@Z 00528701 f   nafxcw:objcore.obj
 0001:0012772c       ?IsKindOf@CObject@@QBEHPBUCRuntimeClass@@@Z 0052872c f   nafxcw:objcore.obj
 0001:0012774a       ?AfxDynamicDownCast@@YAPAVCObject@@PAUCRuntimeClass@@PAV1@@Z 0052874a f   nafxcw:objcore.obj
 0001:0012776d       ?AfxClassInit@@YGXPAUCRuntimeClass@@@Z 0052876d f   nafxcw:objcore.obj
 0001:00127798       ?GetRuntimeClass@CPtrArray@@UBEPAUCRuntimeClass@@XZ 00528798 f   nafxcw:array_p.obj
 0001:0012779e       ??0CPtrArray@@QAE@XZ       0052879e f   nafxcw:array_p.obj
 0001:001277b5       ??1CPtrArray@@UAE@XZ       005287b5 f   nafxcw:array_p.obj
 0001:001277c5       ?SetAtGrow@CPtrArray@@QAEXHPAX@Z 005287c5 f   nafxcw:array_p.obj
 0001:001277c5       ?SetAtGrow@CDWordArray@@QAEXHK@Z 005287c5 f   nafxcw:array_d.obj
 0001:001277c5       ?SetAtGrow@CUIntArray@@QAEXHI@Z 005287c5 f   nafxcw:array_u.obj
 0001:001277f9       ?InsertAt@CPtrArray@@QAEXHPAXH@Z 005287f9 f   nafxcw:array_p.obj
 0001:0012789f       ?RemoveAt@CPtrArray@@QAEXHH@Z 0052889f f   nafxcw:array_p.obj
 0001:001278f7       ??_GCPtrArray@@UAEPAXI@Z   005288f7 f i nafxcw:array_p.obj
 0001:001278f7       ??_ECPtrArray@@UAEPAXI@Z   005288f7 f i nafxcw:array_p.obj
 0001:00127918       ?Abort@CArchive@@QAEXXZ    00528918 f   nafxcw:arccore.obj
 0001:00127985       ?Read@CArchive@@QAEIPAXI@Z 00528985 f   nafxcw:arccore.obj
 0001:00127ab6       ?Flush@CArchive@@QAEXXZ    00528ab6 f   nafxcw:arccore.obj
 0001:00127b2e       ?FillBuffer@CArchive@@QAEXI@Z 00528b2e f   nafxcw:arccore.obj
 0001:00127c1d       ??6CArchive@@QAEAAV0@G@Z   00528c1d f i nafxcw:arccore.obj
 0001:00127c5c       ??6CArchive@@QAEAAV0@K@Z   00528c5c f i nafxcw:arccore.obj
 0001:00127c9a       ??5CArchive@@QAEAAV0@AAK@Z 00528c9a f i nafxcw:arccore.obj
 0001:00127ce1       ?FromName@CRuntimeClass@@SGPAU1@PBD@Z 00528ce1 f   nafxcw:arccore.obj
 0001:00127d33       ?Load@CRuntimeClass@@SGPAU1@AAVCArchive@@PAI@Z 00528d33 f   nafxcw:arccore.obj
 0001:00127daa       ?Close@CArchive@@QAEXXZ    00528daa f   nafxcw:arccore.obj
 0001:00127dba       ?Write@CArchive@@QAEXPBXI@Z 00528dba f   nafxcw:arccore.obj
 0001:00127e81       ?WriteCount@CArchive@@QAEXK@Z 00528e81 f   nafxcw:arccore.obj
 0001:00127eb2       ?ReadCount@CArchive@@QAEKXZ 00528eb2 f   nafxcw:arccore.obj
 0001:00127ee6       ?Store@CRuntimeClass@@QBEXAAVCArchive@@@Z 00528ee6 f   nafxcw:arccore.obj
 0001:00127f23       ??1CArchive@@QAE@XZ        00528f23 f   nafxcw:arccore.obj
 0001:00127f61       ??0CArchive@@QAE@PAVCFile@@IHPAX@Z 00528f61 f   nafxcw:arccore.obj
 0001:0012806a       ?GetRuntimeClass@CArchiveException@@UBEPAUCRuntimeClass@@XZ 0052906a f   nafxcw:arcex.obj
 0001:00128070       ?GetErrorMessage@CArchiveException@@UBEHPADIPAI@Z 00529070 f   nafxcw:arcex.obj
 0001:00128121       ??0CArchiveException@@QAE@HPBD@Z 00529121 f i nafxcw:arcex.obj
 0001:00128165       ??_GCArchiveException@@UAEPAXI@Z 00529165 f i nafxcw:arcex.obj
 0001:00128165       ??_ECArchiveException@@UAEPAXI@Z 00529165 f i nafxcw:arcex.obj
 0001:00128192       ?AfxThrowArchiveException@@YGXHPBD@Z 00529192 f   nafxcw:arcex.obj
 0001:001281d5       ?FreeNode@CPtrList@@IAEXPAUCNode@1@@Z 005291d5 f   nafxcw:list_p.obj
 0001:001281fc       ?RemoveHead@CPtrList@@QAEPAXXZ 005291fc f   nafxcw:list_p.obj
 0001:0012822d       ?RemoveAt@CPtrList@@QAEXPAU__POSITION@@@Z 0052922d f   nafxcw:list_p.obj
 0001:00128272       ?Find@CPtrList@@QBEPAU__POSITION@@PAXPAU2@@Z 00529272 f   nafxcw:list_p.obj
 0001:00128295       ?GetRuntimeClass@CPtrList@@UBEPAUCRuntimeClass@@XZ 00529295 f   nafxcw:list_p.obj
 0001:0012829b       ??0CPtrList@@QAE@H@Z       0052929b f   nafxcw:list_p.obj
 0001:001282c3       ??1CPtrList@@UAE@XZ        005292c3 f   nafxcw:list_p.obj
 0001:001282ce       ?AddHead@CPtrList@@QAEPAU__POSITION@@PAX@Z 005292ce f   nafxcw:list_p.obj
 0001:001282fd       ??_GCPtrList@@UAEPAXI@Z    005292fd f i nafxcw:list_p.obj
 0001:001282fd       ??_ECPtrList@@UAEPAXI@Z    005292fd f i nafxcw:list_p.obj
 0001:00128324       ?AfxGetThread@@YGPAVCWinThread@@XZ 00529324 f   nafxcw:thrdcore.obj
 0001:0012832d       ?AfxGetCurrentMessage@@YGPAUtagMSG@@XZ 0052932d f   nafxcw:thrdcore.obj
 0001:00128336       ?AfxInternalProcessWndProcException@@YGJPAVCException@@PBUtagMSG@@@Z 00529336 f   nafxcw:thrdcore.obj
 0001:00128360       ?AfxProcessWndProcException@@YGJPAVCException@@PBUtagMSG@@@Z 00529360 f   nafxcw:thrdcore.obj
 0001:0012837d       ?AfxTermThread@@YGXPAUHINSTANCE__@@@Z 0052937d f   nafxcw:thrdcore.obj
 0001:0012841c       ?CommonConstruct@CWinThread@@QAEXXZ 0052941c f   nafxcw:thrdcore.obj
 0001:00128455       ??1CWinThread@@UAE@XZ      00529455 f   nafxcw:thrdcore.obj
 0001:0012849d       ?Delete@CWinThread@@UAEXXZ 0052949d f   nafxcw:thrdcore.obj
 0001:001284ab       ?Run@CWinThread@@UAEHXZ    005294ab f   nafxcw:thrdcore.obj
 0001:0012853f       ?ExitInstance@CWinThread@@UAEHXZ 0052953f f   nafxcw:thrdcore.obj
 0001:00128548       ?DispatchThreadMessageEx@CWinThread@@IAEHPAUtagMSG@@@Z 00529548 f   nafxcw:thrdcore.obj
 0001:001285c6       ?ProcessWndProcException@CWinThread@@UAEJPAVCException@@PBUtagMSG@@@Z 005295c6 f   nafxcw:thrdcore.obj
 0001:001285d1       ?IsEnterKey@@YAHPAUtagMSG@@@Z 005295d1 f i nafxcw:thrdcore.obj
 0001:001285f1       ?GetRuntimeClass@CWinThread@@UBEPAUCRuntimeClass@@XZ 005295f1 f   nafxcw:thrdcore.obj
 0001:001285f7       ?CreateObject@?$CThreadLocal@VAFX_MODULE_THREAD_STATE@@@@SGPAVCNoTrackObject@@XZ 005295f7 f i nafxcw:thrdcore.obj
 0001:00128623       ??8CTime@ATL@@QBE_NV01@@Z  00529623 f i nafxcw:dbrfx.obj
 0001:00128623       ??8CPoint@@QBEHUtagPOINT@@@Z 00529623 f i nafxcw:thrdcore.obj
 0001:00128642       ?SetThreadPriority@CWinThread@@QAEHH@Z 00529642 f i nafxcw:thrdcore.obj
 0001:00128657       ?AfxInternalPreTranslateMessage@@YAHPAUtagMSG@@@Z 00529657 f   nafxcw:thrdcore.obj
 0001:001286ca       ?AfxPreTranslateMessage@@YAHPAUtagMSG@@@Z 005296ca f   nafxcw:thrdcore.obj
 0001:001286eb       ?AfxInternalIsIdleMessage@@YAHPAUtagMSG@@@Z 005296eb f   nafxcw:thrdcore.obj
 0001:0012875c       ?AfxIsIdleMessage@@YAHPAUtagMSG@@@Z 0052975c f   nafxcw:thrdcore.obj
 0001:0012877d       ?AfxEndThread@@YGXIH@Z     0052977d f   nafxcw:thrdcore.obj
 0001:001287c6       ??0CWinThread@@QAE@P6AIPAX@Z0@Z 005297c6 f   nafxcw:thrdcore.obj
 0001:00128803       ??_GCWinThread@@UAEPAXI@Z  00529803 f i nafxcw:thrdcore.obj
 0001:00128803       ??_ECWinThread@@UAEPAXI@Z  00529803 f i nafxcw:thrdcore.obj
 0001:00128824       ??0CWinThread@@QAE@XZ      00529824 f   nafxcw:thrdcore.obj
 0001:0012885a       ?IsIdleMessage@CWinThread@@UAEHPAUtagMSG@@@Z 0052985a f   nafxcw:thrdcore.obj
 0001:0012886c       ?PreTranslateMessage@CWinThread@@UAEHPAUtagMSG@@@Z 0052986c f   nafxcw:thrdcore.obj
 0001:0012887e       ?GetMainWnd@CWinThread@@UAEPAVCWnd@@XZ 0052987e f   nafxcw:thrdcore.obj
 0001:00128899       ?GetData@?$CThreadLocal@VAFX_MODULE_THREAD_STATE@@@@QAEPAVAFX_MODULE_THREAD_STATE@@XZ 00529899 f i nafxcw:thrdcore.obj
 0001:001288ad       ?AfxInternalPumpMessage@@YGHXZ 005298ad f   nafxcw:thrdcore.obj
 0001:001288f3       ?AfxPumpMessage@@YGHXZ     005298f3 f   nafxcw:thrdcore.obj
 0001:00128909       ?_AfxMsgFilterHook@@YGJHIJ@Z 00529909 f   nafxcw:thrdcore.obj
 0001:0012896d       ?ProcessMessageFilter@CWinThread@@UAEHHPAUtagMSG@@@Z 0052996d f   nafxcw:thrdcore.obj
 0001:00128a9c       ?PumpMessage@CWinThread@@UAEHXZ 00529a9c f   nafxcw:thrdcore.obj
 0001:00128aa1       ?AfxInitThread@@YGXXZ      00529aa1 f   nafxcw:thrdcore.obj
 0001:00128acf       ?OnIdle@CWinThread@@UAEHJ@Z 00529acf f   nafxcw:thrdcore.obj
 0001:00128bd1       ?_AfxThreadEntry@@YGIPAX@Z 00529bd1 f   nafxcw:thrdcore.obj
 0001:00128ced       ?CreateThread@CWinThread@@QAEHKIPAU_SECURITY_ATTRIBUTES@@@Z 00529ced f   nafxcw:thrdcore.obj
 0001:00128df8       ?AfxBeginThread@@YGPAVCWinThread@@P6AIPAX@Z0HIKPAU_SECURITY_ATTRIBUTES@@@Z 00529df8 f   nafxcw:thrdcore.obj
 0001:00128e6f       ?GetRuntimeClass@CDWordArray@@UBEPAUCRuntimeClass@@XZ 00529e6f f   nafxcw:array_d.obj
 0001:00128e75       ??0CDWordArray@@QAE@XZ     00529e75 f   nafxcw:array_d.obj
 0001:00128e8c       ??1CDWordArray@@UAE@XZ     00529e8c f   nafxcw:array_d.obj
 0001:00128e9c       ?Serialize@CDWordArray@@UAEXAAVCArchive@@@Z 00529e9c f   nafxcw:array_d.obj
 0001:00128f33       ?CreateObject@CDWordArray@@SGPAVCObject@@XZ 00529f33 f   nafxcw:array_d.obj
 0001:00128f49       ??_ECDWordArray@@UAEPAXI@Z 00529f49 f i nafxcw:array_d.obj
 0001:00128f49       ??_GCDWordArray@@UAEPAXI@Z 00529f49 f i nafxcw:array_d.obj
 0001:00128f6a       ?GetRoutingFrame_@CCmdTarget@@KGPAVCFrameWnd@@XZ 00529f6a f   nafxcw:appui1.obj
 0001:00128f76       ?AfxCtxMessageBoxA@@YAHPAUHWND__@@PBD1I@Z 00529f76 f i nafxcw:appui1.obj
 0001:0012900d       ?DoEnableModeless@CWinApp@@SAXH@Z 0052a00d f   nafxcw:appui1.obj
 0001:00129046       ?GetSafeOwner_@CWnd@@SGPAUHWND__@@PAU2@PAPAU2@@Z 0052a046 f   nafxcw:appui1.obj
 0001:001290e6       ?EnableModeless@CWinApp@@QAEXH@Z 0052a0e6 f   nafxcw:appui1.obj
 0001:001290f8       ?ShowAppMessageBox@CWinApp@@SAHPAV1@PBDII@Z 0052a0f8 f   nafxcw:appui1.obj
 0001:00129259       ?AfxMessageBox@@YGHPBDII@Z 0052a259 f   nafxcw:appui1.obj
 0001:0012928c       ?DoMessageBox@CWinApp@@UAEHPBDII@Z 0052a28c f   nafxcw:appui1.obj
 0001:001292a7       ?AfxMessageBox@@YGHIII@Z   0052a2a7 f   nafxcw:appui1.obj
 0001:001292f6       ?RemoveAll@CPtrList@@QAEXXZ 0052a2f6 f   nafxcw:list_p.obj
 0001:001292f6       ?RemoveAll@CObList@@QAEXXZ 0052a2f6 f   nafxcw:list_o.obj
 0001:00129318       ?GetRuntimeClass@CObList@@UBEPAUCRuntimeClass@@XZ 0052a318 f   nafxcw:list_o.obj
 0001:0012931e       ??6@YGAAVCArchive@@AAV0@PBVCObject@@@Z 0052a31e f i nafxcw:list_o.obj
 0001:00129335       ??5@YGAAVCArchive@@AAV0@AAPAVCObject@@@Z 0052a335 f i nafxcw:list_o.obj
 0001:00129350       ??0CObList@@QAE@H@Z        0052a350 f   nafxcw:list_o.obj
 0001:00129378       ?NewNode@CObList@@IAEPAUCNode@1@PAU21@0@Z 0052a378 f   nafxcw:list_o.obj
 0001:00129378       ?NewNode@CPtrList@@IAEPAUCNode@1@PAU21@0@Z 0052a378 f   nafxcw:list_p.obj
 0001:001293d5       ?AddTail@CObList@@QAEPAU__POSITION@@PAVCObject@@@Z 0052a3d5 f   nafxcw:list_o.obj
 0001:001293d5       ?AddTail@CPtrList@@QAEPAU__POSITION@@PAX@Z 0052a3d5 f   nafxcw:list_p.obj
 0001:00129403       ?Serialize@CObList@@UAEXAAVCArchive@@@Z 0052a403 f   nafxcw:list_o.obj
 0001:00129462       ?CreateObject@CObList@@SGPAVCObject@@XZ 0052a462 f   nafxcw:list_o.obj
 0001:0012947b       ??_ECObList@@UAEPAXI@Z     0052a47b f i nafxcw:list_o.obj
 0001:0012947b       ??_GCObList@@UAEPAXI@Z     0052a47b f i nafxcw:list_o.obj
 0001:001294a2       ??0CStdioFile@@QAE@XZ      0052a4a2 f   nafxcw:filetxt.obj
 0001:001294ba       ?Open@CStdioFile@@UAEHPBDIPAVCFileException@@@Z 0052a4ba f   nafxcw:filetxt.obj
 0001:001295a6       ?Abort@CStdioFile@@UAEXXZ  0052a5a6 f   nafxcw:filetxt.obj
 0001:001295d1       ?Duplicate@CStdioFile@@UBEPAVCFile@@XZ 0052a5d1 f   nafxcw:filetxt.obj
 0001:001295d6       ?UnlockRange@CStdioFile@@UAEX_K0@Z 0052a5d6 f   nafxcw:filetxt.obj
 0001:001295d6       ?LockRange@CStdioFile@@UAEX_K0@Z 0052a5d6 f   nafxcw:filetxt.obj
 0001:001295dc       ?GetRuntimeClass@CStdioFile@@UBEPAUCRuntimeClass@@XZ 0052a5dc f   nafxcw:filetxt.obj
 0001:001295e2       ?Afx_clearerr_s@@YAXPAU_iobuf@@@Z 0052a5e2 f i nafxcw:filetxt.obj
 0001:001295f9       ?Read@CStdioFile@@UAEIPAXI@Z 0052a5f9 f   nafxcw:filetxt.obj
 0001:0012966f       ?Write@CStdioFile@@UAEXPBXI@Z 0052a66f f   nafxcw:filetxt.obj
 0001:001296b1       ?WriteString@CStdioFile@@UAEXPBD@Z 0052a6b1 f   nafxcw:filetxt.obj
 0001:001296ed       ?ReadString@CStdioFile@@UAEPADPADI@Z 0052a6ed f   nafxcw:filetxt.obj
 0001:00129748       ?Seek@CStdioFile@@UAE_K_JI@Z 0052a748 f   nafxcw:filetxt.obj
 0001:001297a7       ?GetLength@CStdioFile@@UBE_KXZ 0052a7a7 f   nafxcw:filetxt.obj
 0001:0012981b       ?GetPosition@CStdioFile@@UBE_KXZ 0052a81b f   nafxcw:filetxt.obj
 0001:00129843       ?Flush@CStdioFile@@UAEXXZ  0052a843 f   nafxcw:filetxt.obj
 0001:0012986e       ?Close@CStdioFile@@UAEXXZ  0052a86e f   nafxcw:filetxt.obj
 0001:001298ac       ??_ECFileException@@UAEPAXI@Z 0052a8ac f i nafxcw:filetxt.obj
 0001:001298ac       ??_GCFileException@@UAEPAXI@Z 0052a8ac f i nafxcw:filetxt.obj
 0001:001298d9       ??1CStdioFile@@UAE@XZ      0052a8d9 f   nafxcw:filetxt.obj
 0001:001299d3       ??_GCStdioFile@@UAEPAXI@Z  0052a9d3 f i nafxcw:filetxt.obj
 0001:001299d3       ??_ECStdioFile@@UAEPAXI@Z  0052a9d3 f i nafxcw:filetxt.obj
 0001:001299f4       ?ReadString@CStdioFile@@UAEHAAV?$CStringT@DV?$StrTraitMFC@DV?$ChTraitsCRT@D@ATL@@@@@ATL@@@Z 0052a9f4 f   nafxcw:filetxt.obj
 0001:00129ac7       ??0CFileException@@QAE@HJPBD@Z 0052aac7 f i nafxcw:filetxt.obj
 0001:00129b11       ?IsValidFILETIME@CTime@ATL@@SGHABU_FILETIME@@@Z 0052ab11 f i nafxcw:filest.obj
 0001:00129b42       ??0CTime@ATL@@QAE@ABU_FILETIME@@H@Z 0052ab42 f i nafxcw:filest.obj
 0001:00129ba2       ?GetStatus@CFile@@QBEHAAUCFileStatus@@@Z 0052aba2 f   nafxcw:filest.obj
 0001:00129d02       ?GetFileName@CFile@@UBE?AV?$CStringT@DV?$StrTraitMFC@DV?$ChTraitsCRT@D@ATL@@@@@ATL@@XZ 0052ad02 f   nafxcw:filest.obj
 0001:00129d97       ?GetFileTitle@CFile@@UBE?AV?$CStringT@DV?$StrTraitMFC@DV?$ChTraitsCRT@D@ATL@@@@@ATL@@XZ 0052ad97 f   nafxcw:filest.obj
 0001:00129e2c       ?GetFilePath@CFile@@UBE?AV?$CStringT@DV?$StrTraitMFC@DV?$ChTraitsCRT@D@ATL@@@@@ATL@@XZ 0052ae2c f   nafxcw:filest.obj
 0001:00129e9c       ?tcscpy_s@Checked@ATL@@YAXPADIPBD@Z 0052ae9c f i nafxcw:filecore.obj
 0001:00129eea       ?GetBufferPtr@CFile@@UAEIIIPAPAX0@Z 0052aeea f   nafxcw:filecore.obj
 0001:00129eef       ?GetRuntimeClass@CFile@@UBEPAUCRuntimeClass@@XZ 0052aeef f   nafxcw:filecore.obj
 0001:00129ef5       ?AfxCtxLoadLibraryA@@YAPAUHINSTANCE__@@PBD@Z 0052aef5 f i nafxcw:filecore.obj
 0001:00129f83       ?StringCchLengthA@@YGJPBDIPAI@Z 0052af83 f i nafxcw:filecore.obj
 0001:00129fba       ?Read@CFile@@UAEIPAXI@Z    0052afba f   nafxcw:filecore.obj
 0001:00129ffc       ?Write@CFile@@UAEXPBXI@Z   0052affc f   nafxcw:filecore.obj
 0001:0012a049       ?Seek@CFile@@UAE_K_JI@Z    0052b049 f   nafxcw:filecore.obj
 0001:0012a09c       ?GetPosition@CFile@@UBE_KXZ 0052b09c f   nafxcw:filecore.obj
 0001:0012a0e8       ?Flush@CFile@@UAEXXZ       0052b0e8 f   nafxcw:filecore.obj
 0001:0012a111       ?LockRange@CFile@@UAEX_K0@Z 0052b111 f   nafxcw:filecore.obj
 0001:0012a146       ?UnlockRange@CFile@@UAEX_K0@Z 0052b146 f   nafxcw:filecore.obj
 0001:0012a17b       ?SetLength@CFile@@UAEX_K@Z 0052b17b f   nafxcw:filecore.obj
 0001:0012a1b1       ?GetLength@CFile@@UBE_KXZ  0052b1b1 f   nafxcw:filecore.obj
 0001:0012a1f2       ?AfxGetFileTitle@@YGIPBDPADI@Z 0052b1f2 f   nafxcw:filecore.obj
 0001:0012a260       ?Close@CFile@@UAEXXZ       0052b260 f   nafxcw:filecore.obj
 0001:0012a2a5       ?Abort@CFile@@UAEXXZ       0052b2a5 f   nafxcw:filecore.obj
 0001:0012a2c6       ??0CFile@@QAE@XZ           0052b2c6 f   nafxcw:filecore.obj
 0001:0012a2e5       ?Duplicate@CFile@@UBEPAV1@XZ 0052b2e5 f   nafxcw:filecore.obj
 0001:0012a35b       ?AfxGetRoot@@YGXPBDAAV?$CStringT@DV?$StrTraitMFC@DV?$ChTraitsCRT@D@ATL@@@@@ATL@@@Z 0052b35b f   nafxcw:filecore.obj
 0001:0012a3a1       ??1CFile@@UAE@XZ           0052b3a1 f   nafxcw:filecore.obj
 0001:0012a49c       ??_ECFile@@UAEPAXI@Z       0052b49c f i nafxcw:filecore.obj
 0001:0012a49c       ??_GCFile@@UAEPAXI@Z       0052b49c f i nafxcw:filecore.obj
 0001:0012a4bd       ?_AfxFillExceptionInfo@@YGXPAVCFileException@@PBD@Z 0052b4bd f   nafxcw:filecore.obj
 0001:0012a4ec       ?_AfxFullPath2@@YGHPADPBDPAVCFileException@@@Z 0052b4ec f   nafxcw:filecore.obj
 0001:0012a6ab       ?Open@CFile@@UAEHPBDIPAVCFileException@@@Z 0052b6ab f   nafxcw:filecore.obj
 0001:0012a895       ??1?$CThreadLocal@VAFX_MODULE_THREAD_STATE@@@@QAE@XZ 0052b895 f i nafxcw:afxstate.obj
 0001:0012a89a       ?_AfxInitContextAPI@@YGXXZ 0052b89a f   nafxcw:afxstate.obj
 0001:0012a908       ?AfxCreateActCtxW@@YGPAXPBUtagACTCTXW@@@Z 0052b908 f   nafxcw:afxstate.obj
 0001:0012a920       ?AfxReleaseActCtx@@YGXPAX@Z 0052b920 f   nafxcw:afxstate.obj
 0001:0012a935       ?AfxActivateActCtx@@YGHPAXPAK@Z 0052b935 f   nafxcw:afxstate.obj
 0001:0012a94c       ?AfxDeactivateActCtx@@YGHKK@Z 0052b94c f   nafxcw:afxstate.obj
 0001:0012a963       ?AfxActivateActCtxWrapper@@YG?AW4eActCtxResult@@PAXPAK@Z 0052b963 f   nafxcw:afxstate.obj
 0001:0012a996       ?CreateActivationContext@AFX_MODULE_STATE@@QAEXXZ 0052b996 f   nafxcw:afxstate.obj
 0001:0012aa92       ?Unlock@CTypeLibCache@@QAEXXZ 0052ba92 f   nafxcw:afxstate.obj
 0001:0012aac9       ?AfxGetPerUserRegistration@@YGHXZ 0052bac9 f   nafxcw:afxstate.obj
 0001:0012aacf       ??0_AFX_THREAD_STATE@@QAE@XZ 0052bacf f   nafxcw:afxstate.obj
 0001:0012aae8       ??1_AFX_THREAD_STATE@@UAE@XZ 0052bae8 f   nafxcw:afxstate.obj
 0001:0012ab1f       ??1AFX_MODULE_THREAD_STATE@@UAE@XZ 0052bb1f f   nafxcw:afxstate.obj
 0001:0012abcd       ??_E_AFX_THREAD_STATE@@UAEPAXI@Z 0052bbcd f i nafxcw:afxstate.obj
 0001:0012abcd       ??_G_AFX_THREAD_STATE@@UAEPAXI@Z 0052bbcd f i nafxcw:afxstate.obj
 0001:0012abed       ??0AFX_MODULE_THREAD_STATE@@QAE@XZ 0052bbed f   nafxcw:afxstate.obj
 0001:0012ac17       ??_GAFX_MODULE_THREAD_STATE@@UAEPAXI@Z 0052bc17 f i nafxcw:afxstate.obj
 0001:0012ac17       ??_EAFX_MODULE_THREAD_STATE@@UAEPAXI@Z 0052bc17 f i nafxcw:afxstate.obj
 0001:0012ac37       ?AfxGetThreadState@@YGPAV_AFX_THREAD_STATE@@XZ 0052bc37 f   nafxcw:afxstate.obj
 0001:0012ac50       ??1AFX_MODULE_STATE@@UAE@XZ 0052bc50 f   nafxcw:afxstate.obj
 0001:0012acf3       ??0CDllIsolationWrapperBase@@QAE@ABV?$CStringT@DV?$StrTraitMFC@DV?$ChTraitsCRT@D@ATL@@@@@ATL@@@Z 0052bcf3 f i nafxcw:afxstate.obj
 0001:0012ad1b       ??1CDllIsolationWrapperBase@@UAE@XZ 0052bd1b f i nafxcw:afxstate.obj
 0001:0012ad41       ??_G_AFX_BASE_MODULE_STATE@@UAEPAXI@Z 0052bd41 f i nafxcw:afxstate.obj
 0001:0012ad41       ??_GAFX_MODULE_STATE@@UAEPAXI@Z 0052bd41 f i nafxcw:afxstate.obj
 0001:0012ad41       ??_EAFX_MODULE_STATE@@UAEPAXI@Z 0052bd41 f i nafxcw:afxstate.obj
 0001:0012ad41       ??_E_AFX_BASE_MODULE_STATE@@UAEPAXI@Z 0052bd41 f i nafxcw:afxstate.obj
 0001:0012ad61       ??0CComCtlWrapper@@QAE@XZ  0052bd61 f i nafxcw:afxstate.obj
 0001:0012af85       ??0CCommDlgWrapper@@QAE@XZ 0052bf85 f i nafxcw:afxstate.obj
 0001:0012b008       ??0CShellWrapper@@QAE@XZ   0052c008 f i nafxcw:afxstate.obj
 0001:0012b04f       ??_GCCommDlgWrapper@@UAEPAXI@Z 0052c04f f i nafxcw:afxstate.obj
 0001:0012b04f       ??_ECShellWrapper@@UAEPAXI@Z 0052c04f f i nafxcw:afxstate.obj
 0001:0012b04f       ??_GCDllIsolationWrapperBase@@UAEPAXI@Z 0052c04f f i nafxcw:afxstate.obj
 0001:0012b04f       ??_GCShellWrapper@@UAEPAXI@Z 0052c04f f i nafxcw:afxstate.obj
 0001:0012b04f       ??_ECCommDlgWrapper@@UAEPAXI@Z 0052c04f f i nafxcw:afxstate.obj
 0001:0012b04f       ??_ECDllIsolationWrapperBase@@UAEPAXI@Z 0052c04f f i nafxcw:afxstate.obj
 0001:0012b04f       ??_GCComCtlWrapper@@UAEPAXI@Z 0052c04f f i nafxcw:afxstate.obj
 0001:0012b04f       ??_ECComCtlWrapper@@UAEPAXI@Z 0052c04f f i nafxcw:afxstate.obj
 0001:0012b06f       ??0AFX_MODULE_STATE@@QAE@H@Z 0052c06f f   nafxcw:afxstate.obj
 0001:0012b1aa       ??0_AFX_BASE_MODULE_STATE@@QAE@XZ 0052c1aa f i nafxcw:afxstate.obj
 0001:0012b1c0       ?CreateObject@?$CProcessLocal@V_AFX_BASE_MODULE_STATE@@@@SGPAVCNoTrackObject@@XZ 0052c1c0 f i nafxcw:afxstate.obj
 0001:0012b1ef       ?AfxGetModuleState@@YGPAVAFX_MODULE_STATE@@XZ 0052c1ef f   nafxcw:afxstate.obj
 0001:0012b222       ?AfxGetModuleThreadState@@YGPAVAFX_MODULE_THREAD_STATE@@XZ 0052c222 f   nafxcw:afxstate.obj
 0001:0012b23b       ??0AFX_MAINTAIN_STATE2@@QAE@PAVAFX_MODULE_STATE@@@Z 0052c23b f   nafxcw:afxstate.obj
 0001:0012b273       ?GetRuntimeClass@CByteArray@@UBEPAUCRuntimeClass@@XZ 0052c273 f   nafxcw:array_b.obj
 0001:0012b279       ??0CByteArray@@QAE@XZ      0052c279 f   nafxcw:array_b.obj
 0001:0012b290       ??1CByteArray@@UAE@XZ      0052c290 f   nafxcw:array_b.obj
 0001:0012b2a0       ?SetSize@CByteArray@@QAEXHH@Z 0052c2a0 f   nafxcw:array_b.obj
 0001:0012b3b2       ?Copy@CByteArray@@QAEXABV1@@Z 0052c3b2 f   nafxcw:array_b.obj
 0001:0012b3e5       ?SetAtGrow@CByteArray@@QAEXHE@Z 0052c3e5 f   nafxcw:array_b.obj
 0001:0012b419       ?Serialize@CByteArray@@UAEXAAVCArchive@@@Z 0052c419 f   nafxcw:array_b.obj
 0001:0012b499       ?CreateObject@CByteArray@@SGPAVCObject@@XZ 0052c499 f   nafxcw:array_b.obj
 0001:0012b4af       ??_GCByteArray@@UAEPAXI@Z  0052c4af f i nafxcw:array_b.obj
 0001:0012b4af       ??_ECByteArray@@UAEPAXI@Z  0052c4af f i nafxcw:array_b.obj
 0001:0012b4d0       ?Create@CPlex@@SGPAU1@AAPAU1@II@Z 0052c4d0 f   nafxcw:plex.obj
 0001:0012b503       ?FreeDataChain@CPlex@@QAEXXZ 0052c503 f   nafxcw:plex.obj
 0001:0012b533       ??0CActivationContext@@QAE@PAX@Z 0052c533 f i nafxcw:appcore.obj
 0001:0012b5ea       ?Create@CActivationContext@@QAE_NPBUtagACTCTXA@@@Z 0052c5ea f i nafxcw:appcore.obj
 0001:0012b624       ?Activate@CActivationContext@@QAE_NXZ 0052c624 f i nafxcw:appcore.obj
 0001:0012b651       ?Deactivate@CActivationContext@@QAE_NXZ 0052c651 f i nafxcw:appcore.obj
 0001:0012b677       ?_LoadSysPolicies@CWinApp@@IAEHXZ 0052c677 f   nafxcw:appcore.obj
 0001:0012b73c       ?InitApplication@CWinApp@@UAEHXZ 0052c73c f   nafxcw:appcore.obj
 0001:0012b77c       ?SaveStdProfileSettings@CWinApp@@IAEXXZ 0052c77c f   nafxcw:appcore.obj
 0001:0012b7b3       ?ExitInstance@CWinApp@@UAEHXZ 0052c7b3 f   nafxcw:appcore.obj
 0001:0012b816       ?AfxPostQuitMessage@@YGXH@Z 0052c816 f   nafxcw:appcore.obj
 0001:0012b838       ?ProcessWndProcException@CWinApp@@UAEJPAVCException@@PBUtagMSG@@@Z 0052c838 f   nafxcw:appcore.obj
 0001:0012b8bb       ?OnIdle@CWinApp@@UAEHJ@Z   0052c8bb f   nafxcw:appcore.obj
 0001:0012b921       ?DevModeChange@CWinApp@@QAEXPAD@Z 0052c921 f   nafxcw:appcore.obj
 0001:0012b9c1       ?GetRuntimeClass@CWinApp@@UBEPAUCRuntimeClass@@XZ 0052c9c1 f   nafxcw:appcore.obj
 0001:0012b9c7       ?AfxInvariantStrICmp@@YAHPBD0@Z 0052c9c7 f i nafxcw:appcore.obj
 0001:0012b9e7       ?GetMessageMap@CWinApp@@MBEPBUAFX_MSGMAP@@XZ 0052c9e7 f   nafxcw:appcore.obj
 0001:0012b9e7       ?GetThisMessageMap@CWinApp@@KGPBUAFX_MSGMAP@@XZ 0052c9e7 f   nafxcw:appcore.obj
 0001:0012babf       ?Release@CActivationContext@@QAEXXZ 0052cabf f i nafxcw:appcore.obj
 0001:0012badf       ?LoadSysPolicies@CWinApp@@UAEHXZ 0052cadf f   nafxcw:appcore.obj
 0001:0012bae4       ?InitInstance@CWinApp@@UAEHXZ 0052cae4 f   nafxcw:appcore.obj
 0001:0012bb18       ?Run@CWinApp@@UAEHXZ       0052cb18 f   nafxcw:appcore.obj
 0001:0012bb3b       ?WinHelpA@CWinApp@@UAEXKI@Z 0052cb3b f   nafxcw:appcore.obj
 0001:0012bb7c       ?HtmlHelpA@CWinApp@@UAEXKI@Z 0052cb7c f   nafxcw:appcore.obj
 0001:0012bbc0       ?WinHelpInternal@CWinApp@@UAEXKI@Z 0052cbc0 f   nafxcw:appcore.obj
 0001:0012bc04       ??1CActivationContext@@QAE@XZ 0052cc04 f i nafxcw:appcore.obj
 0001:0012bc09       ?AfxLoadLangResourceDLL@@YGPAUHINSTANCE__@@PBD0@Z 0052cc09 f   nafxcw:appcore.obj
 0001:0012be78       ?LoadAppLangResourceDLL@CWinApp@@UAEPAUHINSTANCE__@@XZ 0052ce78 f   nafxcw:appcore.obj
 0001:0012beec       ??0CWinApp@@QAE@PBD@Z      0052ceec f   nafxcw:appcore.obj
 0001:0012bfc3       ??1CWinApp@@UAE@XZ         0052cfc3 f   nafxcw:appcore.obj
 0001:0012c19a       ??_ECWinApp@@UAEPAXI@Z     0052d19a f i nafxcw:appcore.obj
 0001:0012c19a       ??_GCWinApp@@UAEPAXI@Z     0052d19a f i nafxcw:appcore.obj
 0001:0012c1bb       ?OnHelp@CWinApp@@IAEXXZ    0052d1bb f   nafxcw:apphelpx.obj
 0001:0012c201       _IsEqualGUID               0052d201 f i nafxcw:cmdtarg.obj
 0001:0012c21d       ?_AfxDispatchCmdMsg@@YGHPAVCCmdTarget@@IHP81@AEXXZPAXIPAUAFX_CMDHANDLERINFO@@@Z 0052d21d f   nafxcw:cmdtarg.obj
 0001:0012c355       ?OnCmdMsg@CCmdTarget@@UAEHIHPAXPAUAFX_CMDHANDLERINFO@@@Z 0052d355 f   nafxcw:cmdtarg.obj
 0001:0012c473       ?IsInvokeAllowed@CCmdTarget@@UAEHJ@Z 0052d473 f   nafxcw:cmdtarg.obj
 0001:0012c479       ?GetTypeLib@CCmdTarget@@UAEJKPAPAUITypeLib@@@Z 0052d479 f   nafxcw:cmdtarg.obj
 0001:0012c481       ?GetDispatchMap@CCmdTarget@@MBEPBUAFX_DISPMAP@@XZ 0052d481 f   nafxcw:cmdtarg.obj
 0001:0012c487       ?GetEventSinkMap@CCmdTarget@@MBEPBUAFX_EVENTSINKMAP@@XZ 0052d487 f   nafxcw:cmdtarg.obj
 0001:0012c48d       ?GetInterfaceMap@CCmdTarget@@MBEPBUAFX_INTERFACEMAP@@XZ 0052d48d f   nafxcw:cmdtarg.obj
 0001:0012c493       ?OnFinalRelease@CCmdTarget@@UAEXXZ 0052d493 f   nafxcw:cmdtarg.obj
 0001:0012c4c3       ?GetConnectionMap@CCmdTarget@@MBEPBUAFX_CONNECTIONMAP@@XZ 0052d4c3 f   nafxcw:cmdtarg.obj
 0001:0012c4c9       ?SetOccDialogInfo@CWnd@@MAEHPAU_AFX_OCC_DIALOG_INFO@@@Z 0052d4c9 f   nafxcw:wincore.obj
 0001:0012c4c9       ?GetExtraConnectionPoints@CCmdTarget@@MAEHPAVCPtrArray@@@Z 0052d4c9 f   nafxcw:cmdtarg.obj
 0001:0012c4c9       ?GetConnectionHook@CCmdTarget@@MAEPAUIConnectionPoint@@ABU_GUID@@@Z 0052d4c9 f   nafxcw:cmdtarg.obj
 0001:0012c4c9       ?GetDispatchIID@CCmdTarget@@UAEHPAU_GUID@@@Z 0052d4c9 f   nafxcw:cmdtarg.obj
 0001:0012c4c9       ?GetInterfaceHook@CCmdTarget@@UAEPAUIUnknown@@PBX@Z 0052d4c9 f   nafxcw:cmdtarg.obj
 0001:0012c4c9       ?GetScrollBarCtrl@CWnd@@UBEPAVCScrollBar@@H@Z 0052d4c9 f   nafxcw:wincore.obj
 0001:0012c4ce       ?GetCommandMap@CCmdTarget@@MBEPBUAFX_OLECMDMAP@@XZ 0052d4ce f   nafxcw:cmdtarg.obj
 0001:0012c4d4       ??0CCmdUI@@QAE@XZ          0052d4d4 f   nafxcw:cmdtarg.obj
 0001:0012c4fa       ?CheckMenuItem@CMenu@@QAEIII@Z 0052d4fa f i nafxcw:cmdtarg.obj
 0001:0012c512       ?EnableMenuItem@CMenu@@QAEIII@Z 0052d512 f i nafxcw:cmdtarg.obj
 0001:0012c52a       ?ModifyMenuA@CMenu@@QAEHIIIPBD@Z 0052d52a f i nafxcw:cmdtarg.obj
 0001:0012c548       ??0CCmdTarget@@QAE@XZ      0052d548 f   nafxcw:cmdtarg.obj
 0001:0012c570       ??1CCmdTarget@@UAE@XZ      0052d570 f   nafxcw:cmdtarg.obj
 0001:0012c587       ?BeginWaitCursor@CCmdTarget@@QAEXXZ 0052d587 f   nafxcw:cmdtarg.obj
 0001:0012c59c       ?EndWaitCursor@CCmdTarget@@QAEXXZ 0052d59c f   nafxcw:cmdtarg.obj
 0001:0012c5b1       ?GetThisMessageMap@CCmdTarget@@KGPBUAFX_MSGMAP@@XZ 0052d5b1 f   nafxcw:cmdtarg.obj
 0001:0012c5b1       ?GetMessageMap@CCmdTarget@@MBEPBUAFX_MSGMAP@@XZ 0052d5b1 f   nafxcw:cmdtarg.obj
 0001:0012c5b7       ?Enable@CCmdUI@@UAEXH@Z    0052d5b7 f   nafxcw:cmdtarg.obj
 0001:0012c645       ?SetCheck@CCmdUI@@UAEXH@Z  0052d645 f   nafxcw:cmdtarg.obj
 0001:0012c6bb       ?SetText@CCmdUI@@UAEXPBD@Z 0052d6bb f   nafxcw:cmdtarg.obj
 0001:0012c728       ?_AfxLoadDotBitmap@@YGXXZ  0052d728 f   nafxcw:cmdtarg.obj
 0001:0012c84a       ?SetRadio@CCmdUI@@UAEXH@Z  0052d84a f   nafxcw:cmdtarg.obj
 0001:0012c8b2       ?GetFirstDocTemplatePosition@CWinApp@@QBEPAU__POSITION@@XZ 0052d8b2 f   nafxcw:appui2.obj
 0001:0012c8c3       ?GetNextDocTemplate@CWinApp@@QBEPAVCDocTemplate@@AAPAU__POSITION@@@Z 0052d8c3 f   nafxcw:appui2.obj
 0001:0012c8dc       ?AfxDelRegTreeHelper@@YGJPAUHKEY__@@ABV?$CStringT@DV?$StrTraitMFC@DV?$ChTraitsCRT@D@ATL@@@@@ATL@@@Z 0052d8dc f   nafxcw:appui2.obj
 0001:0012ca5a       ?Unregister@CWinApp@@UAEHXZ 0052da5a f   nafxcw:appui2.obj
 0001:0012cbcd       ?DoWaitCursor@CWinApp@@UAEXH@Z 0052dbcd f   nafxcw:appui.obj
 0001:0012cc4c       ?SaveAllModified@CWinApp@@UAEHXZ 0052dc4c f   nafxcw:appui.obj
 0001:0012cc5e       ?AddToRecentFileList@CWinApp@@UAEXPBD@Z 0052dc5e f   nafxcw:appui.obj
 0001:0012cc87       ?OpenDocumentFile@CWinApp@@UAEPAVCDocument@@PBD@Z 0052dc87 f   nafxcw:appui.obj
 0001:0012cca0       ?OnUpdateRecentFileMenu@CWinApp@@IAEXPAVCCmdUI@@@Z 0052dca0 f   nafxcw:appui.obj
 0001:0012ccd3       ?OnDDECommand@CWinApp@@UAEHPAD@Z 0052dcd3 f   nafxcw:appui.obj
 0001:0012cced       ??ACRecentFileList@@QAEAAV?$CStringT@DV?$StrTraitMFC@DV?$ChTraitsCRT@D@ATL@@@@@ATL@@H@Z 0052dced f i nafxcw:appui.obj
 0001:0012cd0d       ?OnAppExit@CWinApp@@IAEXXZ 0052dd0d f   nafxcw:appui.obj
 0001:0012cd20       ?OnOpenRecentFile@CWinApp@@IAEHI@Z 0052dd20 f   nafxcw:appui.obj
 0001:0012cd7e       ?AfxDlgProc@@YGHPAUHWND__@@IIJ@Z 0052dd7e f   nafxcw:dlgcore.obj
 0001:0012cdbc       ??1CDialog@@UAE@XZ         0052ddbc f   nafxcw:dlgcore.obj
 0001:0012cdf3       ?OnPaint@CDialog@@IAEXXZ   0052ddf3 f   nafxcw:dlgcore.obj
 0001:0012ce36       ?SetOccDialogInfo@CDialog@@MAEHPAU_AFX_OCC_DIALOG_INFO@@@Z 0052de36 f   nafxcw:dlgcore.obj
 0001:0012ce48       ?GetOccDialogInfo@CDialog@@MAEPAU_AFX_OCC_DIALOG_INFO@@XZ 0052de48 f   nafxcw:dlgcore.obj
 0001:0012ce4c       ??0CDialog@@QAE@IPAVCWnd@@@Z 0052de4c f   nafxcw:dlgcore.obj
 0001:0012ce89       ?EndDialog@CDialog@@QAEXH@Z 0052de89 f   nafxcw:dlgcore.obj
 0001:0012ceb3       ?OnOK@CDialog@@MAEXXZ      0052deb3 f   nafxcw:dlgcore.obj
 0001:0012cece       ?OnCancel@CDialog@@MAEXXZ  0052dece f   nafxcw:dlgcore.obj
 0001:0012ced6       ?OnHelpHitTest@CDialog@@IAEJIJ@Z 0052ded6 f   nafxcw:dlgcore.obj
 0001:0012cee9       ?GetRuntimeClass@CDialog@@UBEPAUCRuntimeClass@@XZ 0052dee9 f   nafxcw:dlgcore.obj
 0001:0012ceef       ??_9CDialog@@$BBFI@AE      0052deef f i nafxcw:dlgcore.obj
 0001:0012cef7       ??_9CDialog@@$BBFM@AE      0052def7 f i nafxcw:dlgcore.obj
 0001:0012ceff       ?GetNextDlgTabItem@CWnd@@QBEPAV1@PAV1@H@Z 0052deff f i nafxcw:dlgcore.obj
 0001:0012cf25       ?PreTranslateMessage@CDialog@@UAEHPAUtagMSG@@@Z 0052df25 f   nafxcw:dlgcore.obj
 0001:0012cfc5       ?OnCmdMsg@CDialog@@UAEHIHPAXPAUAFX_CMDHANDLERINFO@@@Z 0052dfc5 f   nafxcw:dlgcore.obj
 0001:0012d04f       ??_GCDialog@@UAEPAXI@Z     0052e04f f i nafxcw:dlgcore.obj
 0001:0012d04f       ??_ECDialog@@UAEPAXI@Z     0052e04f f i nafxcw:dlgcore.obj
 0001:0012d070       ?PreModal@CDialog@@IAEPAUHWND__@@XZ 0052e070 f   nafxcw:dlgcore.obj
 0001:0012d0ac       ?PostModal@CDialog@@IAEXXZ 0052e0ac f   nafxcw:dlgcore.obj
 0001:0012d0f0       ?HandleSetFont@CDialog@@IAEJIJ@Z 0052e0f0 f   nafxcw:dlgcore.obj
 0001:0012d117       ?HandleInitDialog@CDialog@@IAEJIJ@Z 0052e117 f   nafxcw:dlgcore.obj
 0001:0012d1a3       ?AfxHelpEnabled@@YGHXZ     0052e1a3 f   nafxcw:dlgcore.obj
 0001:0012d1fb       ?OnInitDialog@CDialog@@UAEHXZ 0052e1fb f   nafxcw:dlgcore.obj
 0001:0012d25e       ?CheckAutoCenter@CDialog@@UAEHXZ 0052e25e f   nafxcw:dlgcore.obj
 0001:0012d2fb       ?OnCommandHelp@CDialog@@IAEJIJ@Z 0052e2fb f   nafxcw:dlgcore.obj
 0001:0012d33e       ?GetMessageMap@CDialog@@MBEPBUAFX_MSGMAP@@XZ 0052e33e f   nafxcw:dlgcore.obj
 0001:0012d33e       ?GetThisMessageMap@CDialog@@KGPBUAFX_MSGMAP@@XZ 0052e33e f   nafxcw:dlgcore.obj
 0001:0012d344       ?CreateDlgIndirect@CWnd@@IAEHPBUDLGTEMPLATE@@PAV1@PAUHINSTANCE__@@@Z 0052e344 f   nafxcw:dlgcore.obj
 0001:0012d4fa       ?DoModal@CDialog@@UAEHXZ   0052e4fa f   nafxcw:dlgcore.obj
 0001:0012d6c6       ?CreateIndirect@CDialog@@IAEHPBUDLGTEMPLATE@@PAVCWnd@@PAXPAUHINSTANCE__@@@Z 0052e6c6 f   nafxcw:dlgcore.obj
 0001:0012d6f3       ?CreateIndirect@CDialog@@IAEHPAXPAVCWnd@@PAUHINSTANCE__@@@Z 0052e6f3 f   nafxcw:dlgcore.obj
 0001:0012d719       ?CreateIndirect@CDialog@@UAEHPBUDLGTEMPLATE@@PAVCWnd@@PAX@Z 0052e719 f   nafxcw:dlgcore.obj
 0001:0012d732       ?Create@CDialog@@UAEHPBDPAVCWnd@@@Z 0052e732 f   nafxcw:dlgcore.obj
 0001:0012d790       ?CreateIndirect@CDialog@@UAEHPAXPAVCWnd@@@Z 0052e790 f   nafxcw:dlgcore.obj
 0001:0012d7a6       ?Create@CStatic@@UAEHPBDKABUtagRECT@@PAVCWnd@@I@Z 0052e7a6 f   nafxcw:winctrl1.obj
 0001:0012d7ca       ??1CStatic@@UAE@XZ         0052e7ca f   nafxcw:winctrl1.obj
 0001:0012d7fb       ?OnChildNotify@CStatic@@MAEHIIJPAJ@Z 0052e7fb f   nafxcw:winctrl1.obj
 0001:0012d81e       ?GetRuntimeClass@CStatic@@UBEPAUCRuntimeClass@@XZ 0052e81e f   nafxcw:winctrl1.obj
 0001:0012d824       _IsPlatformNT              0052e824 f   nafxcw:wincore.obj
 0001:0012d87e       _InitMultipleMonitorStubs  0052e87e f   nafxcw:wincore.obj
 0001:0012d975       _xMonitorFromRect@8        0052e975 f   nafxcw:wincore.obj
 0001:0012d9c6       _xMonitorFromWindow@8      0052e9c6 f   nafxcw:wincore.obj
 0001:0012da33       _xGetMonitorInfo@8         0052ea33 f   nafxcw:wincore.obj
 0001:0012dace       ?AtlIAccessibleInvokeHelper@ATL@@YGJPAUIAccessible@@JABU_GUID@@KGPAUtagDISPPARAMS@@PAUtagVARIANT@@PAUtagEXCEPINFO@@PAI@Z 0052eace f i nafxcw:wincore.obj
 0001:0012e09a       ?AtlIAccessibleGetIDsOfNamesHelper@ATL@@YGJABU_GUID@@PAPA_WIKPAJ@Z 0052f09a f i nafxcw:wincore.obj
 0001:0012e0fc       ??0CWnd@@AAE@PAUHWND__@@@Z 0052f0fc f   nafxcw:wincore.obj
 0001:0012e147       __fpclear                  0052f147 f   libcmt:_fpinit_.obj
 0001:0012e147       ?PreSubclassWindow@CWnd@@UAEXXZ 0052f147 f   nafxcw:wincore.obj
 0001:0012e147       ?PostNcDestroy@CWnd@@MAEXXZ 0052f147 f   nafxcw:wincore.obj
 0001:0012e147       ?InitLibId@CWinApp@@UAEXXZ 0052f147 f   nafxcw:appui2.obj
 0001:0012e147       ?PreBindFields@CRecordset@@UAEXXZ 0052f147 f   nafxcw:dbcore.obj
 0001:0012e147       ?PreInitDialog@CDialog@@MAEXXZ 0052f147 f   nafxcw:dlgcore.obj
 0001:0012e147       __initp_misc_winxfltr      0052f147 f   libcmt:winxfltr.obj
 0001:0012e148       ?GetMenu@CWnd@@UBEPAVCMenu@@XZ 0052f148 f   nafxcw:wincore.obj
 0001:0012e158       ?OnFinalRelease@CWnd@@UAEXXZ 0052f158 f   nafxcw:wincore.obj
 0001:0012e169       ?DefWindowProcA@CWnd@@MAEJIIJ@Z 0052f169 f   nafxcw:wincore.obj
 0001:0012e1b2       ?GetSuperWndProcAddr@CWnd@@MAEPAP6GJPAUHWND__@@IIJ@ZXZ 0052f1b2 f   nafxcw:wincore.obj
 0001:0012e1b6       ?PreTranslateMessage@CWnd@@UAEHPAUtagMSG@@@Z 0052f1b6 f   nafxcw:wincore.obj
 0001:0012e1d7       ?OnToolHitTest@CWnd@@UBEHVCPoint@@PAUtagTOOLINFOA@@@Z 0052f1d7 f   nafxcw:wincore.obj
 0001:0012e24a       ??1_AFX_HTMLHELP_STATE@@UAE@XZ 0052f24a f   nafxcw:wincore.obj
 0001:0012e25f       ??_G_AFX_HTMLHELP_STATE@@UAEPAXI@Z 0052f25f f i nafxcw:wincore.obj
 0001:0012e25f       ??_E_AFX_HTMLHELP_STATE@@UAEPAXI@Z 0052f25f f i nafxcw:wincore.obj
 0001:0012e27f       ?AfxFindMessageEntry@@YGPBUAFX_MSGMAP_ENTRY@@PBU1@III@Z 0052f27f f   nafxcw:wincore.obj
 0001:0012e2c1       ?WindowProc@CWnd@@MAEJIIJ@Z 0052f2c1 f   nafxcw:wincore.obj
 0001:0012e307       ??0CTestCmdUI@@QAE@XZ      0052f307 f   nafxcw:wincore.obj
 0001:0012e322       ?Enable@CTestCmdUI@@UAEXH@Z 0052f322 f   nafxcw:wincore.obj
 0001:0012e338       ?BindParameters@CDatabase@@UAEXPAX@Z 0052f338 f   nafxcw:dbcore.obj
 0001:0012e338       ?DoBulkFieldExchange@CRecordset@@UAEXPAVCFieldExchange@@@Z 0052f338 f   nafxcw:dbcore.obj
 0001:0012e338       ?SetText@CTestCmdUI@@UAEXPBD@Z 0052f338 f   nafxcw:wincore.obj
 0001:0012e338       ?DrawItem@CMenu@@UAEXPAUtagDRAWITEMSTRUCT@@@Z 0052f338 f   nafxcw:winmenu.obj
 0001:0012e338       ?OnSetFont@CDialog@@UAEXPAVCFont@@@Z 0052f338 f   nafxcw:dlgcore.obj
 0001:0012e338       ?OnSetUpdateOptions@CRecordset@@UAEXPAX@Z 0052f338 f   nafxcw:dbcore.obj
 0001:0012e338       ?SetRadio@CTestCmdUI@@UAEXH@Z 0052f338 f   nafxcw:wincore.obj
 0001:0012e338       ?DrawItem@CStatic@@UAEXPAUtagDRAWITEMSTRUCT@@@Z 0052f338 f   nafxcw:winctrl1.obj
 0001:0012e338       ?SetCheck@CTestCmdUI@@UAEXH@Z 0052f338 f   nafxcw:wincore.obj
 0001:0012e338       ?MeasureItem@CMenu@@UAEXPAUtagMEASUREITEMSTRUCT@@@Z 0052f338 f   nafxcw:winmenu.obj
 0001:0012e338       ?DoFieldExchange@CRecordset@@UAEXPAVCFieldExchange@@@Z 0052f338 f   nafxcw:dbcore.obj
 0001:0012e33b       ??3CObject@@SGXPAX0@Z      0052f33b f i nafxcw:wincore.obj
 0001:0012e34d       ?CalcWindowRect@CWnd@@UAEXPAUtagRECT@@I@Z 0052f34d f   nafxcw:wincore.obj
 0001:0012e37e       ?GetInterfaceMap@CWnd@@MBEPBUAFX_INTERFACEMAP@@XZ 0052f37e f   nafxcw:wincore.obj
 0001:0012e384       ?GetIDsOfNames@XAccessible@CWnd@@UAGJABU_GUID@@PAPA_WIKPAJ@Z 0052f384 f   nafxcw:wincore.obj
 0001:0012e3a1       ?GetTypeInfoCount@XAccessible@CWnd@@UAGJPAI@Z 0052f3a1 f   nafxcw:wincore.obj
 0001:0012e3c0       ?GetTypeInfo@XAccessible@CWnd@@UAGJIKPAPAUITypeInfo@@@Z 0052f3c0 f   nafxcw:wincore.obj
 0001:0012e3c8       ?GetEnumVariant@XAccessibleServer@CWnd@@UAGJPAPAUIEnumVARIANT@@@Z 0052f3c8 f   nafxcw:wincore.obj
 0001:0012e3e7       ?EnsureStdObj@CWnd@@UAEJXZ 0052f3e7 f   nafxcw:wincore.obj
 0001:0012e406       ?get_accParent@CWnd@@UAEJPAPAUIDispatch@@@Z 0052f406 f   nafxcw:wincore.obj
 0001:0012e41b       ?get_accChildCount@CWnd@@UAEJPAJ@Z 0052f41b f   nafxcw:wincore.obj
 0001:0012e430       ?get_accChild@CWnd@@UAEJUtagVARIANT@@PAPAUIDispatch@@@Z 0052f430 f   nafxcw:wincore.obj
 0001:0012e455       ?get_accName@CWnd@@UAEJUtagVARIANT@@PAPA_W@Z 0052f455 f   nafxcw:wincore.obj
 0001:0012e47a       ?get_accValue@CWnd@@UAEJUtagVARIANT@@PAPA_W@Z 0052f47a f   nafxcw:wincore.obj
 0001:0012e49f       ?get_accDescription@CWnd@@UAEJUtagVARIANT@@PAPA_W@Z 0052f49f f   nafxcw:wincore.obj
 0001:0012e4c4       ?get_accRole@CWnd@@UAEJUtagVARIANT@@PAU2@@Z 0052f4c4 f   nafxcw:wincore.obj
 0001:0012e4e9       ?get_accState@CWnd@@UAEJUtagVARIANT@@PAU2@@Z 0052f4e9 f   nafxcw:wincore.obj
 0001:0012e50e       ?get_accHelp@CWnd@@UAEJUtagVARIANT@@PAPA_W@Z 0052f50e f   nafxcw:wincore.obj
 0001:0012e533       ?get_accHelpTopic@CWnd@@UAEJPAPA_WUtagVARIANT@@PAJ@Z 0052f533 f   nafxcw:wincore.obj
 0001:0012e55b       ?get_accKeyboardShortcut@CWnd@@UAEJUtagVARIANT@@PAPA_W@Z 0052f55b f   nafxcw:wincore.obj
 0001:0012e580       ?get_accFocus@CWnd@@UAEJPAUtagVARIANT@@@Z 0052f580 f   nafxcw:wincore.obj
 0001:0012e595       ?get_accSelection@CWnd@@UAEJPAUtagVARIANT@@@Z 0052f595 f   nafxcw:wincore.obj
 0001:0012e5aa       ?get_accDefaultAction@CWnd@@UAEJUtagVARIANT@@PAPA_W@Z 0052f5aa f   nafxcw:wincore.obj
 0001:0012e5cf       ?accSelect@CWnd@@UAEJJUtagVARIANT@@@Z 0052f5cf f   nafxcw:wincore.obj
 0001:0012e5f4       ?accLocation@CWnd@@UAEJPAJ000UtagVARIANT@@@Z 0052f5f4 f   nafxcw:wincore.obj
 0001:0012e622       ?accNavigate@CWnd@@UAEJJUtagVARIANT@@PAU2@@Z 0052f622 f   nafxcw:wincore.obj
 0001:0012e64a       ?accHitTest@CWnd@@UAEJJJPAUtagVARIANT@@@Z 0052f64a f   nafxcw:wincore.obj
 0001:0012e665       ?accDoDefaultAction@CWnd@@UAEJUtagVARIANT@@@Z 0052f665 f   nafxcw:wincore.obj
 0001:0012e687       ?put_accValue@CWnd@@UAEJUtagVARIANT@@PA_W@Z 0052f687 f   nafxcw:wincore.obj
 0001:0012e687       ?put_accName@CWnd@@UAEJUtagVARIANT@@PA_W@Z 0052f687 f   nafxcw:wincore.obj
 0001:0012e6ac       ?SetProxy@CWnd@@UAEJPAUIAccessibleProxy@@@Z 0052f6ac f   nafxcw:wincore.obj
 0001:0012e6bd       ?CheckAutoCenter@CWnd@@UAEHXZ 0052f6bd f   nafxcw:wincore.obj
 0001:0012e6bd       ?OnCreateAggregates@CCmdTarget@@UAEHXZ 0052f6bd f   nafxcw:cmdtarg.obj
 0001:0012e6bd       ?Register@CWinApp@@UAEHXZ  0052f6bd f   nafxcw:appui2.obj
 0001:0012e6c1       ?PreTranslateInput@CWnd@@QAEHPAUtagMSG@@@Z 0052f6c1 f   nafxcw:wincore.obj
 0001:0012e6f6       ?ContinueModal@CWnd@@UAEHXZ 0052f6f6 f   nafxcw:wincore.obj
 0001:0012e6fd       ?GetTypeLibCache@CCmdTarget@@UAEPAVCTypeLibCache@@XZ 0052f6fd f   nafxcw:cmdtarg.obj
 0001:0012e6fd       ?InitInstance@CWinThread@@UAEHXZ 0052f6fd f   nafxcw:thrdcore.obj
 0001:0012e6fd       ?IsFrameWnd@CWnd@@UBEHXZ   0052f6fd f   nafxcw:wincore.obj
 0001:0012e6fd       ?GetTypeInfoCount@CCmdTarget@@UAEIXZ 0052f6fd f   nafxcw:cmdtarg.obj
 0001:0012e6fd       ?GetOccDialogInfo@CWnd@@MAEPAU_AFX_OCC_DIALOG_INFO@@XZ 0052f6fd f   nafxcw:wincore.obj
 0001:0012e6fd       __matherr                  0052f6fd f   libcmt:_matherr_.obj
 0001:0012e700       ?IsTracking@CFrameWnd@@QBEHXZ 0052f700 f   nafxcw:wincore.obj
 0001:0012e71f       ?CreateControlContainer@CWnd@@MAEHPAPAVCOleControlContainer@@@Z 0052f71f f   nafxcw:wincore.obj
 0001:0012e73a       ?CreateControlSite@CWnd@@MAEHPAVCOleControlContainer@@PAPAVCOleControlSite@@IABU_GUID@@@Z 0052f73a f   nafxcw:wincore.obj
 0001:0012e755       ?GetRuntimeClass@CWnd@@UBEPAUCRuntimeClass@@XZ 0052f755 f   nafxcw:wincore.obj
 0001:0012e75b       ??$QueryInterface@UIAccessibleProxy@@@?$CMFCComObject@VCAccessibleProxy@ATL@@@@QAGJPAPAUIAccessibleProxy@@@Z 0052f75b f i nafxcw:wincore.obj
 0001:0012e774       ?AfxCtxRegisterClassA@@YAGPBUtagWNDCLASSA@@@Z 0052f774 f i nafxcw:wincore.obj
 0001:0012e806       ?AfxCtxGetClassInfoA@@YAHPAUHINSTANCE__@@PBDPAUtagWNDCLASSA@@@Z 0052f806 f i nafxcw:wincore.obj
 0001:0012e89a       ?AfxCtxGetClassInfoExA@@YAHPAUHINSTANCE__@@PBDPAUtagWNDCLASSEXA@@@Z 0052f89a f i nafxcw:wincore.obj
 0001:0012e92e       ?AfxCtxCreateWindowExA@@YAPAUHWND__@@KPBD0KHHHHPAU1@PAUHMENU__@@PAUHINSTANCE__@@PAX@Z 0052f92e f i nafxcw:wincore.obj
 0001:0012e9dd       ??1AFX_MAINTAIN_STATE2@@QAE@XZ 0052f9dd f i nafxcw:wincore.obj
 0001:0012e9ed       ?GetMenuItemID@CMenu@@QBEIH@Z 0052f9ed f i nafxcw:wincore.obj
 0001:0012ea02       ?GetSubMenu@CMenu@@QBEPAV1@H@Z 0052fa02 f i nafxcw:wincore.obj
 0001:0012ea1d       ?GetWindowRect@CWnd@@QBEXPAUtagRECT@@@Z 0052fa1d f i nafxcw:wincore.obj
 0001:0012ea32       ??0CWaitCursor@@QAE@XZ     0052fa32 f i nafxcw:wincore.obj
 0001:0012ea48       ?Lock@CInternalGlobalLock@@QAEXH@Z 0052fa48 f i nafxcw:wincore.obj
 0001:0012ea7c       ?Unlock@CInternalGlobalLock@@QAEXXZ 0052fa7c f i nafxcw:wincore.obj
 0001:0012ea98       ?SetPermanent@CHandleMap@@QAEXPAXPAVCObject@@@Z 0052fa98 f i nafxcw:wincore.obj
 0001:0012eab1       ??0CWnd@@QAE@XZ            0052fab1 f   nafxcw:wincore.obj
 0001:0012eaf6       ?_AfxPreInitDialog@@YGXPAVCWnd@@PAUtagRECT@@PAK@Z 0052faf6 f   nafxcw:wincore.obj
 0001:0012eb17       ?SetMenu@CWnd@@UAEHPAVCMenu@@@Z 0052fb17 f   nafxcw:wincore.obj
 0001:0012eb34       ?CreateEx@CWnd@@UAEHKPBD0KABUtagRECT@@PAV1@IPAX@Z 0052fb34 f   nafxcw:wincore.obj
 0001:0012eb7f       ?Create@CWnd@@UAEHPBD0KABUtagRECT@@PAV1@IPAUCCreateContext@@@Z 0052fb7f f   nafxcw:wincore.obj
 0001:0012ebcf       ?CancelToolTips@CWnd@@SGXH@Z 0052fbcf f   nafxcw:wincore.obj
 0001:0012ec25       ?_AfxFindPopupMenuFromID@@YGPAVCMenu@@PAV1@I@Z 0052fc25 f   nafxcw:wincore.obj
 0001:0012ec91       ?WinHelpInternal@CWnd@@UAEXKI@Z 0052fc91 f   nafxcw:wincore.obj
 0001:0012ece7       ?OnActivateTopLevel@CWnd@@IAEJIJ@Z 0052fce7 f   nafxcw:wincore.obj
 0001:0012ed15       ?AddRef@XAccessible@CWnd@@UAGKXZ 0052fd15 f   nafxcw:wincore.obj
 0001:0012ed5d       ?Release@XAccessible@CWnd@@UAGKXZ 0052fd5d f   nafxcw:wincore.obj
 0001:0012eda5       ?QueryInterface@XAccessible@CWnd@@UAGJABU_GUID@@PAPAX@Z 0052fda5 f   nafxcw:wincore.obj
 0001:0012edf3       ?Invoke@XAccessible@CWnd@@UAGJJABU_GUID@@KGPAUtagDISPPARAMS@@PAUtagVARIANT@@PAUtagEXCEPINFO@@PAI@Z 0052fdf3 f   nafxcw:wincore.obj
 0001:0012ee4f       ?get_accParent@XAccessible@CWnd@@UAGJPAPAUIDispatch@@@Z 0052fe4f f   nafxcw:wincore.obj
 0001:0012ee9d       ?get_accChildCount@XAccessible@CWnd@@UAGJPAJ@Z 0052fe9d f   nafxcw:wincore.obj
 0001:0012eeeb       ?get_accChild@XAccessible@CWnd@@UAGJUtagVARIANT@@PAPAUIDispatch@@@Z 0052feeb f   nafxcw:wincore.obj
 0001:0012ef45       ?get_accName@XAccessible@CWnd@@UAGJUtagVARIANT@@PAPA_W@Z 0052ff45 f   nafxcw:wincore.obj
 0001:0012ef9f       ?get_accValue@XAccessible@CWnd@@UAGJUtagVARIANT@@PAPA_W@Z 0052ff9f f   nafxcw:wincore.obj
 0001:0012eff9       ?get_accDescription@XAccessible@CWnd@@UAGJUtagVARIANT@@PAPA_W@Z 0052fff9 f   nafxcw:wincore.obj
 0001:0012f053       ?get_accRole@XAccessible@CWnd@@UAGJUtagVARIANT@@PAU3@@Z 00530053 f   nafxcw:wincore.obj
 0001:0012f0ad       ?get_accState@XAccessible@CWnd@@UAGJUtagVARIANT@@PAU3@@Z 005300ad f   nafxcw:wincore.obj
 0001:0012f107       ?get_accHelp@XAccessible@CWnd@@UAGJUtagVARIANT@@PAPA_W@Z 00530107 f   nafxcw:wincore.obj
 0001:0012f161       ?get_accHelpTopic@XAccessible@CWnd@@UAGJPAPA_WUtagVARIANT@@PAJ@Z 00530161 f   nafxcw:wincore.obj
 0001:0012f1be       ?get_accKeyboardShortcut@XAccessible@CWnd@@UAGJUtagVARIANT@@PAPA_W@Z 005301be f   nafxcw:wincore.obj
 0001:0012f218       ?get_accFocus@XAccessible@CWnd@@UAGJPAUtagVARIANT@@@Z 00530218 f   nafxcw:wincore.obj
 0001:0012f266       ?get_accSelection@XAccessible@CWnd@@UAGJPAUtagVARIANT@@@Z 00530266 f   nafxcw:wincore.obj
 0001:0012f2b4       ?get_accDefaultAction@XAccessible@CWnd@@UAGJUtagVARIANT@@PAPA_W@Z 005302b4 f   nafxcw:wincore.obj
 0001:0012f30e       ?accSelect@XAccessible@CWnd@@UAGJJUtagVARIANT@@@Z 0053030e f   nafxcw:wincore.obj
 0001:0012f368       ?accLocation@XAccessible@CWnd@@UAGJPAJ000UtagVARIANT@@@Z 00530368 f   nafxcw:wincore.obj
 0001:0012f3cb       ?accNavigate@XAccessible@CWnd@@UAGJJUtagVARIANT@@PAU3@@Z 005303cb f   nafxcw:wincore.obj
 0001:0012f428       ?accHitTest@XAccessible@CWnd@@UAGJJJPAUtagVARIANT@@@Z 00530428 f   nafxcw:wincore.obj
 0001:0012f47c       ?accDoDefaultAction@XAccessible@CWnd@@UAGJUtagVARIANT@@@Z 0053047c f   nafxcw:wincore.obj
 0001:0012f4d3       ?put_accName@XAccessible@CWnd@@UAGJUtagVARIANT@@PA_W@Z 005304d3 f   nafxcw:wincore.obj
 0001:0012f52d       ?put_accValue@XAccessible@CWnd@@UAGJUtagVARIANT@@PA_W@Z 0053052d f   nafxcw:wincore.obj
 0001:0012f587       ?AddRef@XAccessibleServer@CWnd@@UAGKXZ 00530587 f   nafxcw:wincore.obj
 0001:0012f5cf       ?Release@XAccessibleServer@CWnd@@UAGKXZ 005305cf f   nafxcw:wincore.obj
 0001:0012f617       ?QueryInterface@XAccessibleServer@CWnd@@UAGJABU_GUID@@PAPAX@Z 00530617 f   nafxcw:wincore.obj
 0001:0012f665       ?SetProxy@XAccessibleServer@CWnd@@UAGJPAUIAccessibleProxy@@@Z 00530665 f   nafxcw:wincore.obj
 0001:0012f6b3       ?GetHWND@XAccessibleServer@CWnd@@UAGJPAPAUHWND__@@@Z 005306b3 f   nafxcw:wincore.obj
 0001:0012f6f5       ??1?$CComPtr@UIAccessibleProxy@@@ATL@@QAE@XZ 005306f5 f i nafxcw:wincore.obj
 0001:0012f702       ?UpdateData@CWnd@@QAEHH@Z  00530702 f   nafxcw:wincore.obj
 0001:0012f78d       ?CenterWindow@CWnd@@QAEXPAV1@@Z 0053078d f   nafxcw:wincore.obj
 0001:0012f94d       ?RunModalLoop@CWnd@@QAEHK@Z 0053094d f   nafxcw:wincore.obj
 0001:0012fa91       ?EndModalLoop@CWnd@@UAEXH@Z 00530a91 f   nafxcw:wincore.obj
 0001:0012fabb       ?CreateObject@CWnd@@SGPAVCObject@@XZ 00530abb f   nafxcw:wincore.obj
 0001:0012fae8       ?Construct@?$ConstructDestruct@VCWnd@@@@SGXPAVCObject@@@Z 00530ae8 f i nafxcw:wincore.obj
 0001:0012fb0f       ?GetModuleHandleA@CDllIsolationWrapperBase@@QAEPAUHINSTANCE__@@XZ 00530b0f f i nafxcw:wincore.obj
 0001:0012fb43       ?GetProcAddress_InitCommonControls@CComCtlWrapper@@QAE?AUInitCommonControls_Type@1@XZ 00530b43 f i nafxcw:wincore.obj
 0001:0012fb72       ?_InitCommonControls@CComCtlWrapper@@QAEXXZ 00530b72 f i nafxcw:wincore.obj
 0001:0012fbe6       ?GetProcAddress_InitCommonControlsEx@CComCtlWrapper@@QAE?AUInitCommonControlsEx_Type@1@XZ 00530be6 f i nafxcw:wincore.obj
 0001:0012fc15       ?_InitCommonControlsEx@CComCtlWrapper@@QAEHPAUtagINITCOMMONCONTROLSEX@@@Z 00530c15 f i nafxcw:wincore.obj
 0001:0012fcc0       ?AfxInitCommonControlsEx@@YGHPAUtagINITCOMMONCONTROLSEX@@@Z 00530cc0 f i nafxcw:wincore.obj
 0001:0012fcdb       ??1CInternalGlobalLock@@QAE@XZ 00530cdb f i nafxcw:wincore.obj
 0001:0012fce0       ?GetCurrentMessage@CWnd@@KGPBUtagMSG@@XZ 00530ce0 f   nafxcw:wincore.obj
 0001:0012fd1e       ?Default@CWnd@@IAEJXZ      00530d1e f   nafxcw:wincore.obj
 0001:0012fd50       ?afxMapHWND@@YGPAVCHandleMap@@H@Z 00530d50 f   nafxcw:wincore.obj
 0001:0012fdc4       ?FromHandle@CWnd@@SGPAV1@PAUHWND__@@@Z 00530dc4 f   nafxcw:wincore.obj
 0001:0012fdf0       ?FromHandlePermanent@CWnd@@SGPAV1@PAUHWND__@@@Z 00530df0 f   nafxcw:wincore.obj
 0001:0012fe11       ?Attach@CWnd@@QAEHPAUHWND__@@@Z 00530e11 f   nafxcw:wincore.obj
 0001:0012fe4d       ?Detach@CWnd@@QAEPAUHWND__@@XZ 00530e4d f   nafxcw:wincore.obj
 0001:0012fe7d       ?AfxUnhookWindowCreate@@YGHXZ 00530e7d f   nafxcw:wincore.obj
 0001:0012feca       ?OnDestroy@CWnd@@IAEXXZ    00530eca f   nafxcw:wincore.obj
 0001:0012ff07       ?OnNcDestroy@CWnd@@IAEXXZ  00530f07 f   nafxcw:wincore.obj
 0001:0013001a       ?DestroyWindow@CWnd@@UAEHXZ 0053101a f   nafxcw:wincore.obj
 0001:00130079       ?OnNTCtlColor@CWnd@@IAEJIJ@Z 00531079 f   nafxcw:wincore.obj
 0001:001300ca       ?GetDescendantWindow@CWnd@@SGPAV1@PAUHWND__@@HH@Z 005310ca f   nafxcw:wincore.obj
 0001:00130143       ?WalkPreTranslateTree@CWnd@@SGHPAUHWND__@@PAUtagMSG@@@Z 00531143 f   nafxcw:wincore.obj
 0001:00130189       ?SendChildNotifyLastMsg@CWnd@@QAEHPAJ@Z 00531189 f   nafxcw:wincore.obj
 0001:001301c4       ?OnSetFocus@CWnd@@IAEXPAV1@@Z 005311c4 f   nafxcw:wincore.obj
 0001:001301e9       ?OnHelpInfo@CWnd@@IAEHPAUtagHELPINFO@@@Z 005311e9 f   nafxcw:wincore.obj
 0001:00130255       ?OnGetObject@CWnd@@IAEJIJ@Z 00531255 f   nafxcw:wincore.obj
 0001:00130293       ?OnHScroll@CWnd@@IAEXIIPAVCScrollBar@@@Z 00531293 f   nafxcw:wincore.obj
 0001:00130293       ?OnVScroll@CWnd@@IAEXIIPAVCScrollBar@@@Z 00531293 f   nafxcw:wincore.obj
 0001:001302b9       ?OnEnterIdle@CWnd@@IAEXIPAV1@@Z 005312b9 f   nafxcw:wincore.obj
 0001:001302fb       ?OnCtlColor@CWnd@@IAEPAUHBRUSH__@@PAVCDC@@PAV1@I@Z 005312fb f   nafxcw:wincore.obj
 0001:00130324       ?_AfxInitCommonControls@@YGJPAUtagINITCOMMONCONTROLSEX@@J@Z 00531324 f   nafxcw:wincore.obj
 0001:0013037d       ?CreateObject@?$CProcessLocal@V_AFX_HTMLHELP_STATE@@@@SGPAVCNoTrackObject@@XZ 0053137d f i nafxcw:wincore.obj
 0001:00130392       ?GetWindow@CWnd@@QBEPAV1@I@Z 00531392 f i nafxcw:wincore.obj
 0001:001303ad       ?_AfxPostInitDialog@@YGXPAVCWnd@@ABUtagRECT@@K@Z 005313ad f   nafxcw:wincore.obj
 0001:00130423       ?AfxCallWndProc@@YGJPAVCWnd@@PAUHWND__@@IIJ@Z 00531423 f   nafxcw:wincore.obj
 0001:00130516       ?AfxWndProc@@YGJPAUHWND__@@IIJ@Z 00531516 f   nafxcw:wincore.obj
 0001:00130563       ??1CWnd@@UAE@XZ            00531563 f   nafxcw:wincore.obj
 0001:001305d8       ?OnVKeyToItem@CWnd@@IAEHIPAVCListBox@@I@Z 005315d8 f   nafxcw:wincore.obj
 0001:001305d8       ?OnCharToItem@CWnd@@IAEHIPAVCListBox@@I@Z 005315d8 f   nafxcw:wincore.obj
 0001:00130605       ?OnMeasureItem@CWnd@@IAEXHPAUtagMEASUREITEMSTRUCT@@@Z 00531605 f   nafxcw:wincore.obj
 0001:0013068e       ?GetParentFrame@CWnd@@QBEPAVCFrameWnd@@XZ 0053168e f   nafxcw:wincore.obj
 0001:001306cd       ?GetTopLevelFrame@CWnd@@QBEPAVCFrameWnd@@XZ 005316cd f   nafxcw:wincore.obj
 0001:0013070e       ?SendMessageToDescendants@CWnd@@SGXPAUHWND__@@IIJHH@Z 0053170e f   nafxcw:wincore.obj
 0001:0013078d       ?ReflectLastMsg@CWnd@@KGHPAUHWND__@@PAJ@Z 0053178d f   nafxcw:wincore.obj
 0001:0013082d       ?OnParentNotify@CWnd@@IAEXIJ@Z 0053182d f   nafxcw:wincore.obj
 0001:0013085d       ?OnDragList@CWnd@@IAEJIJ@Z 0053185d f   nafxcw:wincore.obj
 0001:00130889       ?SubclassWindow@CWnd@@QAEHPAUHWND__@@@Z 00531889 f   nafxcw:wincore.obj
 0001:001308cf       ?get_accParent@?$IAccessibleProxyImpl@VCAccessibleProxy@ATL@@@ATL@@UAGJPAPAUIDispatch@@@Z 005318cf f i nafxcw:wincore.obj
 0001:00130901       ?get_accChildCount@?$IAccessibleProxyImpl@VCAccessibleProxy@ATL@@@ATL@@UAGJPAJ@Z 00531901 f i nafxcw:wincore.obj
 0001:00130933       ?get_accChild@?$IAccessibleProxyImpl@VCAccessibleProxy@ATL@@@ATL@@UAGJUtagVARIANT@@PAPAUIDispatch@@@Z 00531933 f i nafxcw:wincore.obj
 0001:00130973       ?get_accName@?$IAccessibleProxyImpl@VCAccessibleProxy@ATL@@@ATL@@UAGJUtagVARIANT@@PAPA_W@Z 00531973 f i nafxcw:wincore.obj
 0001:001309b3       ?get_accValue@?$IAccessibleProxyImpl@VCAccessibleProxy@ATL@@@ATL@@UAGJUtagVARIANT@@PAPA_W@Z 005319b3 f i nafxcw:wincore.obj
 0001:001309f3       ?get_accDescription@?$IAccessibleProxyImpl@VCAccessibleProxy@ATL@@@ATL@@UAGJUtagVARIANT@@PAPA_W@Z 005319f3 f i nafxcw:wincore.obj
 0001:00130a33       ?get_accRole@?$IAccessibleProxyImpl@VCAccessibleProxy@ATL@@@ATL@@UAGJUtagVARIANT@@PAU3@@Z 00531a33 f i nafxcw:wincore.obj
 0001:00130a73       ?get_accState@?$IAccessibleProxyImpl@VCAccessibleProxy@ATL@@@ATL@@UAGJUtagVARIANT@@PAU3@@Z 00531a73 f i nafxcw:wincore.obj
 0001:00130ab3       ?get_accHelp@?$IAccessibleProxyImpl@VCAccessibleProxy@ATL@@@ATL@@UAGJUtagVARIANT@@PAPA_W@Z 00531ab3 f i nafxcw:wincore.obj
 0001:00130af3       ?get_accHelpTopic@?$IAccessibleProxyImpl@VCAccessibleProxy@ATL@@@ATL@@UAGJPAPA_WUtagVARIANT@@PAJ@Z 00531af3 f i nafxcw:wincore.obj
 0001:00130b3c       ?get_accKeyboardShortcut@?$IAccessibleProxyImpl@VCAccessibleProxy@ATL@@@ATL@@UAGJUtagVARIANT@@PAPA_W@Z 00531b3c f i nafxcw:wincore.obj
 0001:00130b7c       ?get_accFocus@?$IAccessibleProxyImpl@VCAccessibleProxy@ATL@@@ATL@@UAGJPAUtagVARIANT@@@Z 00531b7c f i nafxcw:wincore.obj
 0001:00130bae       ?get_accSelection@?$IAccessibleProxyImpl@VCAccessibleProxy@ATL@@@ATL@@UAGJPAUtagVARIANT@@@Z 00531bae f i nafxcw:wincore.obj
 0001:00130be0       ?get_accDefaultAction@?$IAccessibleProxyImpl@VCAccessibleProxy@ATL@@@ATL@@UAGJUtagVARIANT@@PAPA_W@Z 00531be0 f i nafxcw:wincore.obj
 0001:00130c20       ?accSelect@?$IAccessibleProxyImpl@VCAccessibleProxy@ATL@@@ATL@@UAGJJUtagVARIANT@@@Z 00531c20 f i nafxcw:wincore.obj
 0001:00130c53       ?accLocation@?$IAccessibleProxyImpl@VCAccessibleProxy@ATL@@@ATL@@UAGJPAJ000UtagVARIANT@@@Z 00531c53 f i nafxcw:wincore.obj
 0001:00130cac       ?accNavigate@?$IAccessibleProxyImpl@VCAccessibleProxy@ATL@@@ATL@@UAGJJUtagVARIANT@@PAU3@@Z 00531cac f i nafxcw:wincore.obj
 0001:00130cef       ?accHitTest@?$IAccessibleProxyImpl@VCAccessibleProxy@ATL@@@ATL@@UAGJJJPAUtagVARIANT@@@Z 00531cef f i nafxcw:wincore.obj
 0001:00130d27       ?accDoDefaultAction@?$IAccessibleProxyImpl@VCAccessibleProxy@ATL@@@ATL@@UAGJUtagVARIANT@@@Z 00531d27 f i nafxcw:wincore.obj
 0001:00130d57       ?put_accValue@?$IAccessibleProxyImpl@VCAccessibleProxy@ATL@@@ATL@@UAGJUtagVARIANT@@PA_W@Z 00531d57 f i nafxcw:wincore.obj
 0001:00130d57       ?put_accName@?$IAccessibleProxyImpl@VCAccessibleProxy@ATL@@@ATL@@UAGJUtagVARIANT@@PA_W@Z 00531d57 f i nafxcw:wincore.obj
 0001:00130d74       ?SetServer@?$IAccessibleProxyImpl@VCAccessibleProxy@ATL@@@ATL@@UAGJPAUIAccessible@@PAUIAccessibleServer@@@Z 00531d74 f i nafxcw:wincore.obj
 0001:00130d8e       ?Invoke@?$IAccessibleProxyImpl@VCAccessibleProxy@ATL@@@ATL@@UAGJJABU_GUID@@KGPAUtagDISPPARAMS@@PAUtagVARIANT@@PAUtagEXCEPINFO@@PAI@Z 00531d8e f i nafxcw:wincore.obj
 0001:00130dc8       ?GetIDsOfNames@?$IAccessibleProxyImpl@VCAccessibleProxy@ATL@@@ATL@@UAGJABU_GUID@@PAPA_WIKPAJ@Z 00531dc8 f i nafxcw:wincore.obj
 0001:00130df9       ?GetTypeInfoCount@?$IAccessibleProxyImpl@VCAccessibleProxy@ATL@@@ATL@@UAGJPAI@Z 00531df9 f i nafxcw:wincore.obj
 0001:00130e1e       ?GetTypeInfo@?$IAccessibleProxyImpl@VCAccessibleProxy@ATL@@@ATL@@UAGJIKPAPAUITypeInfo@@@Z 00531e1e f i nafxcw:wincore.obj
 0001:00130e49       ?GetOwner@CWnd@@QBEPAV1@XZ 00531e49 f i nafxcw:wincore.obj
 0001:00130e60       ??_ECWnd@@UAEPAXI@Z        00531e60 f i nafxcw:wincore.obj
 0001:00130e60       ??_GCWnd@@UAEPAXI@Z        00531e60 f i nafxcw:wincore.obj
 0001:00130e81       ?GetWindowTextA@CWnd@@QBEXAAV?$CStringT@DV?$StrTraitMFC@DV?$ChTraitsCRT@D@ATL@@@@@ATL@@@Z 00531e81 f   nafxcw:wincore.obj
 0001:00130ecb       ?OnDrawItem@CWnd@@IAEXHPAUtagDRAWITEMSTRUCT@@@Z 00531ecb f   nafxcw:wincore.obj
 0001:00130f0d       ?OnCompareItem@CWnd@@IAEHHPAUtagCOMPAREITEMSTRUCT@@@Z 00531f0d f   nafxcw:wincore.obj
 0001:00130f39       ?OnDeleteItem@CWnd@@IAEXHPAUtagDELETEITEMSTRUCT@@@Z 00531f39 f   nafxcw:wincore.obj
 0001:00130f5e       ?AfxHtmlHelp@@YGPAUHWND__@@PAU1@PBDIK@Z 00531f5e f   nafxcw:wincore.obj
 0001:00130fde       ?OnCommand@CWnd@@MAEHIJ@Z  00531fde f   nafxcw:wincore.obj
 0001:00131077       ?OnNotify@CWnd@@MAEHIJPAJ@Z 00532077 f   nafxcw:wincore.obj
 0001:001310f9       ?AfxGetParentOwner@@YGPAUHWND__@@PAU1@@Z 005320f9 f   nafxcw:wincore.obj
 0001:00131143       ?GetTopLevelParent@CWnd@@QBEPAV1@XZ 00532143 f   nafxcw:wincore.obj
 0001:0013116b       ?OnSysColorChange@CWnd@@IAEXXZ 0053216b f   nafxcw:wincore.obj
 0001:001311b3       ?OnDevModeChange@CWnd@@IAEXPAD@Z 005321b3 f   nafxcw:wincore.obj
 0001:00131203       ?OnDisplayChange@CWnd@@IAEJIJ@Z 00532203 f   nafxcw:wincore.obj
 0001:0013124e       ??0?$CMFCComObject@VCAccessibleProxy@ATL@@@@QAE@PAX@Z 0053224e f i nafxcw:wincore.obj
 0001:0013127b       _InlineIsEqualGUID         0053227b f i nafxcw:wincore.obj
 0001:001312ad       ?GetWindow@CAccessibleProxy@ATL@@UAGJPAPAUHWND__@@@Z 005322ad f i nafxcw:wincore.obj
 0001:001312b2       ?ContextSensitiveHelp@CAccessibleProxy@ATL@@UAGJH@Z 005322b2 f i nafxcw:wincore.obj
 0001:001312ba       ?FinalRelease@CAccessibleProxy@ATL@@QAEJXZ 005322ba f i nafxcw:wincore.obj
 0001:001312cf       ?InlineIsEqualUnknown@ATL@@YGHABU_GUID@@@Z 005322cf f i nafxcw:wincore.obj
 0001:001312ff       ?AtlInternalQueryInterface@ATL@@YGJPAXPBU_ATL_INTMAP_ENTRY@1@ABU_GUID@@PAPAX@Z 005322ff f i nafxcw:wincore.obj
 0001:001313a2       ?_InternalQueryInterface@CAccessibleProxy@ATL@@QAEJABU_GUID@@PAPAX@Z 005323a2 f i nafxcw:wincore.obj
 0001:001313bc       ??1?$CMFCComObject@VCAccessibleProxy@ATL@@@@UAE@XZ 005323bc f i nafxcw:wincore.obj
 0001:001313e1       ?AddRef@?$CMFCComObject@VCAccessibleProxy@ATL@@@@UAGKXZ 005323e1 f i nafxcw:wincore.obj
 0001:001313f3       ?Release@?$CMFCComObject@VCAccessibleProxy@ATL@@@@UAGKXZ 005323f3 f i nafxcw:wincore.obj
 0001:00131416       ?QueryInterface@?$CMFCComObject@VCAccessibleProxy@ATL@@@@UAGJABU_GUID@@PAPAX@Z 00532416 f i nafxcw:wincore.obj
 0001:0013142d       ??_G?$CMFCComObject@VCAccessibleProxy@ATL@@@@UAEPAXI@Z 0053242d f i nafxcw:wincore.obj
 0001:0013142d       ??_E?$CMFCComObject@VCAccessibleProxy@ATL@@@@UAEPAXI@Z 0053242d f i nafxcw:wincore.obj
 0001:0013144e       ?Release@?$CMFCComObject@VCAccessibleProxy@ATL@@@@WBA@AGKXZ 0053244e f i nafxcw:wincore.obj
 0001:00131458       ?QueryInterface@?$CMFCComObject@VCAccessibleProxy@ATL@@@@W3AGJABU_GUID@@PAPAX@Z 00532458 f i nafxcw:wincore.obj
 0001:00131462       ?AddRef@?$CMFCComObject@VCAccessibleProxy@ATL@@@@WBA@AGKXZ 00532462 f i nafxcw:wincore.obj
 0001:0013146c       ?QueryInterface@?$CMFCComObject@VCAccessibleProxy@ATL@@@@WBA@AGJABU_GUID@@PAPAX@Z 0053246c f i nafxcw:wincore.obj
 0001:00131476       ?Release@?$CMFCComObject@VCAccessibleProxy@ATL@@@@W3AGKXZ 00532476 f i nafxcw:wincore.obj
 0001:00131480       ?AddRef@?$CMFCComObject@VCAccessibleProxy@ATL@@@@W3AGKXZ 00532480 f i nafxcw:wincore.obj
 0001:0013148a       ?_AfxHandleActivate@@YGXPAVCWnd@@I0@Z 0053248a f   nafxcw:wincore.obj
 0001:00131502       ?_AfxHandleSetCursor@@YGHPAVCWnd@@II@Z 00532502 f   nafxcw:wincore.obj
 0001:0013157a       ?_AfxActivationWndProc@@YGJPAUHWND__@@IIJ@Z 0053257a f   nafxcw:wincore.obj
 0001:001316c7       ?_AfxCbtFilterHook@@YGJHIJ@Z 005326c7 f   nafxcw:wincore.obj
 0001:0013191a       ?AfxHookWindowCreate@@YGXPAVCWnd@@@Z 0053291a f   nafxcw:wincore.obj
 0001:00131974       ?CreateEx@CWnd@@UAEHKPBD0KHHHHPAUHWND__@@PAUHMENU__@@PAX@Z 00532974 f   nafxcw:wincore.obj
 0001:00131a53       ?PrepareForHelp@CWnd@@QAEXXZ 00532a53 f   nafxcw:wincore.obj
 0001:00131ad1       ?OnWndMsg@CWnd@@MAEHIIJPAJ@Z 00532ad1 f   nafxcw:wincore.obj
 0001:001321e5       ?ReflectChildNotify@CWnd@@IAEHIIJPAJ@Z 005331e5 f   nafxcw:wincore.obj
 0001:001322cc       ?OnSettingChange@CWnd@@IAEXIPBD@Z 005332cc f   nafxcw:wincore.obj
 0001:001322f8       ?CreateInstance@?$CMFCComObject@VCAccessibleProxy@ATL@@@@SGJPAPAV1@@Z 005332f8 f i nafxcw:wincore.obj
 0001:0013236a       ??1CWaitCursor@@QAE@XZ     0053336a f i nafxcw:wincore.obj
 0001:00132437       ?WinHelpA@CWnd@@UAEXKI@Z   00533437 f   nafxcw:wincore.obj
 0001:001324a7       ?HtmlHelpA@CWnd@@UAEXKI@Z  005334a7 f   nafxcw:wincore.obj
 0001:00132516       ?OnChildNotify@CWnd@@MAEHIIJPAJ@Z 00533516 f   nafxcw:wincore.obj
 0001:0013255f       ?CreateAccessibleProxy@CWnd@@UAEJIJPAJ@Z 0053355f f   nafxcw:wincore.obj
 0001:00132619       ?GetDlgItemTextA@CWnd@@QBEHHAAV?$CStringT@DV?$StrTraitMFC@DV?$ChTraitsCRT@D@ATL@@@@@ATL@@@Z 00533619 f   nafxcw:wincore.obj
 0001:0013268d       ?GetMessageMap@CWnd@@MBEPBUAFX_MSGMAP@@XZ 0053368d f   nafxcw:wincore.obj
 0001:0013268d       ?GetThisMessageMap@CWnd@@KGPBUAFX_MSGMAP@@XZ 0053368d f   nafxcw:wincore.obj
 0001:00132693       ?AfxRegisterClass@@YGHPAUtagWNDCLASSA@@@Z 00533693 f   nafxcw:wincore.obj
 0001:00132720       ?ExecuteDlgInit@CWnd@@QAEHPAX@Z 00533720 f   nafxcw:wincore.obj
 0001:0013284b       ?_AfxRegisterWithIcon@@YGHPAUtagWNDCLASSA@@PBDI@Z 0053384b f   nafxcw:wincore.obj
 0001:0013288f       ?AfxEndDeferRegisterClass@@YGHJ@Z 0053388f f   nafxcw:wincore.obj
 0001:00132b81       ?PreCreateWindow@CWnd@@UAEHAAUtagCREATESTRUCTA@@@Z 00533b81 f   nafxcw:wincore.obj
 0001:00132ba6       ?ExecuteDlgInit@CWnd@@QAEHPBD@Z 00533ba6 f   nafxcw:wincore.obj
 0001:00132c10       ?OnAmbientProperty@CWnd@@UAEHPAVCOleControlSite@@JPAUtagVARIANT@@@Z 00533c10 f   nafxcw:winocc.obj
 0001:00132c1e       ?GetControlUnknown@CWnd@@QAEPAUIUnknown@@XZ 00533c1e f   nafxcw:winocc.obj
 0001:00132c2a       ?PaintWindowlessControls@CWnd@@QAEHPAVCDC@@@Z 00533c2a f   nafxcw:winocc.obj
 0001:00132c47       ?GetOleControlSite@CWnd@@QBEPAVCOleControlSite@@I@Z 00533c47 f   nafxcw:winocc.obj
 0001:00132c61       ?GetDlgItem@CWnd@@QBEPAV1@H@Z 00533c61 f   nafxcw:winocc.obj
 0001:00132c8b       ?GetDlgItem@CWnd@@QBEXHPAPAUHWND__@@@Z 00533c8b f   nafxcw:winocc.obj
 0001:00132cb4       ?SetDlgItemTextA@CWnd@@QAEXHPBD@Z 00533cb4 f   nafxcw:winocc.obj
 0001:00132cde       ?IsDialogMessageA@CWnd@@QAEHPAUtagMSG@@@Z 00533cde f   nafxcw:winocc.obj
 0001:00132d15       ?GetStyle@CWnd@@QBEKXZ     00533d15 f   nafxcw:winocc.obj
 0001:00132d2f       ?GetExStyle@CWnd@@QBEKXZ   00533d2f f   nafxcw:winocc.obj
 0001:00132d49       ?SetWindowTextA@CWnd@@QAEXPBD@Z 00533d49 f   nafxcw:winocc.obj
 0001:00132d90       ?ShowWindow@CWnd@@QAEHH@Z  00533d90 f   nafxcw:winocc.obj
 0001:00132db7       ?IsWindowEnabled@CWnd@@QBEHXZ 00533db7 f   nafxcw:winocc.obj
 0001:00132dd2       ?EnableWindow@CWnd@@QAEHH@Z 00533dd2 f   nafxcw:winocc.obj
 0001:00132df9       ?SetFocus@CWnd@@QAEPAV1@XZ 00533df9 f   nafxcw:winocc.obj
 0001:00132e1a       ?AttachControlSite@CWnd@@QAEXPAV1@I@Z 00533e1a f   nafxcw:winocc.obj
 0001:00132e43       ?SetWindowPos@CWnd@@QAEHPBV1@HHHHI@Z 00533e43 f   nafxcw:winocc.obj
 0001:00132e81       ?AttachControlSite@CWnd@@IAEXPAVCHandleMap@@@Z 00533e81 f   nafxcw:winocc.obj
 0001:00132ec5       ?PrepareCtrl@CDataExchange@@QAEPAUHWND__@@H@Z 00533ec5 f   nafxcw:dlgdata.obj
 0001:00132f06       ?DDX_Control@@YGXPAVCDataExchange@@HAAVCWnd@@@Z 00533f06 f   nafxcw:dlgdata.obj
 0001:00132f91       ?PrepareEditCtrl@CDataExchange@@QAEPAUHWND__@@H@Z 00533f91 f   nafxcw:dlgdata.obj
 0001:00132fad       ?DDX_Text@@YGXPAVCDataExchange@@HAAV?$CStringT@DV?$StrTraitMFC@DV?$ChTraitsCRT@D@ATL@@@@@ATL@@@Z 00533fad f   nafxcw:dlgdata.obj
 0001:00133001       ?SetAttribDC@CDC@@UAEXPAUHDC__@@@Z 00534001 f   nafxcw:wingdi.obj
 0001:00133010       ?SetOutputDC@CDC@@UAEXPAUHDC__@@@Z 00534010 f   nafxcw:wingdi.obj
 0001:0013301f       ?ReleaseAttribDC@CDC@@UAEXXZ 0053401f f   nafxcw:wingdi.obj
 0001:00133024       ?ReleaseOutputDC@CDC@@UAEXXZ 00534024 f   nafxcw:wingdi.obj
 0001:00133029       ?SaveDC@CDC@@UAEHXZ        00534029 f   nafxcw:wingdi.obj
 0001:0013305c       ?RestoreDC@CDC@@UAEHH@Z    0053405c f   nafxcw:wingdi.obj
 0001:0013309e       ?SetBkColor@CDC@@UAEKK@Z   0053409e f   nafxcw:wingdi.obj
 0001:001330d1       ?SetTextColor@CDC@@UAEKK@Z 005340d1 f   nafxcw:wingdi.obj
 0001:00133104       ?SetMapMode@CDC@@UAEHH@Z   00534104 f   nafxcw:wingdi.obj
 0001:00133136       ?GetClipBox@CDC@@UBEHPAUtagRECT@@@Z 00534136 f   nafxcw:wingdi.obj
 0001:0013314b       ?GetRuntimeClass@CResourceException@@UBEPAUCRuntimeClass@@XZ 0053414b f   nafxcw:wingdi.obj
 0001:00133151       ?GetRuntimeClass@CUserException@@UBEPAUCRuntimeClass@@XZ 00534151 f   nafxcw:wingdi.obj
 0001:00133157       ?GetRuntimeClass@CDC@@UBEPAUCRuntimeClass@@XZ 00534157 f   nafxcw:wingdi.obj
 0001:0013315d       ?GetRuntimeClass@CPaintDC@@UBEPAUCRuntimeClass@@XZ 0053415d f   nafxcw:wingdi.obj
 0001:00133163       ?GetRuntimeClass@CGdiObject@@UBEPAUCRuntimeClass@@XZ 00534163 f   nafxcw:wingdi.obj
 0001:00133169       ?AfxThrowResourceException@@YGXXZ 00534169 f   nafxcw:wingdi.obj
 0001:00133185       ?AfxThrowUserException@@YGXXZ 00534185 f   nafxcw:wingdi.obj
 0001:001331a1       ??0CDC@@QAE@XZ             005341a1 f   nafxcw:wingdi.obj
 0001:001331b5       ?PtVisible@CDC@@UBEHHH@Z   005341b5 f i nafxcw:wingdi.obj
 0001:001331cd       ?RectVisible@CDC@@UBEHPBUtagRECT@@@Z 005341cd f i nafxcw:wingdi.obj
 0001:001331e2       ?TextOutA@CDC@@UAEHHHPBDH@Z 005341e2 f i nafxcw:wingdi.obj
 0001:00133200       ?ExtTextOutA@CDC@@UAEHHHIPBUtagRECT@@PBDIPAH@Z 00534200 f i nafxcw:wingdi.obj
 0001:00133227       ?TabbedTextOutA@CDC@@UAE?AVCSize@@HHPBDHHPAHH@Z 00534227 f i nafxcw:wingdi.obj
 0001:0013325f       ?DrawTextA@CDC@@UAEHPBDHPAUtagRECT@@I@Z 0053425f f i nafxcw:wingdi.obj
 0001:0013327d       ?DrawTextExA@CDC@@UAEHPADHPAUtagRECT@@IPAUtagDRAWTEXTPARAMS@@@Z 0053427d f i nafxcw:wingdi.obj
 0001:0013329e       ?GrayStringA@CDC@@UAEHPAVCBrush@@P6GHPAUHDC__@@JH@ZJHHHHH@Z 0053429e f i nafxcw:wingdi.obj
 0001:001332d0       ?Escape@CDC@@UAEHHHPBDPAX@Z 005342d0 f i nafxcw:wingdi.obj
 0001:001332ee       ?SetViewportOrg@CDC@@UAE?AVCPoint@@HH@Z 005342ee f   nafxcw:wingdi.obj
 0001:0013332d       ?OffsetViewportOrg@CDC@@UAE?AVCPoint@@HH@Z 0053432d f   nafxcw:wingdi.obj
 0001:0013336c       ?SetViewportExt@CDC@@UAE?AVCSize@@HH@Z 0053436c f   nafxcw:wingdi.obj
 0001:001333ab       ?ScaleViewportExt@CDC@@UAE?AVCSize@@HHHH@Z 005343ab f   nafxcw:wingdi.obj
 0001:001333f6       ?SetWindowExt@CDC@@UAE?AVCSize@@HH@Z 005343f6 f   nafxcw:wingdi.obj
 0001:00133435       ?ScaleWindowExt@CDC@@UAE?AVCSize@@HHHH@Z 00534435 f   nafxcw:wingdi.obj
 0001:00133480       ?CreateObject@CDC@@SGPAVCObject@@XZ 00534480 f   nafxcw:wingdi.obj
 0001:001334a1       ?CreateObject@CGdiObject@@SGPAVCObject@@XZ 005344a1 f   nafxcw:wingdi.obj
 0001:001334bb       ?Construct@?$ConstructDestruct@VCDC@@@@SGXPAVCObject@@@Z 005344bb f i nafxcw:wingdi.obj
 0001:001334dc       ?Construct@?$ConstructDestruct@VCGdiObject@@@@SGXPAVCObject@@@Z 005344dc f i nafxcw:wingdi.obj
 0001:001334f6       ?afxMapHDC@@YGPAVCHandleMap@@H@Z 005344f6 f   nafxcw:wingdi.obj
 0001:0013356a       ?FromHandle@CDC@@SGPAV1@PAUHDC__@@@Z 0053456a f   nafxcw:wingdi.obj
 0001:0013357e       ?Attach@CDC@@QAEHPAUHDC__@@@Z 0053457e f   nafxcw:wingdi.obj
 0001:001335b4       ?Detach@CDC@@QAEPAUHDC__@@XZ 005345b4 f   nafxcw:wingdi.obj
 0001:001335e7       ??1CDC@@UAE@XZ             005345e7 f   nafxcw:wingdi.obj
 0001:00133600       ??0CPaintDC@@QAE@PAVCWnd@@@Z 00534600 f   nafxcw:wingdi.obj
 0001:00133654       ??1CPaintDC@@UAE@XZ        00534654 f   nafxcw:wingdi.obj
 0001:00133694       ?afxMapHGDIOBJ@@YGPAVCHandleMap@@H@Z 00534694 f   nafxcw:wingdi.obj
 0001:00133708       ?FromHandle@CGdiObject@@SGPAV1@PAX@Z 00534708 f   nafxcw:wingdi.obj
 0001:0013371c       ?Detach@CGdiObject@@QAEPAXXZ 0053471c f   nafxcw:wingdi.obj
 0001:00133748       ?DeleteObject@CGdiObject@@QAEHXZ 00534748 f   nafxcw:wingdi.obj
 0001:0013375e       ??_GCDC@@UAEPAXI@Z         0053475e f i nafxcw:wingdi.obj
 0001:0013375e       ??_ECDC@@UAEPAXI@Z         0053475e f i nafxcw:wingdi.obj
 0001:0013377f       ?SelectStockObject@CDC@@UAEPAVCGdiObject@@H@Z 0053477f f   nafxcw:wingdi.obj
 0001:001337c0       ?SelectObject@CDC@@UAEPAVCFont@@PAV2@@Z 005347c0 f   nafxcw:wingdi.obj
 0001:0013380b       ??_ECPaintDC@@UAEPAXI@Z    0053480b f i nafxcw:wingdi.obj
 0001:0013380b       ??_GCPaintDC@@UAEPAXI@Z    0053480b f i nafxcw:wingdi.obj
 0001:0013382c       ??1CGdiObject@@UAE@XZ      0053482c f i nafxcw:wingdi.obj
 0001:001338f1       ??_GCGdiObject@@UAEPAXI@Z  005348f1 f i nafxcw:wingdi.obj
 0001:001338f1       ??_ECGdiObject@@UAEPAXI@Z  005348f1 f i nafxcw:wingdi.obj
 0001:00133912       ??0CDBVariant@@QAE@XZ      00534912 f   nafxcw:dbvar.obj
 0001:0013391f       ?Clear@CDBVariant@@QAEXXZ  0053491f f   nafxcw:dbvar.obj
 0001:0013397c       ??1CDBVariant@@UAE@XZ      0053497c f   nafxcw:dbvar.obj
 0001:00133987       ??_GCDBVariant@@UAEPAXI@Z  00534987 f i nafxcw:dbvar.obj
 0001:00133987       ??_ECDBVariant@@UAEPAXI@Z  00534987 f i nafxcw:dbvar.obj
 0001:001339ae       ?GetRuntimeClass@CMenu@@UBEPAUCRuntimeClass@@XZ 005349ae f   nafxcw:winmenu.obj
 0001:001339b4       ?Destruct@?$ConstructDestruct@VCWnd@@@@SGXPAVCObject@@@Z 005349b4 f i nafxcw:wincore.obj
 0001:001339b4       ?Destruct@?$ConstructDestruct@VCDC@@@@SGXPAVCObject@@@Z 005349b4 f i nafxcw:wingdi.obj
 0001:001339b4       ?Destruct@?$ConstructDestruct@VCMenu@@@@SGXPAVCObject@@@Z 005349b4 f i nafxcw:winmenu.obj
 0001:001339b4       ?Destruct@?$ConstructDestruct@VCGdiObject@@@@SGXPAVCObject@@@Z 005349b4 f i nafxcw:wingdi.obj
 0001:001339c7       ?CreateObject@CMenu@@SGPAVCObject@@XZ 005349c7 f   nafxcw:winmenu.obj
 0001:001339e1       ?Construct@?$ConstructDestruct@VCMenu@@@@SGXPAVCObject@@@Z 005349e1 f i nafxcw:winmenu.obj
 0001:001339fb       ?afxMapHMENU@@YGPAVCHandleMap@@H@Z 005349fb f   nafxcw:winmenu.obj
 0001:00133a6f       ?FromHandle@CMenu@@SGPAV1@PAUHMENU__@@@Z 00534a6f f   nafxcw:winmenu.obj
 0001:00133a83       ?FromHandlePermanent@CMenu@@SGPAV1@PAUHMENU__@@@Z 00534a83 f   nafxcw:winmenu.obj
 0001:00133aa4       ?Detach@CMenu@@QAEPAUHMENU__@@XZ 00534aa4 f   nafxcw:winmenu.obj
 0001:00133ad0       ?DestroyMenu@CMenu@@QAEHXZ 00534ad0 f   nafxcw:winmenu.obj
 0001:00133ae6       ??_ECMenu@@UAEPAXI@Z       00534ae6 f i nafxcw:winmenu.obj
 0001:00133ae6       ??_GCMenu@@UAEPAXI@Z       00534ae6 f i nafxcw:winmenu.obj
 0001:00133b0d       ??0CMutex@@QAE@HPBDPAU_SECURITY_ATTRIBUTES@@@Z 00534b0d f   nafxcw:mtex.obj
 0001:00133b55       ??1CMutex@@UAE@XZ          00534b55 f   nafxcw:mtex.obj
 0001:00133b60       ?Unlock@CMutex@@UAEHXZ     00534b60 f   nafxcw:mtex.obj
 0001:00133b6a       ?Lock@CSingleLock@@QAEHK@Z 00534b6a f   nafxcw:mtex.obj
 0001:00133b84       ?Unlock@CSingleLock@@QAEHXZ 00534b84 f   nafxcw:mtex.obj
 0001:00133ba8       ?GetRuntimeClass@CMutex@@UBEPAUCRuntimeClass@@XZ 00534ba8 f   nafxcw:mtex.obj
 0001:00133bae       ?Unlock@CSyncObject@@UAEHJPAJ@Z 00534bae f i nafxcw:mtex.obj
 0001:00133bb4       ??_ECMutex@@UAEPAXI@Z      00534bb4 f i nafxcw:mtex.obj
 0001:00133bb4       ??_GCMutex@@UAEPAXI@Z      00534bb4 f i nafxcw:mtex.obj
 0001:00133bdb       ??0CSingleLock@@QAE@PAVCSyncObject@@H@Z 00534bdb f   nafxcw:mtex.obj
 0001:00133c0f       ?GetRuntimeClass@CUIntArray@@UBEPAUCRuntimeClass@@XZ 00534c0f f   nafxcw:array_u.obj
 0001:00133c15       ??0CUIntArray@@QAE@XZ      00534c15 f   nafxcw:array_u.obj
 0001:00133c2c       ??1CUIntArray@@UAE@XZ      00534c2c f   nafxcw:array_u.obj
 0001:00133c3c       ??_ECUIntArray@@UAEPAXI@Z  00534c3c f i nafxcw:array_u.obj
 0001:00133c3c       ??_GCUIntArray@@UAEPAXI@Z  00534c3c f i nafxcw:array_u.obj
 0001:00133c5d       ?GetAt@?$CArray@W4LoadArrayObjType@CArchive@@ABW412@@@QAEAAW4LoadArrayObjType@CArchive@@H@Z 00534c5d f i nafxcw:arcobj.obj
 0001:00133c7e       ?CheckCount@CArchive@@QAEXXZ 00534c7e f   nafxcw:arcobj.obj
 0001:00133c92       ??0?$CArray@W4LoadArrayObjType@CArchive@@ABW412@@@QAE@XZ 00534c92 f i nafxcw:arcobj.obj
 0001:00133ca9       ?SetSize@?$CArray@W4LoadArrayObjType@CArchive@@ABW412@@@QAEXHH@Z 00534ca9 f i nafxcw:arcobj.obj
 0001:00133de4       ?InsertAt@?$CArray@W4LoadArrayObjType@CArchive@@ABW412@@@QAEXHABW4LoadArrayObjType@CArchive@@H@Z 00534de4 f i nafxcw:arcobj.obj
 0001:00133e84       ??1?$CArray@W4LoadArrayObjType@CArchive@@ABW412@@@UAE@XZ 00534e84 f i nafxcw:arcobj.obj
 0001:00133e99       ??_G?$CArray@W4LoadArrayObjType@CArchive@@ABW412@@@UAEPAXI@Z 00534e99 f i nafxcw:arcobj.obj
 0001:00133e99       ??_E?$CArray@W4LoadArrayObjType@CArchive@@ABW412@@@UAEPAXI@Z 00534e99 f i nafxcw:arcobj.obj
 0001:00133eba       ??$SerializeElements@W4LoadArrayObjType@CArchive@@@@YGXAAVCArchive@@PAW4LoadArrayObjType@0@H@Z 00534eba f i nafxcw:arcobj.obj
 0001:00133f42       ?EnsureSchemaMapExists@CArchive@@QAEXPAPAV?$CArray@W4LoadArrayObjType@CArchive@@ABW412@@@@Z 00534f42 f   nafxcw:arcobj.obj
 0001:00134016       ?MapObject@CArchive@@QAEXPBVCObject@@@Z 00535016 f   nafxcw:arcobj.obj
 0001:00134155       ?WriteClass@CArchive@@QAEXPBUCRuntimeClass@@@Z 00535155 f   nafxcw:arcobj.obj
 0001:00134204       ?ReadClass@CArchive@@QAEPAUCRuntimeClass@@PBU2@PAIPAK@Z 00535204 f   nafxcw:arcobj.obj
 0001:001343f8       ?Serialize@?$CArray@W4LoadArrayObjType@CArchive@@ABW412@@@UAEXAAVCArchive@@@Z 005353f8 f i nafxcw:arcobj.obj
 0001:0013443a       ?WriteObject@CArchive@@QAEXPBVCObject@@@Z 0053543a f   nafxcw:arcobj.obj
 0001:001344d6       ?ReadObject@CArchive@@QAEPAVCObject@@PBUCRuntimeClass@@@Z 005354d6 f   nafxcw:arcobj.obj
 0001:00134630       ?InitHashTable@CMapPtrToPtr@@QAEXIH@Z 00535630 f   nafxcw:map_pp.obj
 0001:0013468e       ?RemoveAll@CMapPtrToPtr@@QAEXXZ 0053568e f   nafxcw:map_pp.obj
 0001:001346bb       ?FreeAssoc@CMapPtrToPtr@@IAEXPAUCAssoc@1@@Z 005356bb f   nafxcw:map_pp.obj
 0001:001346d9       ?GetAssocAt@CMapPtrToPtr@@IBEPAUCAssoc@1@PAXAAI1@Z 005356d9 f   nafxcw:map_pp.obj
 0001:00134714       ?GetValueAt@CMapPtrToPtr@@QBEPAXPAX@Z 00535714 f   nafxcw:map_pp.obj
 0001:00134759       ?Lookup@CMapPtrToPtr@@QBEHPAXAAPAX@Z 00535759 f   nafxcw:map_pp.obj
 0001:00134782       ?RemoveKey@CMapPtrToPtr@@QAEHPAX@Z 00535782 f   nafxcw:map_pp.obj
 0001:001347ca       ?GetNextAssoc@CMapPtrToPtr@@QBEXAAPAU__POSITION@@AAPAX1@Z 005357ca f   nafxcw:map_pp.obj
 0001:00134847       ?GetRuntimeClass@CMapPtrToPtr@@UBEPAUCRuntimeClass@@XZ 00535847 f   nafxcw:map_pp.obj
 0001:0013484d       ??0CMapPtrToPtr@@QAE@H@Z   0053584d f   nafxcw:map_pp.obj
 0001:00134880       ??1CMapPtrToPtr@@UAE@XZ    00535880 f   nafxcw:map_pp.obj
 0001:0013488b       ?NewAssoc@CMapPtrToPtr@@IAEPAUCAssoc@1@XZ 0053588b f   nafxcw:map_pp.obj
 0001:001348db       ??ACMapPtrToPtr@@QAEAAPAXPAX@Z 005358db f   nafxcw:map_pp.obj
 0001:00134932       ??_GCMapPtrToPtr@@UAEPAXI@Z 00535932 f i nafxcw:map_pp.obj
 0001:00134932       ??_ECMapPtrToPtr@@UAEPAXI@Z 00535932 f i nafxcw:map_pp.obj
 0001:00134959       ?AfxIsValidString@@YGHPBDH@Z 00535959 f   nafxcw:validadd.obj
 0001:0013496a       ?AfxIsValidAddress@@YGHPBXIH@Z 0053596a f   nafxcw:validadd.obj
 0001:0013497b       ??2CNoTrackObject@@SGPAXI@Z 0053597b f   nafxcw:afxtls.obj
 0001:00134998       ??3CNoTrackObject@@SGXPAX@Z 00535998 f   nafxcw:afxtls.obj
 0001:001349ae       ?GetThreadValue@CThreadSlotData@@QAEPAXH@Z 005359ae f i nafxcw:afxtls.obj
 0001:00134a00       ?GetDataNA@CThreadLocalObject@@QAEPAVCNoTrackObject@@XZ 00535a00 f   nafxcw:afxtls.obj
 0001:00134a1a       ?GetData@CProcessLocalObject@@QAEPAVCNoTrackObject@@P6GPAV2@XZ@Z 00535a1a f   nafxcw:afxtls.obj
 0001:00134a6a       ??1CProcessLocalObject@@QAE@XZ 00535a6a f   nafxcw:afxtls.obj
 0001:00134a93       ?GetNextPtr@CSimpleList@@QBEPAPAXPAX@Z 00535a93 f i nafxcw:afxtls.obj
 0001:00134aad       ?AddHead@CSimpleList@@QAEXPAX@Z 00535aad f   nafxcw:afxtls.obj
 0001:00134acb       ?Remove@CSimpleList@@QAEHPAX@Z 00535acb f   nafxcw:afxtls.obj
 0001:00134b3c       ?AllocSlot@CThreadSlotData@@QAEHXZ 00535b3c f   nafxcw:afxtls.obj
 0001:00134c54       ??0CThreadSlotData@@QAE@XZ 00535c54 f   nafxcw:afxtls.obj
 0001:00134c93       ?FreeSlot@CThreadSlotData@@QAEXH@Z 00535c93 f   nafxcw:afxtls.obj
 0001:00134cfb       ?SetValue@CThreadSlotData@@QAEXHPAX@Z 00535cfb f   nafxcw:afxtls.obj
 0001:00134e30       ?DeleteValues@CThreadSlotData@@QAEXPAUCThreadData@@PAUHINSTANCE__@@@Z 00535e30 f   nafxcw:afxtls.obj
 0001:00134ec7       ?DeleteValues@CThreadSlotData@@QAEXPAUHINSTANCE__@@H@Z 00535ec7 f   nafxcw:afxtls.obj
 0001:00134f23       ?GetData@CThreadLocalObject@@QAEPAVCNoTrackObject@@P6GPAV2@XZ@Z 00535f23 f   nafxcw:afxtls.obj
 0001:00134fad       ??1CThreadLocalObject@@QAE@XZ 00535fad f   nafxcw:afxtls.obj
 0001:00134fcd       ?AfxTermLocalData@@YGXPAUHINSTANCE__@@H@Z 00535fcd f   nafxcw:afxtls.obj
 0001:00134fe6       ??1CThreadSlotData@@QAE@XZ 00535fe6 f   nafxcw:afxtls.obj
 0001:0013503f       ??_GCThreadSlotData@@QAEPAXI@Z 0053603f f i nafxcw:afxtls.obj
 0001:00135060       ?AfxTlsRelease@@YGXXZ      00536060 f   nafxcw:afxtls.obj
 0001:0013508a       ?AfxCriticalInit@@YGHXZ    0053608a f   nafxcw:afxcrit.obj
 0001:001350ae       ?AfxCriticalTerm@@YGXXZ    005360ae f   nafxcw:afxcrit.obj
 0001:001350f3       ?AfxLockGlobals@@YGXH@Z    005360f3 f   nafxcw:afxcrit.obj
 0001:00135165       ?AfxUnlockGlobals@@YGXH@Z  00536165 f   nafxcw:afxcrit.obj
 0001:0013518a       ?GetRuntimeClass@CLongBinary@@UBEPAUCRuntimeClass@@XZ 0053618a f   nafxcw:dblong.obj
 0001:00135190       ??0CLongBinary@@QAE@XZ     00536190 f   nafxcw:dblong.obj
 0001:0013519d       ??1CLongBinary@@UAE@XZ     0053619d f   nafxcw:dblong.obj
 0001:001351bc       ??_ECLongBinary@@UAEPAXI@Z 005361bc f i nafxcw:dblong.obj
 0001:001351bc       ??_GCLongBinary@@UAEPAXI@Z 005361bc f i nafxcw:dblong.obj
 0001:001351dd       ?GetInterface@CCmdTarget@@QAEPAUIUnknown@@PBX@Z 005361dd f   nafxcw:oleunk.obj
 0001:00135290       ?QueryAggregates@CCmdTarget@@QAEPAUIUnknown@@PBX@Z 00536290 f   nafxcw:oleunk.obj
 0001:001352f2       ?ExternalAddRef@CCmdTarget@@QAEKXZ 005362f2 f   nafxcw:oleunk.obj
 0001:0013530d       ?InternalRelease@CCmdTarget@@QAEKXZ 0053630d f   nafxcw:oleunk.obj
 0001:00135363       ?ExternalRelease@CCmdTarget@@QAEKXZ 00536363 f   nafxcw:oleunk.obj
 0001:00135378       ?InternalQueryInterface@CCmdTarget@@QAEKPBXPAPAX@Z 00536378 f   nafxcw:oleunk.obj
 0001:001353bb       ?ExternalQueryInterface@CCmdTarget@@QAEKPBXPAPAX@Z 005363bb f   nafxcw:oleunk.obj
 0001:001353de       ?UpdateSysColors@AUX_DATA@@QAEXXZ 005363de f   nafxcw:auxdata.obj
 0001:00135424       ?UpdateSysMetrics@AUX_DATA@@QAEXXZ 00536424 f   nafxcw:auxdata.obj
 0001:00135480       ??0AUX_DATA@@QAE@XZ        00536480 f   nafxcw:auxdata.obj
 0001:001354c9       ??1AUX_DATA@@QAE@XZ        005364c9 f   nafxcw:auxdata.obj
 0001:0013558e       ?AfxFormatStrings@@YGXAAV?$CStringT@DV?$StrTraitMFC@DV?$ChTraitsCRT@D@ATL@@@@@ATL@@PBDPBQBDH@Z 0053658e f   nafxcw:apphelp.obj
 0001:001356d2       ?AfxFormatStrings@@YGXAAV?$CStringT@DV?$StrTraitMFC@DV?$ChTraitsCRT@D@ATL@@@@@ATL@@IPBQBDH@Z 005366d2 f   nafxcw:apphelp.obj
 0001:00135723       ?AfxFormatString1@@YGXAAV?$CStringT@DV?$StrTraitMFC@DV?$ChTraitsCRT@D@ATL@@@@@ATL@@IPBD@Z 00536723 f   nafxcw:apphelp.obj
 0001:0013573d       ?AfxLockTempMaps@@YGXXZ    0053673d f   nafxcw:winhand.obj
 0001:00135746       ??0CHandleMap@@QAE@PAUCRuntimeClass@@P6GXPAVCObject@@@Z2IH@Z 00536746 f   nafxcw:winhand.obj
 0001:001357cf       ?FromHandle@CHandleMap@@QAEPAVCObject@@PAX@Z 005367cf f   nafxcw:winhand.obj
 0001:00135882       ?DeleteTemp@CHandleMap@@QAEXXZ 00536882 f   nafxcw:winhand.obj
 0001:001358e7       ??1CHandleMap@@UAE@XZ      005368e7 f i nafxcw:winhand.obj
 0001:00135934       ??_GCHandleMap@@UAEPAXI@Z  00536934 f i nafxcw:winhand.obj
 0001:00135934       ??_ECHandleMap@@UAEPAXI@Z  00536934 f i nafxcw:winhand.obj
 0001:00135955       ?AfxUnlockTempMaps@@YGHH@Z 00536955 f   nafxcw:winhand.obj
 0001:00135a50       ?OsErrorToException@CFileException@@SGHJ@Z 00536a50 f   nafxcw:filex.obj
 0001:00135ce8       ?GetRuntimeClass@CFileException@@UBEPAUCRuntimeClass@@XZ 00536ce8 f   nafxcw:filex.obj
 0001:00135cee       ?GetErrorMessage@CFileException@@UBEHPADIPAI@Z 00536cee f   nafxcw:filex.obj
 0001:00135d9c       ?AfxThrowFileException@@YGXHJPBD@Z 00536d9c f   nafxcw:filex.obj
 0001:00135de2       ?ThrowOsError@CFileException@@SGXJPBD@Z 00536de2 f   nafxcw:filex.obj
 0001:00135e05       ?AfxGetFileName@@YGIPBDPADI@Z 00536e05 f   nafxcw:appinit.obj
 0001:00135e45       ?SetCurrentHandles@CWinApp@@QAEXXZ 00536e45 f   nafxcw:appinit.obj
 0001:00135fcb       ?AfxWinInit@@YGHPAUHINSTANCE__@@0PADH@Z 00536fcb f   nafxcw:appinit.obj
 0001:00136052       ??0?$CStringT@DV?$StrTraitMFC@DV?$ChTraitsCRT@D@ATL@@@@@ATL@@QAE@PBDPAUIAtlStringMgr@1@@Z 00537052 f i nafxcw:appterm.obj
 0001:00136091       ?Tokenize@?$CStringT@DV?$StrTraitMFC@DV?$ChTraitsCRT@D@ATL@@@@@ATL@@QBE?AV12@PBDAAH@Z 00537091 f i nafxcw:appterm.obj
 0001:00136146       ?AfxUnregisterWndClasses@@YGXXZ 00537146 f   nafxcw:appterm.obj
 0001:001361e5       ?AfxWinTerm@@YGXXZ         005371e5 f   nafxcw:appterm.obj
 0001:0013625b       ?GetAppRegistryKey@CWinApp@@QAEPAUHKEY__@@XZ 0053725b f   nafxcw:appui3.obj
 0001:001362ee       ?GetSectionKey@CWinApp@@QAEPAUHKEY__@@PBD@Z 005372ee f   nafxcw:appui3.obj
 0001:00136336       ?WriteProfileInt@CWinApp@@QAEHPBD0H@Z 00537336 f   nafxcw:appui3.obj
 0001:001363bf       ?AfxSetWindowText@@YGXPAUHWND__@@PBD@Z 005373bf f   nafxcw:winutil.obj
 0001:00136457       ?AfxDeleteObject@@YGXPAPAX@Z 00537457 f   nafxcw:winutil.obj
 0001:0013647e       ?AfxGlobalFree@@YGXPAX@Z   0053747e f   nafxcw:winutil.obj
 0001:001364b6       ?AfxCriticalNewHandler@@YAHI@Z 005374b6 f   nafxcw:winutil.obj
 0001:00136509       ?_AfxCompareClassName@@YGHPAUHWND__@@PBD@Z 00537509 f   nafxcw:winutil.obj
 0001:0013654f       ?_AfxChildWindowFromPoint@@YGPAUHWND__@@PAU1@UtagPOINT@@@Z 0053754f f   nafxcw:winutil.obj
 0001:001365c5       ?AfxOleCanExitApp@@YGHXZ   005375c5 f   nafxcw:olelock.obj
 0001:001365d5       ?AfxOleLockApp@@YGXXZ      005375d5 f   nafxcw:olelock.obj
 0001:001365e5       ?AfxOleSetUserCtrl@@YGXH@Z 005375e5 f   nafxcw:olelock.obj
 0001:001365f9       ?AfxOleGetUserCtrl@@YGHXZ  005375f9 f   nafxcw:olelock.obj
 0001:00136602       ?AfxOleOnReleaseAllObjects@@YGXXZ 00537602 f   nafxcw:olelock.obj
 0001:0013664e       ?AfxOleUnlockApp@@YGXXZ    0053764e f   nafxcw:olelock.obj
 0001:00136667       ?OnHelp@CWnd@@QAEXXZ       00537667 f   nafxcw:winfrmx.obj
 0001:00136715       ?OnHelp@CFrameWnd@@IAEXXZ  00537715 f   nafxcw:winfrmx.obj
 0001:00136747       ?HasFont@@YAHPBUDLGTEMPLATE@@@Z 00537747 f i nafxcw:dlgtempl.obj
 0001:00136766       ??1CDialogTemplate@@QAE@XZ 00537766 f   nafxcw:dlgtempl.obj
 0001:00136774       ?Detach@CDialogTemplate@@QAEPAXXZ 00537774 f   nafxcw:dlgtempl.obj
 0001:0013677a       ?_SkipString@@YAPA_WPA_W@Z 0053777a f i nafxcw:dlgtempl.obj
 0001:0013678e       ?GetFontSizeField@CDialogTemplate@@KAPAEPBUDLGTEMPLATE@@@Z 0053778e f   nafxcw:dlgtempl.obj
 0001:001367df       ?GetTemplateSize@CDialogTemplate@@KAIPBUDLGTEMPLATE@@@Z 005377df f   nafxcw:dlgtempl.obj
 0001:001368b1       ?SetTemplate@CDialogTemplate@@IAEHPBUDLGTEMPLATE@@I@Z 005378b1 f   nafxcw:dlgtempl.obj
 0001:00136913       ?SetFont@CDialogTemplate@@QAEHPBDG@Z 00537913 f   nafxcw:dlgtempl.obj
 0001:00136a67       ?SetSystemFont@CDialogTemplate@@QAEHG@Z 00537a67 f   nafxcw:dlgtempl.obj
 0001:00136b0b       ??0CDialogTemplate@@QAE@PBUDLGTEMPLATE@@@Z 00537b0b f   nafxcw:dlgtempl.obj
 0001:00136b47       ?GetFont@CDialogTemplate@@SAHPBUDLGTEMPLATE@@AAV?$CStringT@DV?$StrTraitMFC@DV?$ChTraitsCRT@D@ATL@@@@@ATL@@AAG@Z 00537b47 f   nafxcw:dlgtempl.obj
 0001:00136bae       ?_AfxInitDBCS@@YGHXZ       00537bae f   nafxcw:afxdbcs.obj
 0001:00136be7       ?Lock@CSyncObject@@UAEHK@Z 00537be7 f   nafxcw:mtcore.obj
 0001:00136c0e       ?GetRuntimeClass@CSyncObject@@UBEPAUCRuntimeClass@@XZ 00537c0e f   nafxcw:mtcore.obj
 0001:00136c14       ??0CSyncObject@@QAE@PBD@Z  00537c14 f   nafxcw:mtcore.obj
 0001:00136c23       ??1CSyncObject@@UAE@XZ     00537c23 f   nafxcw:mtcore.obj
 0001:00136c42       ??_GCSyncObject@@UAEPAXI@Z 00537c42 f i nafxcw:mtcore.obj
 0001:00136c42       ??_ECSyncObject@@UAEPAXI@Z 00537c42 f i nafxcw:mtcore.obj
 0001:00136c63       ??0CFixedAllocNoSync@@QAE@II@Z 00537c63 f   nafxcw:fixalloc.obj
 0001:00136c91       ?FreeAll@CFixedAllocNoSync@@QAEXXZ 00537c91 f   nafxcw:fixalloc.obj
 0001:00136ca8       ??1CFixedAllocNoSync@@QAE@XZ 00537ca8 f   nafxcw:fixalloc.obj
 0001:00136cad       ?Alloc@CFixedAllocNoSync@@QAEPAXXZ 00537cad f   nafxcw:fixalloc.obj
 0001:00136cef       ?GetRuntimeClass@CObArray@@UBEPAUCRuntimeClass@@XZ 00537cef f   nafxcw:array_o.obj
 0001:00136cf5       ??0CObArray@@QAE@XZ        00537cf5 f   nafxcw:array_o.obj
 0001:00136d0c       ??1CObArray@@UAE@XZ        00537d0c f   nafxcw:array_o.obj
 0001:00136d1c       ?SetSize@CPtrArray@@QAEXHH@Z 00537d1c f   nafxcw:array_p.obj
 0001:00136d1c       ?SetSize@CUIntArray@@QAEXHH@Z 00537d1c f   nafxcw:array_u.obj
 0001:00136d1c       ?SetSize@CDWordArray@@QAEXHH@Z 00537d1c f   nafxcw:array_d.obj
 0001:00136d1c       ?SetSize@CObArray@@QAEXHH@Z 00537d1c f   nafxcw:array_o.obj
 0001:00136e42       ?Serialize@CObArray@@UAEXAAVCArchive@@@Z 00537e42 f   nafxcw:array_o.obj
 0001:00136ead       ?CreateObject@CObArray@@SGPAVCObject@@XZ 00537ead f   nafxcw:array_o.obj
 0001:00136ec3       ??_ECObArray@@UAEPAXI@Z    00537ec3 f i nafxcw:array_o.obj
 0001:00136ec3       ??_GCObArray@@UAEPAXI@Z    00537ec3 f i nafxcw:array_o.obj
 0001:00136ee4       ?_JumpToContinuation@@YGXPAXPAUEHRegistrationNode@@@Z 00537ee4 f   libcmt:_trnsctrl_.obj
 0001:00136f16       ?_CallMemberFunction1@@YGXPAX00@Z 00537f16 f   libcmt:_trnsctrl_.obj
 0001:00136f16       ?_CallMemberFunction0@@YGXPAX0@Z 00537f16 f   libcmt:_trnsctrl_.obj
 0001:00136f16       ?_CallMemberFunction2@@YGXPAX00H@Z 00537f16 f   libcmt:_trnsctrl_.obj
 0001:00136f1d       ?_UnwindNestedFrames@@YGXPAUEHRegistrationNode@@PAUEHExceptionRecord@@@Z 00537f1d f   libcmt:_trnsctrl_.obj
 0001:00136f71       ___CxxFrameHandler3        00537f71 f   libcmt:_trnsctrl_.obj
 0001:00136fda       ?_CallSETranslator@@YAHPAUEHExceptionRecord@@PAUEHRegistrationNode@@PAX2PBU_s_FuncInfo@@H1@Z 00537fda f   libcmt:_trnsctrl_.obj
 0001:00137150       ?_GetRangeOfTrysToCheck@@YAPBU_s_TryBlockMapEntry@@PBU_s_FuncInfo@@HHPAI1@Z 00538150 f   libcmt:_trnsctrl_.obj
 0001:001371c5       __CreateFrameInfo          005381c5 f   libcmt:_trnsctrl_.obj
 0001:001371f1       __IsExceptionObjectToBeDestroyed 005381f1 f   libcmt:_trnsctrl_.obj
 0001:00137218       __FindAndUnlinkFrame       00538218 f   libcmt:_trnsctrl_.obj
 0001:0013726a       ?_CallCatchBlock2@@YAPAXPAUEHRegistrationNode@@PBU_s_FuncInfo@@PAXHK@Z 0053826a f   libcmt:_trnsctrl_.obj
 0001:001372ca       @__security_check_cookie@4 005382ca f   libcmt:secchk.obj
 0001:001372d9       ??1type_info@@UAE@XZ       005382d9 f   libcmt:typinfo.obj
 0001:001372e9       ??_Gtype_info@@UAEPAXI@Z   005382e9 f i libcmt:typinfo.obj
 0001:001372e9       ??_Etype_info@@UAEPAXI@Z   005382e9 f i libcmt:typinfo.obj
 0001:0013730a       ??8type_info@@QBE_NABV0@@Z 0053830a f   libcmt:typinfo.obj
 0001:0013732a       _memcpy_s                  0053832a f   libcmt:memcpy_s.obj
 0001:001373a7       _memmove_s                 005383a7 f   libcmt:memmove_s.obj
 0001:00137410       _strlen                    00538410 f   libcmt:strlen.obj
 0001:001374a0       _memset                    005384a0 f   libcmt:memset.obj
 0001:00137520       _memcpy                    00538520 f   libcmt:memcpy.obj
 0001:00137890       __alloca_probe             00538890     libcmt:chkstk.obj
 0001:00137890       __chkstk                   00538890 f   libcmt:chkstk.obj
 0001:001378bb       ??_L@YGXPAXIHP6EX0@Z1@Z    005388bb f   libcmt:ehvecctr.obj
 0001:00137920       ?__ArrayUnwind@@YGXPAXIHP6EX0@Z@Z 00538920 f   libcmt:ehvecdtr.obj
 0001:0013797e       ??_M@YGXPAXIHP6EX0@Z@Z     0053897e f   libcmt:ehvecdtr.obj
 0001:001379f0       __alldiv                   005389f0 f   libcmt:lldiv.obj
 0001:00137aa0       __allmul                   00538aa0 f   libcmt:llmul.obj
 0001:00137ad4       __snprintf                 00538ad4 f   libcmt:snprintf.obj
 0001:00137b83       __cfltcvt_init             00538b83 f   libcmt:_fpinit_.obj
 0001:00137be3       __fpmath                   00538be3 f   libcmt:_fpinit_.obj
 0001:00137c10       __ftol2_sse                00538c10 f   libcmt:ftol2.obj
 0001:00137c19       __ftol2_pentium4           00538c19 f   libcmt:ftol2.obj
 0001:00137c2c       __ftol2_sse_excpt          00538c2c f   libcmt:ftol2.obj
 0001:00137c46       __ftol2                    00538c46 f   libcmt:ftol2.obj
 0001:00137f70       __mktime64                 00538f70 f   libcmt:mktime64.obj
 0001:00137f82       __localtime64_s            00538f82 f   libcmt:loctim64.obj
 0001:0013823a       ??0_LocaleUpdate@@QAE@PAUlocaleinfo_struct@@@Z 0053923a f i libcmt:mbsicmp.obj
 0001:001382c1       __mbsicmp_l                005392c1 f   libcmt:mbsicmp.obj
 0001:001384e7       __mbsicmp                  005394e7 f   libcmt:mbsicmp.obj
 0001:001384fe       __CxxThrowException@8      005394fe f   libcmt:throw.obj
 0001:0013854a       __initp_misc_invarg        0053954a f   libcmt:invarg.obj
 0001:00138559       __invoke_watson            00539559 f   libcmt:invarg.obj
 0001:00138681       __invalid_parameter        00539681 f   libcmt:invarg.obj
 0001:001386a7       __invalid_parameter_noinfo 005396a7 f   libcmt:invarg.obj
 0001:001386b7       ??0exception@std@@QAE@XZ   005396b7 f   libcmt:stdexcpt.obj
 0001:001386c8       ??0exception@std@@QAE@ABQBD@Z 005396c8 f   libcmt:stdexcpt.obj
 0001:0013871b       ??0exception@std@@QAE@ABV01@@Z 0053971b f   libcmt:stdexcpt.obj
 0001:00138778       ??1exception@std@@UAE@XZ   00539778 f   libcmt:stdexcpt.obj
 0001:0013878e       ?what@exception@std@@UBEPBDXZ 0053978e f   libcmt:stdexcpt.obj
 0001:0013879b       ??_Eexception@std@@UAEPAXI@Z 0053979b f i libcmt:stdexcpt.obj
 0001:0013879b       ??_Gexception@std@@UAEPAXI@Z 0053979b f i libcmt:stdexcpt.obj
 0001:001387bc       __vsnprintf_helper         005397bc f   libcmt:vsnprnc.obj
 0001:00138888       __vsprintf_s_l             00539888 f   libcmt:vsnprnc.obj
 0001:00138910       _vsprintf_s                00539910 f   libcmt:vsnprnc.obj
 0001:0013892d       __vsnprintf_s_l            0053992d f   libcmt:vsnprnc.obj
 0001:00138a34       __vsnprintf_s              00539a34 f   libcmt:vsnprnc.obj
 0001:00138a54       _strnlen                   00539a54 f   libcmt:strlen_s.obj
 0001:00138a71       __vscprintf_helper         00539a71 f   libcmt:vsprintf.obj
 0001:00138ac8       __vscprintf                00539ac8 f   libcmt:vsprintf.obj
 0001:00138b9e       ___onexitinit              00539b9e f   libcmt:onexit.obj
 0001:00138bcf       __onexit                   00539bcf f   libcmt:onexit.obj
 0001:00138c0b       _atexit                    00539c0b f   libcmt:onexit.obj
 0001:00138c30       _strcpy                    00539c30 f   libcmt:strcat.obj
 0001:00138c40       _strcat                    00539c40 f   libcmt:strcat.obj
 0001:00138f1a       __splitpath                00539f1a f   libcmt:splitpat.obj
 0001:00138f66       _atol                      00539f66 f   libcmt:atox.obj
 0001:00138f7c       _atoi                      00539f7c f   libcmt:atox.obj
 0001:00138f87       __atoi64                   00539f87 f   libcmt:atox.obj
 0001:00138fa0       _strcmp                    00539fa0 f   libcmt:strcmp.obj
 0001:00139028       _srand                     0053a028 f   libcmt:rand.obj
 0001:0013903a       _rand                      0053a03a f   libcmt:rand.obj
 0001:00139060       _strncpy                   0053a060 f   libcmt:strncpy.obj
 0001:00139184       ___ascii_stricmp           0053a184 f   libcmt:stricmp.obj
 0001:001391bd       __stricmp_l                0053a1bd f   libcmt:stricmp.obj
 0001:00139292       __stricmp                  0053a292 f   libcmt:stricmp.obj
 0001:001392f0       __except_handler4          0053a2f0 f   libcmt:chandler4.obj
 0001:0013947c       __endthreadex              0053a47c f   libcmt:threadex.obj
 0001:0013957d       __beginthreadex            0053a57d f   libcmt:threadex.obj
 0001:0013962d       __mbscmp_l                 0053a62d f   libcmt:mbscmp.obj
 0001:00139754       __mbscmp                   0053a754 f   libcmt:mbscmp.obj
 0001:0013976b       _sprintf                   0053a76b f   libcmt:sprintf.obj
 0001:001397e8       _sprintf_s                 0053a7e8 f   libcmt:sprintf.obj
 0001:00139806       __snprintf_s               0053a806 f   libcmt:sprintf.obj
 0001:00139827       _abs                       0053a827 f   libcmt:abs.obj
 0001:00139827       _labs                      0053a827 f   libcmt:labs.obj
 0001:00139837       _calloc                    0053a837 f   libcmt:calloc.obj
 0001:00139877       _free                      0053a877 f   libcmt:free.obj
 0001:00139905       __time64                   0053a905 f   libcmt:time64.obj
 0001:00139956       __fclose_nolock            0053a956 f   libcmt:fclose.obj
 0001:001399cd       _fclose                    0053a9cd f   libcmt:fclose.obj
 0001:00139a49       _vfscanf                   0053aa49 f   libcmt:fscanf.obj
 0001:00139b53       _fscanf                    0053ab53 f   libcmt:fscanf.obj
 0001:00139b73       __fsopen                   0053ab73 f   libcmt:fopen.obj
 0001:00139c37       _fopen                     0053ac37 f   libcmt:fopen.obj
 0001:00139c4e       __crt_waiting_on_module_handle 0053ac4e f   libcmt:crt0dat.obj
 0001:00139c7e       __amsg_exit                0053ac7e f   libcmt:crt0dat.obj
 0001:00139ca7       ___crtCorExitProcess       0053aca7 f   libcmt:crt0dat.obj
 0001:00139cd2       ___crtExitProcess          0053acd2 f   libcmt:crt0dat.obj
 0001:00139cea       __lockexit                 0053acea f   libcmt:crt0dat.obj
 0001:00139cf3       __unlockexit               0053acf3 f   libcmt:crt0dat.obj
 0001:00139d19       __initterm_e               0053ad19 f   libcmt:crt0dat.obj
 0001:00139d3d       __cinit                    0053ad3d f   libcmt:crt0dat.obj
 0001:00139eee       _exit                      0053aeee f   libcmt:crt0dat.obj
 0001:00139f04       __exit                     0053af04 f   libcmt:crt0dat.obj
 0001:00139f1a       __cexit                    0053af1a f   libcmt:crt0dat.obj
 0001:00139f29       __c_exit                   0053af29 f   libcmt:crt0dat.obj
 0001:00139f38       __init_pointers            0053af38 f   libcmt:crt0dat.obj
 0001:00139f86       _strcpy_s                  0053af86 f   libcmt:strcpy_s.obj
 0001:00139ff0       _ceil                      0053aff0 f   libcmt:_ceil_pentium4_.obj
 0001:0013a030       __ceil_pentium4            0053b030 f   libcmt:_ceil_pentium4_.obj
 0001:0013a110       _floor                     0053b110 f   libcmt:_floor_pentium4_.obj
 0001:0013a150       __floor_pentium4           0053b150 f   libcmt:_floor_pentium4_.obj
 0001:0013a231       _fprintf                   0053b231 f   libcmt:fprintf.obj
 0001:0013a34d       _fgets                     0053b34d f   libcmt:fgets.obj
 0001:0013a495       _feof                      0053b495 f   libcmt:feoferr.obj
 0001:0013a4c9       _ferror                    0053b4c9 f   libcmt:feoferr.obj
 0001:0013a541       __itoa                     0053b541 f   libcmt:xtoa.obj
 0001:0013a56b       __mbsstr_l                 0053b56b f   libcmt:mbsstr.obj
 0001:0013a6ac       __mbsstr                   0053b6ac f   libcmt:mbsstr.obj
 0001:0013a6c3       __mbschr_l                 0053b6c3 f   libcmt:mbschr.obj
 0001:0013a77f       __mbschr                   0053b77f f   libcmt:mbschr.obj
 0001:0013a7a0       __allshl                   0053b7a0 f   libcmt:llshl.obj
 0001:0013a7bf       __mbsrchr_l                0053b7bf f   libcmt:mbsrchr.obj
 0001:0013a87b       __mbsrchr                  0053b87b f   libcmt:mbsrchr.obj
 0001:0013a892       __mbslwr_s_l               0053b892 f   libcmt:mbslwr.obj
 0001:0013a997       __mbslwr_s                 0053b997 f   libcmt:mbslwr.obj
 0001:0013ab55       _WinMainCRTStartup         0053bb55 f   libcmt:wincrt0.obj
 0001:0013ab5f       _V6_HeapAlloc              0053bb5f f   libcmt:malloc.obj
 0001:0013abae       _malloc                    0053bbae f   libcmt:malloc.obj
 0001:0013ac78       __mbsnbcpy_s               0053bc78 f   libcmt:mbsnbcpy_s.obj
 0001:0013ac95       __mbsnbicmp_l              0053bc95 f   libcmt:mbsnbicm.obj
 0001:0013aec0       __mbsnbicmp                0053bec0 f   libcmt:mbsnbicm.obj
 0001:0013aeda       __mbsinc                   0053beda f   libcmt:mbsinc.obj
 0001:0013af20       __mbsupr_s_l               0053bf20 f   libcmt:mbsupr.obj
 0001:0013b025       __mbsupr_s                 0053c025 f   libcmt:mbsupr.obj
 0001:0013b03c       __EH_prolog3               0053c03c f   libcmt:ehprolg3.obj
 0001:0013b06f       __EH_prolog3_catch         0053c06f f   libcmt:ehprolg3.obj
 0001:0013b0a5       __EH_prolog3_GS            0053c0a5 f   libcmt:ehprolg3.obj
 0001:0013b0db       __EH_prolog3_catch_GS      0053c0db f   libcmt:ehprolg3.obj
 0001:0013b114       __EH_epilog3               0053c114 f   libcmt:ehprolg3.obj
 0001:0013b128       __EH_epilog3_GS            0053c128 f   libcmt:ehprolg3.obj
 0001:0013b137       __EH_epilog3_catch_GS      0053c137 f   libcmt:ehprolg3.obj
 0001:0013b146       _wcsnlen                   0053c146 f   libcmt:wcslen_s.obj
 0001:0013b165       _wcscmp                    0053c165 f   libcmt:wcscmp.obj
 0001:0013b19c       _memcmp                    0053c19c f   libcmt:memcmp.obj
 0001:0013c81c       _wcslen                    0053d81c f   libcmt:wcslen.obj
 0001:0013c838       __SEH_prolog4_GS           0053d838 f   libcmt:sehprolg4gs.obj
 0001:0013c880       __SEH_epilog4_GS           0053d880 f   libcmt:sehprolg4gs.obj
 0001:0013c890       __alloca_probe_16          0053d890 f   libcmt:alloca16.obj
 0001:0013c8a6       __alloca_probe_8           0053d8a6     libcmt:alloca16.obj
 0001:0013c8bc       __get_errno_from_oserr     0053d8bc f   libcmt:dosmap.obj
 0001:0013c8fe       __errno                    0053d8fe f   libcmt:dosmap.obj
 0001:0013c911       ___doserrno                0053d911 f   libcmt:dosmap.obj
 0001:0013c924       __dosmaperr                0053d924 f   libcmt:dosmap.obj
 0001:0013c947       __purecall                 0053d947 f   libcmt:purevirt.obj
 0001:0013c971       _realloc                   0053d971 f   libcmt:realloc.obj
 0001:0013cb8c       __SEH_prolog4              0053db8c f   libcmt:sehprolg4.obj
 0001:0013cbd1       __SEH_epilog4              0053dbd1 f   libcmt:sehprolg4.obj
 0001:0013cbe5       __set_osfhnd               0053dbe5 f   libcmt:osfinfo.obj
 0001:0013cc66       __free_osfhnd              0053dc66 f   libcmt:osfinfo.obj
 0001:0013ccec       __get_osfhandle            0053dcec f   libcmt:osfinfo.obj
 0001:0013cd63       ___lock_fhandle            0053dd63 f   libcmt:osfinfo.obj
 0001:0013ce03       __unlock_fhandle           0053de03 f   libcmt:osfinfo.obj
 0001:0013ce2a       __alloc_osfhnd             0053de2a f   libcmt:osfinfo.obj
 0001:0013cfc4       __open_osfhandle           0053dfc4 f   libcmt:osfinfo.obj
 0001:0013d0da       __fileno                   0053e0da f   libcmt:fileno.obj
 0001:0013d10c       __fdopen                   0053e10c f   libcmt:fdopen.obj
 0001:0013d292       _clearerr_s                0053e292 f   libcmt:clearerr.obj
 0001:0013d33f       __fread_nolock_s           0053e33f f   libcmt:fread.obj
 0001:0013d549       _fread_s                   0053e549 f   libcmt:fread.obj
 0001:0013d5df       _fread                     0053e5df f   libcmt:fread.obj
 0001:0013d5fc       __fwrite_nolock            0053e5fc f   libcmt:fwrite.obj
 0001:0013d75e       _fwrite                    0053e75e f   libcmt:fwrite.obj
 0001:0013d7e0       _fputs                     0053e7e0 f   libcmt:fputs.obj
 0001:0013d8ef       __ftell_nolock             0053e8ef f   libcmt:ftell.obj
 0001:0013da8c       _ftell                     0053ea8c f   libcmt:ftell.obj
 0001:0013dafa       __fseek_nolock             0053eafa f   libcmt:fseek.obj
 0001:0013db84       _fseek                     0053eb84 f   libcmt:fseek.obj
 0001:0013dc09       __flush                    0053ec09 f   libcmt:fflush.obj
 0001:0013dc71       __fflush_nolock            0053ec71 f   libcmt:fflush.obj
 0001:0013dd93       _fflush                    0053ed93 f   libcmt:fflush.obj
 0001:0013dde6       __flushall                 0053ede6 f   libcmt:fflush.obj
 0001:0013ddef       _strcat_s                  0053edef f   libcmt:strcat_s.obj
 0001:0013de63       __strdup                   0053ee63 f   libcmt:strdup.obj
 0001:0013deb8       _strncpy_s                 0053eeb8 f   libcmt:strncpy_s.obj
 0001:0013dfc0       __ismbblead_l              0053efc0 f   libcmt:ismbbyte.obj
 0001:0013dfd9       __ismbblead                0053efd9 f   libcmt:ismbbyte.obj
 0001:0013dff1       __msize                    0053eff1 f   libcmt:msize.obj
 0001:0013e094       __mbsspn_l                 0053f094 f   libcmt:mbsspn.obj
 0001:0013e15b       __mbsspn                   0053f15b f   libcmt:mbsspn.obj
 0001:0013e172       __mbscspn_l                0053f172 f   libcmt:mbscspn.obj
 0001:0013e239       __mbscspn                  0053f239 f   libcmt:mbscspn.obj
 0001:0013e2cf       __expand                   0053f2cf f   libcmt:expand.obj
 0001:0013e40f       ??0bad_exception@std@@QAE@PBD@Z 0053f40f f i libcmt:frame.obj
 0001:0013e42d       ??1bad_exception@std@@UAE@XZ 0053f42d f i libcmt:frame.obj
 0001:0013e438       ??_Gbad_exception@std@@UAEPAXI@Z 0053f438 f i libcmt:frame.obj
 0001:0013e438       ??_Ebad_exception@std@@UAEPAXI@Z 0053f438 f i libcmt:frame.obj
 0001:0013e45f       ___TypeMatch               0053f45f f   libcmt:frame.obj
 0001:0013e4be       ___FrameUnwindFilter       0053f4be f   libcmt:frame.obj
 0001:0013e507       ___FrameUnwindToState      0053f507 f   libcmt:frame.obj
 0001:0013e62d       ___DestructExceptionObject 0053f62d f   libcmt:frame.obj
 0001:0013e682       ___AdjustPointer           0053f682 f   libcmt:frame.obj
 0001:0013e90b       ___BuildCatchObjectHelper  0053f90b f   libcmt:frame.obj
 0001:0013ea8a       ___BuildCatchObject        0053fa8a f   libcmt:frame.obj
 0001:0013efc5       ??0bad_exception@std@@QAE@ABV01@@Z 0053ffc5 f i libcmt:frame.obj
 0001:0013efe2       ___InternalCxxFrameHandler 0053ffe2 f   libcmt:frame.obj
 0001:0013f0c8       __encode_pointer           005400c8 f   libcmt:tidtable.obj
 0001:0013f13a       __encoded_null             0054013a f   libcmt:tidtable.obj
 0001:0013f143       __decode_pointer           00540143 f   libcmt:tidtable.obj
 0001:0013f1b5       ___crtTlsAlloc@4           005401b5 f   libcmt:tidtable.obj
 0001:0013f1be       ___fls_getvalue@4          005401be f   libcmt:tidtable.obj
 0001:0013f1d8       ___get_flsindex            005401d8 f   libcmt:tidtable.obj
 0001:0013f1de       ___set_flsgetvalue         005401de f   libcmt:tidtable.obj
 0001:0013f212       ___fls_setvalue@8          00540212 f   libcmt:tidtable.obj
 0001:0013f22f       __mtterm                   0054022f f   libcmt:tidtable.obj
 0001:0013f26c       __initptd                  0054026c f   libcmt:tidtable.obj
 0001:0013f353       __getptd_noexit            00540353 f   libcmt:tidtable.obj
 0001:0013f3cc       __getptd                   005403cc f   libcmt:tidtable.obj
 0001:0013f3e6       __freefls@4                005403e6 f   libcmt:tidtable.obj
 0001:0013f515       __freeptd                  00540515 f   libcmt:tidtable.obj
 0001:0013f583       __mtinit                   00540583 f   libcmt:tidtable.obj
 0001:0013f710       ?terminate@@YAXXZ          00540710 f   libcmt:hooks.obj
 0001:0013f749       ?unexpected@@YAXXZ         00540749 f   libcmt:hooks.obj
 0001:0013f75c       ?_inconsistency@@YAXXZ     0054075c f   libcmt:hooks.obj
 0001:0013f794       __initp_eh_hooks           00540794 f   libcmt:hooks.obj
 0001:0013f7b0       __CallSettingFrame@12      005407b0 f   libcmt:lowhelpr.obj
 0001:0013f7d7       __NLG_Return               005407d7     libcmt:lowhelpr.obj
 0001:0013f7fc       ___report_gsfailure        005407fc f   libcmt:gs_report.obj
 0001:0013f902       ?_Type_info_dtor@type_info@@CAXPAV1@@Z 00540902 f   libcmt:typname.obj
 0001:0013f980       _memmove                   00540980 f   libcmt:memmove.obj
 0001:0013fd3c       __VEC_memzero              00540d3c f   libcmt:p4_memset.obj
 0001:0013fe1b       __get_sse2_info            00540e1b f   libcmt:cpu_disp.obj
 0001:0013fe7d       ___sse2_available_init     00540e7d f   libcmt:cpu_disp.obj
 0001:0013ff11       __VEC_memcpy               00540f11 f   libcmt:p4_memcpy.obj
 0001:0013fff4       __flsbuf                   00540ff4 f   libcmt:_flsbuf.obj
 0001:001401a5       __output_l                 005411a5 f   libcmt:output.obj
 0001:00140d3d       __forcdecpt_l              00541d3d f   libcmt:cvt.obj
 0001:00140db0       __cropzeros_l              00541db0 f   libcmt:cvt.obj
 0001:00140e32       __positive                 00541e32 f   libcmt:cvt.obj
 0001:00140e4e       __fassign_l                00541e4e f   libcmt:cvt.obj
 0001:00140e90       __fassign                  00541e90 f   libcmt:cvt.obj
 0001:00140ec9       __forcdecpt                00541ec9 f   libcmt:cvt.obj
 0001:00140edc       __cropzeros                00541edc f   libcmt:cvt.obj
 0001:0014105e       __cftoe_l                  0054205e f   libcmt:cvt.obj
 0001:0014112e       __cftoe                    0054212e f   libcmt:cvt.obj
 0001:0014114e       __cftoa_l                  0054214e f   libcmt:cvt.obj
 0001:001415b8       __cftof_l                  005425b8 f   libcmt:cvt.obj
 0001:00141673       __cftog_l                  00542673 f   libcmt:cvt.obj
 0001:0014176d       __cfltcvt_l                0054276d f   libcmt:cvt.obj
 0001:001417f5       __cfltcvt                  005427f5 f   libcmt:cvt.obj
 0001:00141818       __initp_misc_cfltcvt_tab   00542818 f   libcmt:cmiscdat.obj
 0001:00141839       __setdefaultprecision      00542839 f   libcmt:fp8.obj
 0001:00141864       __ms_p5_test_fdiv          00542864 f   libcmt:_testfdiv_.obj
 0001:001418a2       __ms_p5_mp_test_fdiv       005428a2 f   libcmt:_testfdiv_.obj
 0001:001418cb       __gmtime64_s               005428cb f   libcmt:gmtime64.obj
 0001:00141b0e       __get_daylight             00542b0e f   libcmt:timeset.obj
 0001:00141b47       __get_dstbias              00542b47 f   libcmt:timeset.obj
 0001:00141b80       __get_timezone             00542b80 f   libcmt:timeset.obj
 0001:00141bb9       ___daylight                00542bb9 f   libcmt:timeset.obj
 0001:00141bbf       ___dstbias                 00542bbf f   libcmt:timeset.obj
 0001:00141bc5       ___timezone                00542bc5 f   libcmt:timeset.obj
 0001:00141bcb       ___tzname                  00542bcb f   libcmt:timeset.obj
 0001:00141bd1       __set_daylight             00542bd1 f i libcmt:tzset.obj
 0001:00141be2       __set_dstbias              00542be2 f i libcmt:tzset.obj
 0001:00141bf3       __set_timezone             00542bf3 f i libcmt:tzset.obj
 0001:00142319       ___tzset                   00543319 f   libcmt:tzset.obj
 0001:00142368       __isindst                  00543368 f   libcmt:tzset.obj
 0001:001423b0       __allrem                   005433b0 f   libcmt:llrem.obj
 0001:00142688       ___updatetmbcinfo          00543688 f   libcmt:mbctype.obj
 0001:001427a8       __setmbcp_nolock           005437a8 f   libcmt:mbctype.obj
 0001:0014298d       __setmbcp                  0054398d f   libcmt:mbctype.obj
 0001:00142b27       ___initmbctable            00543b27 f   libcmt:mbctype.obj
 0001:00142b45       ___freetlocinfo            00543b45 f   libcmt:setlocal.obj
 0001:00142c8e       ___addlocaleref            00543c8e f   libcmt:setlocal.obj
 0001:00142d1d       ___removelocaleref         00543d1d f   libcmt:setlocal.obj
 0001:00142df4       ___updatetlocinfo          00543df4 f   libcmt:setlocal.obj
 0001:00142e6a       __freea                    00543e6a f i libcmt:a_map.obj
 0001:0014322f       ___crtLCMapStringA         0054422f f   libcmt:a_map.obj
 0001:00143274       __crt_debugger_hook        00544274 f   libcmt:dbghook.obj
 0001:001432d5       __output_s_l               005442d5 f   libcmt:outputs.obj
 0001:00143ea5       __malloc_crt               00544ea5 f   libcmt:crtheap.obj
 0001:00143eea       __calloc_crt               00544eea f   libcmt:crtheap.obj
 0001:00143f36       __realloc_crt              00544f36 f   libcmt:crtheap.obj
 0001:00143f84       __recalloc_crt             00544f84 f   libcmt:crtheap.obj
 0001:00144205       _strtol                    00545205 f   libcmt:strtol.obj
 0001:001444c7       __strtoi64                 005454c7 f   libcmt:strtoq.obj
 0001:001444f2       __tolower_l                005454f2 f   libcmt:tolower.obj
 0001:00144607       _tolower                   00545607 f   libcmt:tolower.obj
 0001:00144634       __local_unwind4            00545634 f   libcmt:exsup4.obj
 0001:0014470a       __seh_longjmp_unwind4@4    0054570a f   libcmt:exsup4.obj
 0001:00144726       @_EH4_CallFilterFunc@8     00545726 f   libcmt:exsup4.obj
 0001:0014473d       @_EH4_TransferToHandler@8  0054573d f   libcmt:exsup4.obj
 0001:00144756       @_EH4_GlobalUnwind@4       00545756 f   libcmt:exsup4.obj
 0001:00144770       @_EH4_LocalUnwind@16       00545770 f   libcmt:exsup4.obj
 0001:00144790       __ValidateImageBase        00545790 f   libcmt:pesect.obj
 0001:001447d0       __FindPESection            005457d0 f   libcmt:pesect.obj
 0001:00144820       __IsNonwritableInCurrentImage 00545820 f   libcmt:pesect.obj
 0001:001448dd       __XcptFilter               005458dd f   libcmt:winxfltr.obj
 0001:00144a3d       __calloc_impl              00545a3d f   libcmt:calloc_impl.obj
 0001:00144b5b       __heap_init                00545b5b f   libcmt:heapinit.obj
 0001:00144b8b       __mtinitlocks              00545b8b f   libcmt:mlock.obj
 0001:00144bd6       __mtdeletelocks            00545bd6 f   libcmt:mlock.obj
 0001:00144c2d       __unlock                   00545c2d f   libcmt:mlock.obj
 0001:00144c44       __mtinitlocknum            00545c44 f   libcmt:mlock.obj
 0001:00144d07       __lock                     00545d07 f   libcmt:mlock.obj
 0001:00144d3a       ___sbh_find_block          00545d3a f   libcmt:sbheap.obj
 0001:00144d6a       ___sbh_free_block          00545d6a f   libcmt:sbheap.obj
 0001:00145080       ___sbh_alloc_new_region    00546080 f   libcmt:sbheap.obj
 0001:00145130       ___sbh_alloc_new_group     00546130 f   libcmt:sbheap.obj
 0001:00145238       ___sbh_resize_block        00546238 f   libcmt:sbheap.obj
 0001:00145519       ___sbh_alloc_block         00546519 f   libcmt:sbheap.obj
 0001:00145800       __aulldiv                  00546800 f   libcmt:ulldiv.obj
 0001:00145868       __close_nolock             00546868 f   libcmt:close.obj
 0001:00145904       __close                    00546904 f   libcmt:close.obj
 0001:001459d1       __freebuf                  005469d1 f   libcmt:_freebuf.obj
 0001:00145a02       ___iob_func                00546a02 f   libcmt:_file.obj
 0001:00145a08       ___initstdio               00546a08 f   libcmt:_file.obj
 0001:00145ab9       ___endstdio                00546ab9 f   libcmt:_file.obj
 0001:00145ad9       __lock_file                00546ad9 f   libcmt:_file.obj
 0001:00145b1a       __lock_file2               00546b1a f   libcmt:_file.obj
 0001:00145b4c       __unlock_file              00546b4c f   libcmt:_file.obj
 0001:00145b88       __unlock_file2             00546b88 f   libcmt:_file.obj
 0001:00145bb7       __ioinit                   00546bb7 f   libcmt:ioinit.obj
 0001:00145ed5       __input_l                  00546ed5 f   libcmt:input.obj
 0001:00146e92       __openfile                 00547e92 f   libcmt:_open.obj
 0001:0014715b       __getstream                0054815b f   libcmt:stream.obj
 0001:00147293       __NMSG_WRITE               00548293 f   libcmt:crt0msg.obj
 0001:0014743e       __FF_MSGBANNER             0054843e f   libcmt:crt0msg.obj
 0001:00147477       __RTC_Initialize           00548477 f   libcmt:_initsect_.obj
 0001:0014749d       __RTC_Terminate            0054849d f   libcmt:_initsect_.obj
 0001:001474c3       __initp_misc_winsig        005484c3 f   libcmt:winsig.obj
 0001:00147518       ___get_sigabrt             00548518 f   libcmt:winsig.obj
 0001:00147525       _raise                     00548525 f   libcmt:winsig.obj
 0001:001476d5       __initp_misc_rand_s        005486d5 f   libcmt:rand_s.obj
 0001:001476e4       __initp_misc_purevirt      005486e4 f   libcmt:inithelp.obj
 0001:001476f3       __initp_misc_initcrit      005486f3 f   libcmt:initcrit.obj
 0001:00147702       ___crtInitCritSecAndSpinCount 00548702 f   libcmt:initcrit.obj
 0001:00147762       __initp_heap_handler       00548762 f   libcmt:handler.obj
 0001:00147771       __callnewh                 00548771 f   libcmt:handler.obj
 0001:00147799       ___libm_error_support      00548799 f   libcmt:_libm_error_.obj
 0001:00147a49       __sse2_mathfcns_init       00548a49 f   libcmt:_mathfcns_.obj
 0001:00147a5d       __ceil_default             00548a5d f   libcmt:_ceil_.obj
 0001:00147b32       __floor_default            00548b32 f   libcmt:_floor_.obj
 0001:00147c07       __stbuf                    00548c07 f   libcmt:_sftbuf.obj
 0001:00147ca3       __ftbuf                    00548ca3 f   libcmt:_sftbuf.obj
 0001:00147cd7       __filbuf                   00548cd7 f   libcmt:_filbuf.obj
 0001:00147e10       __aulldvrm                 00548e10 f   libcmt:ulldvrm.obj
 0001:00147eb0       _strstr                    00548eb0 f   libcmt:strstr.obj
 0001:00147f50       _strchr                    00548f50 f   libcmt:strchr.obj
 0001:00147f56       ___from_strstr_to_strchr   00548f56     libcmt:strchr.obj
 0001:00148010       _strrchr                   00549010 f   libcmt:strrchr.obj
 0001:0014803d       ?__CxxUnhandledExceptionFilter@@YGJPAU_EXCEPTION_POINTERS@@@Z 0054903d f   libcmt:unhandld.obj
 0001:0014807f       ___CxxSetUnhandledExceptionFilter 0054907f f   libcmt:unhandld.obj
 0001:0014808d       __wincmdln                 0054908d f   libcmt:wincmdln.obj
 0001:001480ec       __setenvp                  005490ec f   libcmt:stdenvp.obj
 0001:00148364       __setargv                  00549364 f   libcmt:stdargv.obj
 0001:0014841f       ___crtGetEnvironmentStringsA 0054941f f   libcmt:a_env.obj
 0001:00148556       ___security_init_cookie    00549556 f   libcmt:gs_support.obj
 0001:001485ec       __mbsnbcpy_s_l             005495ec f   libcmt:mbsnbcpy_s_l.obj
 0001:001487fb       __strnicmp_l               005497fb f   libcmt:strnicmp.obj
 0001:001488ed       __strnicmp                 005498ed f   libcmt:strnicmp.obj
 0001:0014894b       _abort                     0054994b f   libcmt:abort.obj
 0001:00148a62       __set_abort_behavior       00549a62 f   libcmt:abort.obj
 0001:00148a83       __read_nolock              00549a83 f   libcmt:read.obj
 0001:00149045       __read                     0054a045 f   libcmt:read.obj
 0001:00149142       __write_nolock             0054a142 f   libcmt:write.obj
 0001:00149875       __write                    0054a875 f   libcmt:write.obj
 0001:00149951       __lseek_nolock             0054a951 f   libcmt:lseek.obj
 0001:001499c6       __lseek                    0054a9c6 f   libcmt:lseek.obj
 0001:00149aa2       __commit                   0054aaa2 f   libcmt:commit.obj
 0001:00149b90       _strspn                    0054ab90 f   libcmt:strspn.obj
 0001:00149be0       _strcspn                   0054abe0 f   libcmt:strcspn.obj
 0001:00149c26       ?_ValidateExecute@@YAHP6GHXZ@Z 0054ac26 f   libcmt:validate.obj
 0001:00149c26       ?_ValidateWrite@@YAHPAXI@Z 0054ac26 f   libcmt:validate.obj
 0001:00149c26       ?_ValidateRead@@YAHPBXI@Z  0054ac26 f   libcmt:validate.obj
 0001:00149c38       __global_unwind2           0054ac38 f   libcmt:exsup.obj
 0001:00149c9d       __local_unwind2            0054ac9d f   libcmt:exsup.obj
 0001:00149d21       __abnormal_termination     0054ad21 f   libcmt:exsup.obj
 0001:00149d44       __NLG_Notify1              0054ad44 f   libcmt:exsup.obj
 0001:00149d4d       __NLG_Notify               0054ad4d f   libcmt:exsup.obj
 0001:00149d64       __NLG_Dispatch             0054ad64     libcmt:exsup.obj
 0001:00149d64       __NLG_Dispatch2            0054ad64     libcmt:exsup.obj
 0001:00149d6c       __NLG_Call                 0054ad6c f   libcmt:exsup.obj
 0001:00149d6e       __NLG_Return2              0054ad6e     libcmt:exsup.obj
 0001:00149d6f       __lseeki64_nolock          0054ad6f f   libcmt:lseeki64.obj
 0001:00149df4       __lseeki64                 0054adf4 f   libcmt:lseeki64.obj
 0001:00149f0d       __getbuf                   0054af0d f   libcmt:_getbuf.obj
 0001:00149f56       __isatty                   0054af56 f   libcmt:isatty.obj
 0001:00149fba       __get_printf_count_output  0054afba f   libcmt:printf.obj
 0001:00149fd0       __wctomb_s_l               0054afd0 f   libcmt:wctomb.obj
 0001:0014a13c       _wctomb_s                  0054b13c f   libcmt:wctomb.obj
 0001:0014a159       __isleadbyte_l             0054b159 f i libcmt:_wctype.obj
 0001:0014a191       _isleadbyte                0054b191 f i libcmt:_wctype.obj
 0001:0014a1a4       __isdigit_l                0054b1a4 f i libcmt:_ctype.obj
 0001:0014a1f5       _isdigit                   0054b1f5 f i libcmt:_ctype.obj
 0001:0014a223       __isxdigit_l               0054b223 f i libcmt:_ctype.obj
 0001:0014a279       _isxdigit                  0054b279 f i libcmt:_ctype.obj
 0001:0014a2a9       __isspace_l                0054b2a9 f i libcmt:_ctype.obj
 0001:0014a2fa       _isspace                   0054b2fa f i libcmt:_ctype.obj
 0001:0014a328       __atodbl_l                 0054b328 f   libcmt:atodbl.obj
 0001:0014a3d0       __atoflt_l                 0054b3d0 f   libcmt:atodbl.obj
 0001:0014a478       __fptostr                  0054b478 f   libcmt:_fptostr.obj
 0001:0014a537       ___dtold                   0054b537 f   libcmt:_cfout_.obj
 0001:0014a5f4       __fltout2                  0054b5f4 f   libcmt:_cfout_.obj
 0001:0014a690       __alldvrm                  0054b690 f   libcmt:lldvrm.obj
 0001:0014a770       __aullshr                  0054b770 f   libcmt:ullshr.obj
 0001:0014a78f       __fptrap                   0054b78f f   libcmt:crt0fp.obj
 0001:0014a798       __controlfp_s              0054b798 f   libcmt:_contrlfp_.obj
 0001:0014a804       __getenv_helper_nolock     0054b804 f   libcmt:getenv.obj
 0001:0014a88b       ____lc_codepage_func       0054b88b f   libcmt:initctyp.obj
 0001:0014aa6b       ___crtGetStringTypeA       0054ba6b f   libcmt:a_str.obj
 0001:0014aaad       ___free_lc_time            0054baad f   libcmt:inittime.obj
 0001:0014ac42       ___free_lconv_num          0054bc42 f   libcmt:initnum.obj
 0001:0014ac87       ___free_lconv_mon          0054bc87 f   libcmt:initmon.obj
 0001:0014ad15       _strncmp                   0054bd15 f   libcmt:strncmp.obj
 0001:0014ade0       _strpbrk                   0054bde0 f   libcmt:strpbrk.obj
 0001:0014ae20       ___ansicp                  0054be20 f   libcmt:convrtcp.obj
 0001:0014ae69       ___convertcp               0054be69 f   libcmt:convrtcp.obj
 0001:0014b01d       __recalloc                 0054c01d f   libcmt:recalloc.obj
 0001:0014b098       __isctype_l                0054c098 f   libcmt:isctype.obj
 0001:0014b150       __fcloseall                0054c150 f   libcmt:closeall.obj
 0001:0014b1ef       __ungetc_nolock            0054c1ef f   libcmt:ungetc.obj
 0001:0014b2e0       __mbtowc_l                 0054c2e0 f   libcmt:mbtowc.obj
 0001:0014b3f7       _mbtowc                    0054c3f7 f   libcmt:mbtowc.obj
 0001:0014bb30       __sopen_helper             0054cb30 f   libcmt:open.obj
 0001:0014bbfc       __sopen_s                  0054cbfc f   libcmt:open.obj
 0001:0014bc1c       __mbsnbcmp_l               0054cc1c f   libcmt:mbsnbcmp.obj
 0001:0014bd86       __mbsnbcmp                 0054cd86 f   libcmt:mbsnbcmp.obj
 0001:0014bda0       ___crtMessageBoxA          0054cda0 f   libcmt:crtmbox.obj
 0001:0014bf09       __set_error_mode           0054cf09 f   libcmt:errmode.obj
 0001:0014bf54       __raise_exc_ex             0054cf54 f   libcmt:_fpexcept_.obj
 0001:0014c230       __raise_exc                0054d230 f   libcmt:_fpexcept_.obj
 0001:0014c253       __handle_exc               0054d253 f   libcmt:_fpexcept_.obj
 0001:0014c435       __set_errno_from_matherr   0054d435 f   libcmt:_fpexcept_.obj
 0001:0014c462       __errcode                  0054d462 f   libcmt:_fpexcept_.obj
 0001:0014c496       __umatherr                 0054d496 f   libcmt:_fpexcept_.obj
 0001:0014c536       __handle_qnan1             0054d536 f   libcmt:_fpexcept_.obj
 0001:0014c58b       __except1                  0054d58b f   libcmt:_fpexcept_.obj
 0001:0014c654       __frnd                     0054d654 f   libcmt:_frnd_.obj
 0001:0014c668       __set_exp                  0054d668 f   libcmt:_util_.obj
 0001:0014c694       __sptype                   0054d694 f   libcmt:_util_.obj
 0001:0014c6f4       __decomp                   0054d6f4 f   libcmt:_util_.obj
 0001:0014c7ad       __statfp                   0054d7ad f   libcmt:_fpctrl_.obj
 0001:0014c7bd       __clrfp                    0054d7bd f   libcmt:_fpctrl_.obj
 0001:0014c7ce       __ctrlfp                   0054d7ce f   libcmt:_fpctrl_.obj
 0001:0014c7f7       __set_statfp               0054d7f7 f   libcmt:_fpctrl_.obj
 0001:0014c84f       ___set_fpsr_sse2           0054d84f f   libcmt:_fpctrl_.obj
 0001:0014c8d0       ___ascii_strnicmp          0054d8d0 f   libcmt:_strnicm.obj
 0001:0014c931       __putwch_nolock            0054d931 f   libcmt:putwch.obj
 0001:0014c9f6       __ld12tod                  0054d9f6 f   libcmt:_intrncvt_.obj
 0001:0014cf3a       __ld12tof                  0054df3a f   libcmt:_intrncvt_.obj
 0001:0014d47e       ___strgtold12_l            0054e47e f   libcmt:_strgtold_.obj
 0001:0014db76       _$I10_OUTPUT               0054eb76 f   libcmt:_x10fout_.obj
 0001:0014e5c8       __control87                0054f5c8 f i libcmt:_ieee87_.obj
 0001:0014e8d7       __mbsnbicoll_l             0054f8d7 f   libcmt:mbsnbico.obj
 0001:0014e9c5       __mbsnbicoll               0054f9c5 f   libcmt:mbsnbico.obj
 0001:0014e9df       ___wtomb_environ           0054f9df f   libcmt:wtombenv.obj
 0001:0014ea76       __chsize_nolock            0054fa76 f   libcmt:chsize.obj
 0001:0014ec2c       __setmode_nolock           0054fc2c f   libcmt:setmode.obj
 0001:0014ece8       __get_fmode                0054fce8 f   libcmt:setmode.obj
 0001:0014ed21       ___initconout              0054fd21 f   libcmt:initcon.obj
 0001:0014ed40       ___termcon                 0054fd40 f   libcmt:initcon.obj
 0001:0014ed6d       ___mtold12                 0054fd6d f   libcmt:_mantold_.obj
 0001:0014f2c9       ___crtCompareStringA       005502c9 f   libcmt:a_cmp.obj
 0001:0014f30b       __strnicoll_l              0055030b f   libcmt:strnicol.obj
 0001:0014f4b1       ___crtsetenv               005504b1 f   libcmt:setenv.obj
 0001:0014f6fc       _RtlUnwind@16              005506fc f   kernel32:KERNEL32.dll
 0001:0014f702       _ClosePrinter@4            00550702 f   winspool:WINSPOOL.DRV
 0001:0014f708       _DocumentPropertiesA@24    00550708 f   winspool:WINSPOOL.DRV
 0001:0014f70e       _OpenPrinterA@12           0055070e f   winspool:WINSPOOL.DRV
 0001:0014f714       _SQLFreeHandle@8           00550714 f   odbc32:ODBC32.dll
 0001:0014f71a       _SQLExecDirect@12          0055071a f   odbc32:ODBC32.dll
 0001:0014f720       _SQLBindParameter@40       00550720 f   odbc32:ODBC32.dll
 0001:0014f726       _SQLAllocHandle@12         00550726 f   odbc32:ODBC32.dll
 0001:0014f72c       _SQLGetData@24             0055072c f   odbc32:ODBC32.dll
 0001:0014f732       _SQLFetch@4                00550732 f   odbc32:ODBC32.dll
 0001:0014f738       _SQLGetDiagRec@32          00550738 f   odbc32:ODBC32.dll
 0001:0014f73e       _SQLCancel@4               0055073e f   odbc32:ODBC32.dll
 0001:0014f744       _SQLSetStmtOption@12       00550744 f   odbc32:ODBC32.dll
 0001:0014f74a       _SQLSetConnectOption@12    0055074a f   odbc32:ODBC32.dll
 0001:0014f750       _SQLGetInfo@20             00550750 f   odbc32:ODBC32.dll
 0001:0014f756       _SQLGetFunctions@12        00550756 f   odbc32:ODBC32.dll
 0001:0014f75c       _SQLSetPos@16              0055075c f   odbc32:ODBC32.dll
 0001:0014f762       _SQLExtendedFetch@20       00550762 f   odbc32:ODBC32.dll
 0001:0014f768       _SQLNumResultCols@8        00550768 f   odbc32:ODBC32.dll
 0001:0014f76e       _SQLGetStmtOption@12       0055076e f   odbc32:ODBC32.dll
 0001:0014f774       _SQLExecute@4              00550774 f   odbc32:ODBC32.dll
 0001:0014f77a       _SQLPrepare@12             0055077a f   odbc32:ODBC32.dll
 0001:0014f780       _SQLPutData@12             00550780 f   odbc32:ODBC32.dll
 0001:0014f786       _SQLParamData@8            00550786 f   odbc32:ODBC32.dll
 0001:0014f78c       _SQLDescribeCol@36         0055078c f   odbc32:ODBC32.dll
 0001:0014f792       _SQLRowCount@8             00550792 f   odbc32:ODBC32.dll
 0001:0014f798       _SQLFreeConnect@4          00550798 f   odbc32:ODBC32.dll
 0001:0014f79e       _SQLDisconnect@4           0055079e f   odbc32:ODBC32.dll
 0001:0014f7a4       _SQLFreeEnv@4              005507a4 f   odbc32:ODBC32.dll
 0001:0014f7aa       _SQLAllocConnect@8         005507aa f   odbc32:ODBC32.dll
 0001:0014f7b0       _SQLAllocEnv@4             005507b0 f   odbc32:ODBC32.dll
 0001:0014f7b6       _SQLFreeStmt@8             005507b6 f   odbc32:ODBC32.dll
 0001:0014f7bc       _SQLAllocStmt@8            005507bc f   odbc32:ODBC32.dll
 0001:0014f7c2       _SQLError@32               005507c2 f   odbc32:ODBC32.dll
 0001:0014f7c8       _SQLDriverConnect@32       005507c8 f   odbc32:ODBC32.dll
 0001:0014f7ce       _SQLGetCursorName@16       005507ce f   odbc32:ODBC32.dll
 0001:0014f7d4       _SQLBindCol@24             005507d4 f   odbc32:ODBC32.dll
 0001:0014f7da       ??0out_of_range@std@@QAE@ABV?$basic_string@DU?$char_traits@D@std@@V?$allocator@D@2@@1@@Z 005507da f i libcpmt:string.obj
 0001:0014f7f7       ??1out_of_range@std@@UAE@XZ 005507f7 f i libcpmt:string.obj
 0001:0014f802       ??_Gout_of_range@std@@UAEPAXI@Z 00550802 f i libcpmt:string.obj
 0001:0014f802       ??_Eout_of_range@std@@UAEPAXI@Z 00550802 f i libcpmt:string.obj
 0001:0014f829       ?_Xlen@_String_base@std@@SAXXZ 00550829 f   libcpmt:string.obj
 0001:0014f861       ?_Xran@_String_base@std@@SAXXZ 00550861 f   libcpmt:string.obj
 0001:0014f899       ??0out_of_range@std@@QAE@ABV01@@Z 00550899 f i libcpmt:string.obj
 0001:0014f8b6       ?RemoveAll@?$CSimpleArray@PAUHINSTANCE__@@V?$CSimpleArrayEqualHelper@PAUHINSTANCE__@@@ATL@@@ATL@@QAEXXZ 005508b6 f i atls:atlbase.obj
 0001:0014f8d5       ??0CComCriticalSection@ATL@@QAE@XZ 005508d5 f i atls:atlbase.obj
 0001:0014f8eb       ?Init@CComCriticalSection@ATL@@QAEJXZ 005508eb f i atls:atlbase.obj
 0001:0014f936       ??0_ATL_BASE_MODULE70@ATL@@QAE@XZ 00550936 f i atls:atlbase.obj
 0001:0014f952       ??1CAtlBaseModule@ATL@@QAE@XZ 00550952 f   atls:atlbase.obj
 0001:0014f96a       ??0CAtlBaseModule@ATL@@QAE@XZ 0055096a f   atls:atlbase.obj
 0001:0014f9aa       __imp_load__CreateStdAccessibleObject@16 005509aa     oleacc:OLEACC.dll
 0001:0014f9b4       __tailMerge_OLEACC_dll     005509b4     oleacc:OLEACC.dll
 0001:0014f9c5       _CreateStdAccessibleObject@16 005509c5 f   oleacc:OLEACC.dll
 0001:0014f9cb       __imp_load__LresultFromObject@12 005509cb     oleacc:OLEACC.dll
 0001:0014f9d5       _LresultFromObject@12      005509d5 f   oleacc:OLEACC.dll
 0001:0014f9db       ___delayLoadHelper2@8      005509db f   DelayImp:delayhlp.obj
 0001:0014fc18       _WinMain@16                00550c18 f   nafxcw:appmodul.obj
 0001:0014fc23       ?AfxInitialize@@YGHHK@Z    00550c23 f   nafxcw:appmodul.obj
 0001:0014fc46       ?_AfxTermAppState@@YAXXZ   00550c46 f   nafxcw:appmodul.obj
 0001:0014fc59       ?AfxWinMain@@YGHPAUHINSTANCE__@@0PADH@Z 00550c59 f   nafxcw:winmain.obj
 0002:00000000       __imp__RegSetValueExA@24   0055b000     advapi32:ADVAPI32.dll
 0002:00000004       __imp__RegCreateKeyExA@36  0055b004     advapi32:ADVAPI32.dll
 0002:00000008       __imp__RegQueryValueA@16   0055b008     advapi32:ADVAPI32.dll
 0002:0000000c       __imp__RegEnumKeyA@16      0055b00c     advapi32:ADVAPI32.dll
 0002:00000010       __imp__RegDeleteKeyA@8     0055b010     advapi32:ADVAPI32.dll
 0002:00000014       __imp__RegOpenKeyExA@20    0055b014     advapi32:ADVAPI32.dll
 0002:00000018       __imp__RegOpenKeyA@12      0055b018     advapi32:ADVAPI32.dll
 0002:0000001c       __imp__RegQueryValueExA@24 0055b01c     advapi32:ADVAPI32.dll
 0002:00000020       __imp__RegCloseKey@4       0055b020     advapi32:ADVAPI32.dll
 0002:00000024       \177ADVAPI32_NULL_THUNK_DATA 0055b024     advapi32:ADVAPI32.dll
 0002:00000028       __imp__GetFileTitleA@12    0055b028     comdlg32:COMDLG32.dll
 0002:0000002c       \177COMDLG32_NULL_THUNK_DATA 0055b02c     comdlg32:COMDLG32.dll
 0002:00000030       __imp__SetMapMode@8        0055b030     gdi32:GDI32.dll
 0002:00000034       __imp__RestoreDC@8         0055b034     gdi32:GDI32.dll
 0002:00000038       __imp__SaveDC@4            0055b038     gdi32:GDI32.dll
 0002:0000003c       __imp__GetObjectA@12       0055b03c     gdi32:GDI32.dll
 0002:00000040       __imp__SetBkColor@8        0055b040     gdi32:GDI32.dll
 0002:00000044       __imp__SetTextColor@8      0055b044     gdi32:GDI32.dll
 0002:00000048       __imp__GetClipBox@8        0055b048     gdi32:GDI32.dll
 0002:0000004c       __imp__CreateBitmap@20     0055b04c     gdi32:GDI32.dll
 0002:00000050       __imp__GetDeviceCaps@8     0055b050     gdi32:GDI32.dll
 0002:00000054       __imp__GetStockObject@4    0055b054     gdi32:GDI32.dll
 0002:00000058       __imp__DeleteDC@4          0055b058     gdi32:GDI32.dll
 0002:0000005c       __imp__ScaleWindowExtEx@24 0055b05c     gdi32:GDI32.dll
 0002:00000060       __imp__SetWindowExtEx@16   0055b060     gdi32:GDI32.dll
 0002:00000064       __imp__ScaleViewportExtEx@24 0055b064     gdi32:GDI32.dll
 0002:00000068       __imp__SetViewportExtEx@16 0055b068     gdi32:GDI32.dll
 0002:0000006c       __imp__OffsetViewportOrgEx@16 0055b06c     gdi32:GDI32.dll
 0002:00000070       __imp__SetViewportOrgEx@16 0055b070     gdi32:GDI32.dll
 0002:00000074       __imp__SelectObject@8      0055b074     gdi32:GDI32.dll
 0002:00000078       __imp__Escape@20           0055b078     gdi32:GDI32.dll
 0002:0000007c       __imp__ExtTextOutA@32      0055b07c     gdi32:GDI32.dll
 0002:00000080       __imp__TextOutA@20         0055b080     gdi32:GDI32.dll
 0002:00000084       __imp__RectVisible@8       0055b084     gdi32:GDI32.dll
 0002:00000088       __imp__PtVisible@12        0055b088     gdi32:GDI32.dll
 0002:0000008c       __imp__DeleteObject@4      0055b08c     gdi32:GDI32.dll
 0002:00000090       \177GDI32_NULL_THUNK_DATA  0055b090     gdi32:GDI32.dll
 0002:00000094       __imp__GetFileSizeEx@8     0055b094     kernel32:KERNEL32.dll
 0002:00000098       __imp__GetFileTime@16      0055b098     kernel32:KERNEL32.dll
 0002:0000009c       __imp__ReadFile@20         0055b09c     kernel32:KERNEL32.dll
 0002:000000a0       __imp__WriteFile@20        0055b0a0     kernel32:KERNEL32.dll
 0002:000000a4       __imp__SetFilePointer@16   0055b0a4     kernel32:KERNEL32.dll
 0002:000000a8       __imp__FlushFileBuffers@4  0055b0a8     kernel32:KERNEL32.dll
 0002:000000ac       __imp__LockFile@20         0055b0ac     kernel32:KERNEL32.dll
 0002:000000b0       __imp__UnlockFile@20       0055b0b0     kernel32:KERNEL32.dll
 0002:000000b4       __imp__SetEndOfFile@4      0055b0b4     kernel32:KERNEL32.dll
 0002:000000b8       __imp__GetFileSize@8       0055b0b8     kernel32:KERNEL32.dll
 0002:000000bc       __imp__DuplicateHandle@28  0055b0bc     kernel32:KERNEL32.dll
 0002:000000c0       __imp__GetCurrentProcess@0 0055b0c0     kernel32:KERNEL32.dll
 0002:000000c4       __imp__FindClose@4         0055b0c4     kernel32:KERNEL32.dll
 0002:000000c8       __imp__FindFirstFileA@8    0055b0c8     kernel32:KERNEL32.dll
 0002:000000cc       __imp__GetVolumeInformationA@32 0055b0cc     kernel32:KERNEL32.dll
 0002:000000d0       __imp__GetFullPathNameA@16 0055b0d0     kernel32:KERNEL32.dll
 0002:000000d4       __imp__GetProcAddress@8    0055b0d4     kernel32:KERNEL32.dll
 0002:000000d8       __imp__GetModuleHandleA@4  0055b0d8     kernel32:KERNEL32.dll
 0002:000000dc       __imp__GetModuleFileNameW@12 0055b0dc     kernel32:KERNEL32.dll
 0002:000000e0       __imp__InterlockedDecrement@4 0055b0e0     kernel32:KERNEL32.dll
 0002:000000e4       __imp__CompareStringA@24   0055b0e4     kernel32:KERNEL32.dll
 0002:000000e8       __imp__GetLocaleInfoA@16   0055b0e8     kernel32:KERNEL32.dll
 0002:000000ec       __imp__EnumResourceLanguagesA@20 0055b0ec     kernel32:KERNEL32.dll
 0002:000000f0       __imp__ConvertDefaultLocale@4 0055b0f0     kernel32:KERNEL32.dll
 0002:000000f4       __imp__GlobalDeleteAtom@4  0055b0f4     kernel32:KERNEL32.dll
 0002:000000f8       __imp__GlobalAddAtomA@4    0055b0f8     kernel32:KERNEL32.dll
 0002:000000fc       __imp__FreeResource@4      0055b0fc     kernel32:KERNEL32.dll
 0002:00000100       __imp__GetVersionExA@4     0055b100     kernel32:KERNEL32.dll
 0002:00000104       __imp__GlobalFindAtomA@4   0055b104     kernel32:KERNEL32.dll
 0002:00000108       __imp__GlobalGetAtomNameA@12 0055b108     kernel32:KERNEL32.dll
 0002:0000010c       __imp__LocalAlloc@8        0055b10c     kernel32:KERNEL32.dll
 0002:00000110       __imp__GetFileAttributesA@4 0055b110     kernel32:KERNEL32.dll
 0002:00000114       __imp__GlobalHandle@4      0055b114     kernel32:KERNEL32.dll
 0002:00000118       __imp__TlsAlloc@0          0055b118     kernel32:KERNEL32.dll
 0002:0000011c       __imp__TlsSetValue@8       0055b11c     kernel32:KERNEL32.dll
 0002:00000120       __imp__LocalReAlloc@12     0055b120     kernel32:KERNEL32.dll
 0002:00000124       __imp__TlsFree@4           0055b124     kernel32:KERNEL32.dll
 0002:00000128       __imp__GetModuleHandleW@4  0055b128     kernel32:KERNEL32.dll
 0002:0000012c       __imp__SetErrorMode@4      0055b12c     kernel32:KERNEL32.dll
 0002:00000130       __imp__WritePrivateProfileStringA@16 0055b130     kernel32:KERNEL32.dll
 0002:00000134       __imp__GlobalFlags@4       0055b134     kernel32:KERNEL32.dll
 0002:00000138       __imp__GetCPInfo@8         0055b138     kernel32:KERNEL32.dll
 0002:0000013c       __imp__GetOEMCP@0          0055b13c     kernel32:KERNEL32.dll
 0002:00000140       __imp__RtlUnwind@16        0055b140     kernel32:KERNEL32.dll
 0002:00000144       __imp__RaiseException@16   0055b144     kernel32:KERNEL32.dll
 0002:00000148       __imp__TerminateProcess@8  0055b148     kernel32:KERNEL32.dll
 0002:0000014c       __imp__UnhandledExceptionFilter@4 0055b14c     kernel32:KERNEL32.dll
 0002:00000150       __imp__SetUnhandledExceptionFilter@4 0055b150     kernel32:KERNEL32.dll
 0002:00000154       __imp__IsDebuggerPresent@0 0055b154     kernel32:KERNEL32.dll
 0002:00000158       __imp__ExitThread@4        0055b158     kernel32:KERNEL32.dll
 0002:0000015c       __imp__CreateThread@24     0055b15c     kernel32:KERNEL32.dll
 0002:00000160       __imp__HeapFree@12         0055b160     kernel32:KERNEL32.dll
 0002:00000164       __imp__GetSystemTimeAsFileTime@4 0055b164     kernel32:KERNEL32.dll
 0002:00000168       __imp__ExitProcess@4       0055b168     kernel32:KERNEL32.dll
 0002:0000016c       __imp__GetCommandLineA@0   0055b16c     kernel32:KERNEL32.dll
 0002:00000170       __imp__GetStartupInfoA@4   0055b170     kernel32:KERNEL32.dll
 0002:00000174       __imp__HeapAlloc@12        0055b174     kernel32:KERNEL32.dll
 0002:00000178       __imp__VirtualAlloc@16     0055b178     kernel32:KERNEL32.dll
 0002:0000017c       __imp__HeapReAlloc@16      0055b17c     kernel32:KERNEL32.dll
 0002:00000180       __imp__SetStdHandle@8      0055b180     kernel32:KERNEL32.dll
 0002:00000184       __imp__GetFileType@4       0055b184     kernel32:KERNEL32.dll
 0002:00000188       __imp__HeapSize@12         0055b188     kernel32:KERNEL32.dll
 0002:0000018c       __imp__GetTimeZoneInformation@4 0055b18c     kernel32:KERNEL32.dll
 0002:00000190       __imp__GetACP@0            0055b190     kernel32:KERNEL32.dll
 0002:00000194       __imp__IsValidCodePage@4   0055b194     kernel32:KERNEL32.dll
 0002:00000198       __imp__LCMapStringA@24     0055b198     kernel32:KERNEL32.dll
 0002:0000019c       __imp__LCMapStringW@24     0055b19c     kernel32:KERNEL32.dll
 0002:000001a0       __imp__HeapCreate@12       0055b1a0     kernel32:KERNEL32.dll
 0002:000001a4       __imp__VirtualFree@12      0055b1a4     kernel32:KERNEL32.dll
 0002:000001a8       __imp__SetHandleCount@4    0055b1a8     kernel32:KERNEL32.dll
 0002:000001ac       __imp__GetStdHandle@4      0055b1ac     kernel32:KERNEL32.dll
 0002:000001b0       __imp__InitializeCriticalSectionAndSpinCount@8 0055b1b0     kernel32:KERNEL32.dll
 0002:000001b4       __imp__FreeEnvironmentStringsA@4 0055b1b4     kernel32:KERNEL32.dll
 0002:000001b8       __imp__GetEnvironmentStrings@0 0055b1b8     kernel32:KERNEL32.dll
 0002:000001bc       __imp__FreeEnvironmentStringsW@4 0055b1bc     kernel32:KERNEL32.dll
 0002:000001c0       __imp__GetEnvironmentStringsW@0 0055b1c0     kernel32:KERNEL32.dll
 0002:000001c4       __imp__GetConsoleCP@0      0055b1c4     kernel32:KERNEL32.dll
 0002:000001c8       __imp__GetConsoleMode@8    0055b1c8     kernel32:KERNEL32.dll
 0002:000001cc       __imp__GetStringTypeA@20   0055b1cc     kernel32:KERNEL32.dll
 0002:000001d0       __imp__GetStringTypeW@16   0055b1d0     kernel32:KERNEL32.dll
 0002:000001d4       __imp__WriteConsoleA@20    0055b1d4     kernel32:KERNEL32.dll
 0002:000001d8       __imp__GetConsoleOutputCP@0 0055b1d8     kernel32:KERNEL32.dll
 0002:000001dc       __imp__WriteConsoleW@20    0055b1dc     kernel32:KERNEL32.dll
 0002:000001e0       __imp__GetProcessHeap@0    0055b1e0     kernel32:KERNEL32.dll
 0002:000001e4       __imp__CompareStringW@24   0055b1e4     kernel32:KERNEL32.dll
 0002:000001e8       __imp__SetEnvironmentVariableA@8 0055b1e8     kernel32:KERNEL32.dll
 0002:000001ec       __imp__CreateFileA@28      0055b1ec     kernel32:KERNEL32.dll
 0002:000001f0       __imp__FileTimeToLocalFileTime@8 0055b1f0     kernel32:KERNEL32.dll
 0002:000001f4       __imp__FileTimeToSystemTime@8 0055b1f4     kernel32:KERNEL32.dll
 0002:000001f8       __imp__GetCurrentProcessId@0 0055b1f8     kernel32:KERNEL32.dll
 0002:000001fc       __imp__SuspendThread@4     0055b1fc     kernel32:KERNEL32.dll
 0002:00000200       __imp__SetLastError@4      0055b200     kernel32:KERNEL32.dll
 0002:00000204       __imp__MulDiv@12           0055b204     kernel32:KERNEL32.dll
 0002:00000208       __imp__lstrcpyW@8          0055b208     kernel32:KERNEL32.dll
 0002:0000020c       __imp__lstrcmpW@8          0055b20c     kernel32:KERNEL32.dll
 0002:00000210       __imp__GlobalFree@4        0055b210     kernel32:KERNEL32.dll
 0002:00000214       __imp__lstrlenW@4          0055b214     kernel32:KERNEL32.dll
 0002:00000218       __imp__lstrlenA@4          0055b218     kernel32:KERNEL32.dll
 0002:0000021c       __imp__GlobalReAlloc@12    0055b21c     kernel32:KERNEL32.dll
 0002:00000220       __imp__GlobalAlloc@8       0055b220     kernel32:KERNEL32.dll
 0002:00000224       __imp__GlobalLock@4        0055b224     kernel32:KERNEL32.dll
 0002:00000228       __imp__GlobalUnlock@4      0055b228     kernel32:KERNEL32.dll
 0002:0000022c       __imp__GetSystemTime@4     0055b22c     kernel32:KERNEL32.dll
 0002:00000230       __imp__lstrcmpA@8          0055b230     kernel32:KERNEL32.dll
 0002:00000234       __imp__IsBadReadPtr@8      0055b234     kernel32:KERNEL32.dll
 0002:00000238       __imp__lstrcpyA@8          0055b238     kernel32:KERNEL32.dll
 0002:0000023c       __imp__IsDBCSLeadByteEx@8  0055b23c     kernel32:KERNEL32.dll
 0002:00000240       __imp__MultiByteToWideChar@24 0055b240     kernel32:KERNEL32.dll
 0002:00000244       __imp__ReleaseMutex@4      0055b244     kernel32:KERNEL32.dll
 0002:00000248       __imp__CreateMutexA@12     0055b248     kernel32:KERNEL32.dll
 0002:0000024c       __imp__OpenFileMappingA@12 0055b24c     kernel32:KERNEL32.dll
 0002:00000250       __imp__FlushViewOfFile@8   0055b250     kernel32:KERNEL32.dll
 0002:00000254       __imp__UnmapViewOfFile@4   0055b254     kernel32:KERNEL32.dll
 0002:00000258       __imp__CreateFileMappingA@24 0055b258     kernel32:KERNEL32.dll
 0002:0000025c       __imp__MapViewOfFile@20    0055b25c     kernel32:KERNEL32.dll
 0002:00000260       __imp__GetCurrentDirectoryA@8 0055b260     kernel32:KERNEL32.dll
 0002:00000264       __imp__GetPrivateProfileIntA@16 0055b264     kernel32:KERNEL32.dll
 0002:00000268       __imp__GetPrivateProfileStringA@24 0055b268     kernel32:KERNEL32.dll
 0002:0000026c       __imp__LoadLibraryA@4      0055b26c     kernel32:KERNEL32.dll
 0002:00000270       __imp__GetCurrentThreadId@0 0055b270     kernel32:KERNEL32.dll
 0002:00000274       __imp__ResetEvent@4        0055b274     kernel32:KERNEL32.dll
 0002:00000278       __imp__GetCurrentThread@0  0055b278     kernel32:KERNEL32.dll
 0002:0000027c       __imp__SetThreadPriority@8 0055b27c     kernel32:KERNEL32.dll
 0002:00000280       __imp__CreateIoCompletionPort@16 0055b280     kernel32:KERNEL32.dll
 0002:00000284       __imp__ResumeThread@4      0055b284     kernel32:KERNEL32.dll
 0002:00000288       __imp__CloseHandle@4       0055b288     kernel32:KERNEL32.dll
 0002:0000028c       __imp__WaitForSingleObject@8 0055b28c     kernel32:KERNEL32.dll
 0002:00000290       __imp__CreateEventA@16     0055b290     kernel32:KERNEL32.dll
 0002:00000294       __imp__InterlockedIncrement@4 0055b294     kernel32:KERNEL32.dll
 0002:00000298       __imp__GetModuleFileNameA@12 0055b298     kernel32:KERNEL32.dll
 0002:0000029c       __imp__LoadLibraryExA@12   0055b29c     kernel32:KERNEL32.dll
 0002:000002a0       __imp__FormatMessageA@28   0055b2a0     kernel32:KERNEL32.dll
 0002:000002a4       __imp__LocalFree@4         0055b2a4     kernel32:KERNEL32.dll
 0002:000002a8       __imp__FreeLibrary@4       0055b2a8     kernel32:KERNEL32.dll
 0002:000002ac       __imp__GetLocalTime@4      0055b2ac     kernel32:KERNEL32.dll
 0002:000002b0       __imp__GetSystemInfo@4     0055b2b0     kernel32:KERNEL32.dll
 0002:000002b4       __imp__QueryPerformanceFrequency@4 0055b2b4     kernel32:KERNEL32.dll
 0002:000002b8       __imp__GetTickCount@0      0055b2b8     kernel32:KERNEL32.dll
 0002:000002bc       __imp__QueryPerformanceCounter@4 0055b2bc     kernel32:KERNEL32.dll
 0002:000002c0       __imp__InterlockedExchangeAdd@8 0055b2c0     kernel32:KERNEL32.dll
 0002:000002c4       __imp__Sleep@4             0055b2c4     kernel32:KERNEL32.dll
 0002:000002c8       __imp__GetQueuedCompletionStatus@20 0055b2c8     kernel32:KERNEL32.dll
 0002:000002cc       __imp__InterlockedCompareExchange@12 0055b2cc     kernel32:KERNEL32.dll
 0002:000002d0       __imp__InterlockedExchange@8 0055b2d0     kernel32:KERNEL32.dll
 0002:000002d4       __imp__DeleteCriticalSection@4 0055b2d4     kernel32:KERNEL32.dll
 0002:000002d8       __imp__InitializeCriticalSection@4 0055b2d8     kernel32:KERNEL32.dll
 0002:000002dc       __imp__PostQueuedCompletionStatus@16 0055b2dc     kernel32:KERNEL32.dll
 0002:000002e0       __imp__GetLastError@0      0055b2e0     kernel32:KERNEL32.dll
 0002:000002e4       __imp__SetEvent@4          0055b2e4     kernel32:KERNEL32.dll
 0002:000002e8       __imp__EnterCriticalSection@4 0055b2e8     kernel32:KERNEL32.dll
 0002:000002ec       __imp__LeaveCriticalSection@4 0055b2ec     kernel32:KERNEL32.dll
 0002:000002f0       __imp__WideCharToMultiByte@32 0055b2f0     kernel32:KERNEL32.dll
 0002:000002f4       __imp__LoadResource@8      0055b2f4     kernel32:KERNEL32.dll
 0002:000002f8       __imp__LockResource@4      0055b2f8     kernel32:KERNEL32.dll
 0002:000002fc       __imp__SizeofResource@8    0055b2fc     kernel32:KERNEL32.dll
 0002:00000300       __imp__FindResourceA@12    0055b300     kernel32:KERNEL32.dll
 0002:00000304       __imp__TlsGetValue@4       0055b304     kernel32:KERNEL32.dll
 0002:00000308       \177KERNEL32_NULL_THUNK_DATA 0055b308     kernel32:KERNEL32.dll
 0002:0000030c       __imp__SQLSetConnectOption@12 0055b30c     odbc32:ODBC32.dll
 0002:00000310       __imp__SQLSetStmtOption@12 0055b310     odbc32:ODBC32.dll
 0002:00000314       __imp__SQLCancel@4         0055b314     odbc32:ODBC32.dll
 0002:00000318       __imp__SQLGetDiagRec@32    0055b318     odbc32:ODBC32.dll
 0002:0000031c       __imp__SQLFetch@4          0055b31c     odbc32:ODBC32.dll
 0002:00000320       __imp__SQLGetData@24       0055b320     odbc32:ODBC32.dll
 0002:00000324       __imp__SQLAllocHandle@12   0055b324     odbc32:ODBC32.dll
 0002:00000328       __imp__SQLBindParameter@40 0055b328     odbc32:ODBC32.dll
 0002:0000032c       __imp__SQLExecDirect@12    0055b32c     odbc32:ODBC32.dll
 0002:00000330       __imp__SQLFreeHandle@8     0055b330     odbc32:ODBC32.dll
 0002:00000334       __imp__SQLGetCursorName@16 0055b334     odbc32:ODBC32.dll
 0002:00000338       __imp__SQLDriverConnect@32 0055b338     odbc32:ODBC32.dll
 0002:0000033c       __imp__SQLError@32         0055b33c     odbc32:ODBC32.dll
 0002:00000340       __imp__SQLAllocStmt@8      0055b340     odbc32:ODBC32.dll
 0002:00000344       __imp__SQLFreeStmt@8       0055b344     odbc32:ODBC32.dll
 0002:00000348       __imp__SQLAllocEnv@4       0055b348     odbc32:ODBC32.dll
 0002:0000034c       __imp__SQLAllocConnect@8   0055b34c     odbc32:ODBC32.dll
 0002:00000350       __imp__SQLFreeEnv@4        0055b350     odbc32:ODBC32.dll
 0002:00000354       __imp__SQLDisconnect@4     0055b354     odbc32:ODBC32.dll
 0002:00000358       __imp__SQLFreeConnect@4    0055b358     odbc32:ODBC32.dll
 0002:0000035c       __imp__SQLRowCount@8       0055b35c     odbc32:ODBC32.dll
 0002:00000360       __imp__SQLDescribeCol@36   0055b360     odbc32:ODBC32.dll
 0002:00000364       __imp__SQLParamData@8      0055b364     odbc32:ODBC32.dll
 0002:00000368       __imp__SQLPutData@12       0055b368     odbc32:ODBC32.dll
 0002:0000036c       __imp__SQLPrepare@12       0055b36c     odbc32:ODBC32.dll
 0002:00000370       __imp__SQLExecute@4        0055b370     odbc32:ODBC32.dll
 0002:00000374       __imp__SQLGetStmtOption@12 0055b374     odbc32:ODBC32.dll
 0002:00000378       __imp__SQLNumResultCols@8  0055b378     odbc32:ODBC32.dll
 0002:0000037c       __imp__SQLExtendedFetch@20 0055b37c     odbc32:ODBC32.dll
 0002:00000380       __imp__SQLSetPos@16        0055b380     odbc32:ODBC32.dll
 0002:00000384       __imp__SQLGetFunctions@12  0055b384     odbc32:ODBC32.dll
 0002:00000388       __imp__SQLGetInfo@20       0055b388     odbc32:ODBC32.dll
 0002:0000038c       __imp__SQLBindCol@24       0055b38c     odbc32:ODBC32.dll
 0002:00000390       \177ODBC32_NULL_THUNK_DATA 0055b390     odbc32:ODBC32.dll
 0002:00000394       __imp__VariantInit@4       0055b394     oleaut32:OLEAUT32.dll
 0002:00000398       __imp__VariantChangeType@16 0055b398     oleaut32:OLEAUT32.dll
 0002:0000039c       __imp__VariantClear@4      0055b39c     oleaut32:OLEAUT32.dll
 0002:000003a0       __imp__SystemTimeToVariantTime@8 0055b3a0     oleaut32:OLEAUT32.dll
 0002:000003a4       __imp__VariantTimeToSystemTime@12 0055b3a4     oleaut32:OLEAUT32.dll
 0002:000003a8       \177OLEAUT32_NULL_THUNK_DATA 0055b3a8     oleaut32:OLEAUT32.dll
 0002:000003ac       __imp__PathFindExtensionA@4 0055b3ac     shlwapi:SHLWAPI.dll
 0002:000003b0       __imp__PathFindFileNameA@4 0055b3b0     shlwapi:SHLWAPI.dll
 0002:000003b4       __imp__PathStripToRootA@4  0055b3b4     shlwapi:SHLWAPI.dll
 0002:000003b8       __imp__PathIsUNCA@4        0055b3b8     shlwapi:SHLWAPI.dll
 0002:000003bc       \177SHLWAPI_NULL_THUNK_DATA 0055b3bc     shlwapi:SHLWAPI.dll
 0002:000003c0       __imp__UnregisterClassA@8  0055b3c0     user32:USER32.dll
 0002:000003c4       __imp__LoadCursorA@8       0055b3c4     user32:USER32.dll
 0002:000003c8       __imp__GetSysColorBrush@4  0055b3c8     user32:USER32.dll
 0002:000003cc       __imp__DestroyMenu@4       0055b3cc     user32:USER32.dll
 0002:000003d0       __imp__EndPaint@8          0055b3d0     user32:USER32.dll
 0002:000003d4       __imp__BeginPaint@8        0055b3d4     user32:USER32.dll
 0002:000003d8       __imp__ReleaseDC@8         0055b3d8     user32:USER32.dll
 0002:000003dc       __imp__GetDC@4             0055b3dc     user32:USER32.dll
 0002:000003e0       __imp__ClientToScreen@8    0055b3e0     user32:USER32.dll
 0002:000003e4       __imp__GrayStringA@36      0055b3e4     user32:USER32.dll
 0002:000003e8       __imp__DrawTextExA@24      0055b3e8     user32:USER32.dll
 0002:000003ec       __imp__DrawTextA@20        0055b3ec     user32:USER32.dll
 0002:000003f0       __imp__TabbedTextOutA@32   0055b3f0     user32:USER32.dll
 0002:000003f4       __imp__ShowWindow@8        0055b3f4     user32:USER32.dll
 0002:000003f8       __imp__SetWindowTextA@8    0055b3f8     user32:USER32.dll
 0002:000003fc       __imp__IsDialogMessageA@8  0055b3fc     user32:USER32.dll
 0002:00000400       __imp__SetDlgItemTextA@12  0055b400     user32:USER32.dll
 0002:00000404       __imp__RegisterWindowMessageA@4 0055b404     user32:USER32.dll
 0002:00000408       __imp__SendDlgItemMessageA@20 0055b408     user32:USER32.dll
 0002:0000040c       __imp__WinHelpA@16         0055b40c     user32:USER32.dll
 0002:00000410       __imp__GetCapture@0        0055b410     user32:USER32.dll
 0002:00000414       __imp__GetClassLongA@8     0055b414     user32:USER32.dll
 0002:00000418       __imp__GetClassNameA@12    0055b418     user32:USER32.dll
 0002:0000041c       __imp__SetPropA@12         0055b41c     user32:USER32.dll
 0002:00000420       __imp__GetPropA@8          0055b420     user32:USER32.dll
 0002:00000424       __imp__RemovePropA@8       0055b424     user32:USER32.dll
 0002:00000428       __imp__SetFocus@4          0055b428     user32:USER32.dll
 0002:0000042c       __imp__GetWindowTextA@12   0055b42c     user32:USER32.dll
 0002:00000430       __imp__GetForegroundWindow@0 0055b430     user32:USER32.dll
 0002:00000434       __imp__GetTopWindow@4      0055b434     user32:USER32.dll
 0002:00000438       __imp__GetMessageTime@0    0055b438     user32:USER32.dll
 0002:0000043c       __imp__GetMessagePos@0     0055b43c     user32:USER32.dll
 0002:00000440       __imp__MapWindowPoints@16  0055b440     user32:USER32.dll
 0002:00000444       __imp__SetMenu@8           0055b444     user32:USER32.dll
 0002:00000448       __imp__UpdateWindow@4      0055b448     user32:USER32.dll
 0002:0000044c       __imp__CreateWindowExA@48  0055b44c     user32:USER32.dll
 0002:00000450       __imp__GetClassInfoExA@12  0055b450     user32:USER32.dll
 0002:00000454       __imp__GetClassInfoA@12    0055b454     user32:USER32.dll
 0002:00000458       __imp__RegisterClassA@4    0055b458     user32:USER32.dll
 0002:0000045c       __imp__GetSysColor@4       0055b45c     user32:USER32.dll
 0002:00000460       __imp__AdjustWindowRectEx@16 0055b460     user32:USER32.dll
 0002:00000464       __imp__CopyRect@8          0055b464     user32:USER32.dll
 0002:00000468       __imp__GetDlgCtrlID@4      0055b468     user32:USER32.dll
 0002:0000046c       __imp__DefWindowProcA@16   0055b46c     user32:USER32.dll
 0002:00000470       __imp__CallWindowProcA@20  0055b470     user32:USER32.dll
 0002:00000474       __imp__GetMenu@4           0055b474     user32:USER32.dll
 0002:00000478       __imp__SetWindowLongA@12   0055b478     user32:USER32.dll
 0002:0000047c       __imp__SetWindowPos@28     0055b47c     user32:USER32.dll
 0002:00000480       __imp__GetWindowPlacement@8 0055b480     user32:USER32.dll
 0002:00000484       __imp__GetWindowRect@8     0055b484     user32:USER32.dll
 0002:00000488       __imp__GetWindow@8         0055b488     user32:USER32.dll
 0002:0000048c       __imp__SetActiveWindow@4   0055b48c     user32:USER32.dll
 0002:00000490       __imp__CreateDialogIndirectParamA@20 0055b490     user32:USER32.dll
 0002:00000494       __imp__DestroyWindow@4     0055b494     user32:USER32.dll
 0002:00000498       __imp__GetDlgItem@8        0055b498     user32:USER32.dll
 0002:0000049c       __imp__GetNextDlgTabItem@12 0055b49c     user32:USER32.dll
 0002:000004a0       __imp__EndDialog@8         0055b4a0     user32:USER32.dll
 0002:000004a4       __imp__SetCursor@4         0055b4a4     user32:USER32.dll
 0002:000004a8       __imp__SetMenuItemBitmaps@20 0055b4a8     user32:USER32.dll
 0002:000004ac       __imp__GetMenuCheckMarkDimensions@0 0055b4ac     user32:USER32.dll
 0002:000004b0       __imp__LoadBitmapA@8       0055b4b0     user32:USER32.dll
 0002:000004b4       __imp__GetFocus@0          0055b4b4     user32:USER32.dll
 0002:000004b8       __imp__ModifyMenuA@20      0055b4b8     user32:USER32.dll
 0002:000004bc       __imp__EnableMenuItem@12   0055b4bc     user32:USER32.dll
 0002:000004c0       __imp__GetWindowTextLengthA@4 0055b4c0     user32:USER32.dll
 0002:000004c4       __imp__CheckMenuItem@12    0055b4c4     user32:USER32.dll
 0002:000004c8       __imp__PostQuitMessage@4   0055b4c8     user32:USER32.dll
 0002:000004cc       __imp__UnhookWindowsHookEx@4 0055b4cc     user32:USER32.dll
 0002:000004d0       __imp__CharUpperA@4        0055b4d0     user32:USER32.dll
 0002:000004d4       __imp__GetWindowThreadProcessId@8 0055b4d4     user32:USER32.dll
 0002:000004d8       __imp__GetParent@4         0055b4d8     user32:USER32.dll
 0002:000004dc       __imp__GetWindowLongA@8    0055b4dc     user32:USER32.dll
 0002:000004e0       __imp__IsWindowEnabled@4   0055b4e0     user32:USER32.dll
 0002:000004e4       __imp__MessageBoxA@16      0055b4e4     user32:USER32.dll
 0002:000004e8       __imp__SetWindowsHookExA@16 0055b4e8     user32:USER32.dll
 0002:000004ec       __imp__CallNextHookEx@16   0055b4ec     user32:USER32.dll
 0002:000004f0       __imp__GetMessageA@16      0055b4f0     user32:USER32.dll
 0002:000004f4       __imp__TranslateMessage@4  0055b4f4     user32:USER32.dll
 0002:000004f8       __imp__DispatchMessageA@4  0055b4f8     user32:USER32.dll
 0002:000004fc       __imp__GetActiveWindow@0   0055b4fc     user32:USER32.dll
 0002:00000500       __imp__IsWindowVisible@4   0055b500     user32:USER32.dll
 0002:00000504       __imp__GetKeyState@4       0055b504     user32:USER32.dll
 0002:00000508       __imp__PeekMessageA@20     0055b508     user32:USER32.dll
 0002:0000050c       __imp__GetCursorPos@4      0055b50c     user32:USER32.dll
 0002:00000510       __imp__ValidateRect@8      0055b510     user32:USER32.dll
 0002:00000514       __imp__GetMenuState@12     0055b514     user32:USER32.dll
 0002:00000518       __imp__GetMenuItemID@8     0055b518     user32:USER32.dll
 0002:0000051c       __imp__GetMenuItemCount@4  0055b51c     user32:USER32.dll
 0002:00000520       __imp__GetSubMenu@8        0055b520     user32:USER32.dll
 0002:00000524       __imp__GetDesktopWindow@0  0055b524     user32:USER32.dll
 0002:00000528       __imp__SetForegroundWindow@4 0055b528     user32:USER32.dll
 0002:0000052c       __imp__GetLastActivePopup@4 0055b52c     user32:USER32.dll
 0002:00000530       __imp__IsWindow@4          0055b530     user32:USER32.dll
 0002:00000534       __imp__LoadIconA@8         0055b534     user32:USER32.dll
 0002:00000538       __imp__EnableWindow@8      0055b538     user32:USER32.dll
 0002:0000053c       __imp__KillTimer@8         0055b53c     user32:USER32.dll
 0002:00000540       __imp__SetTimer@16         0055b540     user32:USER32.dll
 0002:00000544       __imp__GetClientRect@8     0055b544     user32:USER32.dll
 0002:00000548       __imp__IsIconic@4          0055b548     user32:USER32.dll
 0002:0000054c       __imp__GetSystemMenu@8     0055b54c     user32:USER32.dll
 0002:00000550       __imp__PostMessageA@16     0055b550     user32:USER32.dll
 0002:00000554       __imp__SendMessageA@16     0055b554     user32:USER32.dll
 0002:00000558       __imp__AppendMenuA@16      0055b558     user32:USER32.dll
 0002:0000055c       __imp__DrawIcon@16         0055b55c     user32:USER32.dll
 0002:00000560       __imp__GetSystemMetrics@4  0055b560     user32:USER32.dll
 0002:00000564       __imp__wsprintfA           0055b564     user32:USER32.dll
 0002:00000568       __imp__SetRect@20          0055b568     user32:USER32.dll
 0002:0000056c       __imp__PtInRect@12         0055b56c     user32:USER32.dll
 0002:00000570       __imp__SystemParametersInfoA@16 0055b570     user32:USER32.dll
 0002:00000574       \177USER32_NULL_THUNK_DATA 0055b574     user32:USER32.dll
 0002:00000578       __imp__ClosePrinter@4      0055b578     winspool:WINSPOOL.DRV
 0002:0000057c       __imp__OpenPrinterA@12     0055b57c     winspool:WINSPOOL.DRV
 0002:00000580       __imp__DocumentPropertiesA@24 0055b580     winspool:WINSPOOL.DRV
 0002:00000584       \177WINSPOOL_NULL_THUNK_DATA 0055b584     winspool:WINSPOOL.DRV
 0002:00000588       __imp__closesocket@4       0055b588     ws2_32:WS2_32.dll
 0002:0000058c       __imp__accept@12           0055b58c     ws2_32:WS2_32.dll
 0002:00000590       __imp__WSAEnumNetworkEvents@12 0055b590     ws2_32:WS2_32.dll
 0002:00000594       __imp__WSAEventSelect@12   0055b594     ws2_32:WS2_32.dll
 0002:00000598       __imp__listen@8            0055b598     ws2_32:WS2_32.dll
 0002:0000059c       __imp__getsockopt@20       0055b59c     ws2_32:WS2_32.dll
 0002:000005a0       __imp__bind@12             0055b5a0     ws2_32:WS2_32.dll
 0002:000005a4       __imp__setsockopt@20       0055b5a4     ws2_32:WS2_32.dll
 0002:000005a8       __imp__inet_addr@4         0055b5a8     ws2_32:WS2_32.dll
 0002:000005ac       __imp__htonl@4             0055b5ac     ws2_32:WS2_32.dll
 0002:000005b0       __imp__WSASocketA@24       0055b5b0     ws2_32:WS2_32.dll
 0002:000005b4       __imp__WSAGetLastError@0   0055b5b4     ws2_32:WS2_32.dll
 0002:000005b8       __imp__connect@12          0055b5b8     ws2_32:WS2_32.dll
 0002:000005bc       __imp__WSAGetOverlappedResult@20 0055b5bc     ws2_32:WS2_32.dll
 0002:000005c0       __imp__WSASend@28          0055b5c0     ws2_32:WS2_32.dll
 0002:000005c4       __imp__WSARecv@28          0055b5c4     ws2_32:WS2_32.dll
 0002:000005c8       __imp__inet_ntoa@4         0055b5c8     ws2_32:WS2_32.dll
 0002:000005cc       __imp__WSACreateEvent@0    0055b5cc     ws2_32:WS2_32.dll
 0002:000005d0       __imp__htons@4             0055b5d0     ws2_32:WS2_32.dll
 0002:000005d4       __imp__ntohs@4             0055b5d4     ws2_32:WS2_32.dll
 0002:000005d8       __imp__gethostname@8       0055b5d8     ws2_32:WS2_32.dll
 0002:000005dc       __imp__gethostbyname@4     0055b5dc     ws2_32:WS2_32.dll
 0002:000005e0       __imp__WSAStartup@8        0055b5e0     ws2_32:WS2_32.dll
 0002:000005e4       __imp__WSACleanup@0        0055b5e4     ws2_32:WS2_32.dll
 0002:000005e8       __imp__shutdown@8          0055b5e8     ws2_32:WS2_32.dll
 0002:000005ec       \177WS2_32_NULL_THUNK_DATA 0055b5ec     ws2_32:WS2_32.dll
 0002:000005f0       ___xc_a                    0055b5f0     libcmt:crt0init.obj
 0002:000007cc       ___xc_z                    0055b7cc     libcmt:crt0init.obj
 0002:000007d0       ___xi_a                    0055b7d0     libcmt:crt0init.obj
 0002:000007ec       ___xi_z                    0055b7ec     libcmt:crt0init.obj
 0002:000007f0       ___xp_a                    0055b7f0     libcmt:crt0init.obj
 0002:000007fc       ___xp_z                    0055b7fc     libcmt:crt0init.obj
 0002:00000800       ___xt_a                    0055b800     libcmt:crt0init.obj
 0002:00000804       ___xt_z                    0055b804     libcmt:crt0init.obj
 0002:00000814       ??_7CAccessoriUpTable@@6B@ 0055b814     AccessoriUpTable.obj
 0002:000008a0       ?classCAccessoriUpTableSet@CAccessoriUpTableSet@@2UCRuntimeClass@@B 0055b8a0     AccessoriUpTableSet.obj
 0002:000008c4       ??_7CAccessoriUpTableSet@@6B@ 0055b8c4     AccessoriUpTableSet.obj
 0002:000009c4       ?classCAddEventItemTableSet@CAddEventItemTableSet@@2UCRuntimeClass@@B 0055b9c4     AddEventItemTableSet.obj
 0002:000009e4       ??_7CAddEventItemTableSet@@6B@ 0055b9e4     AddEventItemTableSet.obj
 0002:00000a4c       ??_7CBoxEventTable@@6B@    0055ba4c     BoxEventTable.obj
 0002:00000ad0       ?classCBoxEventTableSet@CBoxEventTableSet@@2UCRuntimeClass@@B 0055bad0     BoxEventTableSet.obj
 0002:00000af4       ??_7CBoxEventTableSet@@6B@ 0055baf4     BoxEventTableSet.obj
 0002:00000b5c       ??_7CBufferEx@@6B@         0055bb5c     BufferEx.obj
 0002:00000b64       ??_7CBSocket@@6B@          0055bb64     CBSocket.obj
 0002:00000b7c       ??_7WAIT_RECV_DATA@@6B@    0055bb7c     CBSocket.obj
 0002:00000b98       ?SID_RING_OF_LIFE@@3FB     0055bb98     CELL.obj
 0002:00000b9c       ?SID_NECKLACE_OF_SHIELD@@3FB 0055bb9c     CELL.obj
 0002:00000ba0       ?SID_EARRING_OF_PROTECT@@3FB 0055bba0     CELL.obj
 0002:00000ba4       ?SID_EARRING_OF_FEIFEI@@3FB 0055bba4     CELL.obj
 0002:00000ba8       ?SID_SHENGREN_JIEZHI@@3FB  0055bba8     CELL.obj
 0002:00000bb0       ??_7?$CTypedPtrArray@VCPtrArray@@PAVItemList@@@@6B@ 0055bbb0     CELL.obj
 0002:00000bc0       ??_7?$CArray@VCPoint@@V1@@@6B@ 0055bbc0     CELL.obj
 0002:00000bd0       ??_7?$CArray@HH@@6B@       0055bbd0     CELL.obj
 0002:00000bf0       ??_7CCircularBuffer@@6B@   0055bbf0     CircularBuffer.obj
 0002:00000df8       ?classCCityNpcTableSet@CCityNpcTableSet@@2UCRuntimeClass@@B 0055bdf8     CityNpcTableSet.obj
 0002:00000e1c       ??_7CCityNpcTableSet@@6B@  0055be1c     CityNpcTableSet.obj
 0002:00001444       ??_7COM@@6B@               0055c444     COM.obj
 0002:00001448       __real@3fe0000000000000    0055c448     COM.obj
 0002:00001450       __real@3ff199999999999a    0055c450     COM.obj
 0002:00001458       ??_C@_0BB@MOGOBHAF@list?$DMT?$DO?5too?5long?$AA@ 0055c458     COM.obj
 0002:00001470       ??_7length_error@std@@6B@  0055c470     COM.obj
 0002:0000147c       ??_7logic_error@std@@6B@   0055c47c     COM.obj
 0002:00001484       ?npos@?$basic_string@DU?$char_traits@D@std@@V?$allocator@D@2@@std@@2IB 0055c484     COM.obj
 0002:0000148c       ??_7bad_alloc@std@@6B@     0055c48c     COM.obj
 0002:00001498       __real@0000000000000000    0055c498     COM.obj
 0002:000014a4       ??_7CCompressManager@@6B@  0055c4a4     Compress.obj
 0002:000014ac       ??_7CCompressData@@6B@     0055c4ac     Compress.obj
 0002:00001604       ?classCDBItemInfo@CDBItemInfo@@2UCRuntimeClass@@B 0055c604     DBItemInfo.obj
 0002:00001624       ??_7CDBItemInfo@@6B@       0055c624     DBItemInfo.obj
 0002:0000168c       ??_7CDNTable@@6B@          0055c68c     DNTable.obj
 0002:000016f4       ?classCDNTableSet@CDNTableSet@@2UCRuntimeClass@@B 0055c6f4     DNTableSet.obj
 0002:00001714       ??_7CDNTableSet@@6B@       0055c714     DNTableSet.obj
 0002:00001908       ?classCDressingSet@CDressingSet@@2UCRuntimeClass@@B 0055c908     DressingSet.obj
 0002:0000192c       ??_7CDressingSet@@6B@      0055c92c     DressingSet.obj
 0002:00001994       ??_7CEBodyIdentifyTable@@6B@ 0055c994     EBodyIdentifyTable.obj
 0002:000019f8       ?classCEBodyIdentifyTableSet@CEBodyIdentifyTableSet@@2UCRuntimeClass@@B 0055c9f8     EBodyIdentifyTableSet.obj
 0002:00001a1c       ??_7CEBodyIdentifyTableSet@@6B@ 0055ca1c     EBodyIdentifyTableSet.obj
 0002:00001ae4       ?classCEBodyStoreSet@CEBodyStoreSet@@2UCRuntimeClass@@B 0055cae4     EBodyStoreSet.obj
 0002:00001b04       ??_7CEBodyStoreSet@@6B@    0055cb04     EBodyStoreSet.obj
 0002:00001b6c       ??_7CEBodyTable@@6B@       0055cb6c     EBodyTable.obj
 0002:00001c28       ?classCEBodyTableSet@CEBodyTableSet@@2UCRuntimeClass@@B 0055cc28     EBodyTableSet.obj
 0002:00001c4c       ??_7CEBodyTableSet@@6B@    0055cc4c     EBodyTableSet.obj
 0002:00001cb4       ??_7CEBodyUpgradeTable@@6B@ 0055ccb4     EBodyUpgradeTable.obj
 0002:00001d34       ?classCEBodyUpgradeTableSet@CEBodyUpgradeTableSet@@2UCRuntimeClass@@B 0055cd34     EBodyUpgradeTableSet.obj
 0002:00001d54       ??_7CEBodyUpgradeTableSet@@6B@ 0055cd54     EBodyUpgradeTableSet.obj
 0002:00001ea0       ?classCErrorLog@CErrorLog@@2UCRuntimeClass@@B 0055cea0     ErrorLog.obj
 0002:00001ec4       ??_7CErrorLog@@6B@         0055cec4     ErrorLog.obj
 0002:00001f70       ??_7EVENT@@6B@             0055cf70     EVENT.obj
 0002:00001f78       ??_7?$CTypedPtrArray@VCPtrArray@@PAVEVENT_DATA@@@@6B@ 0055cf78     EVENT.obj
 0002:00001f88       ??_7EVENT_DATA@@6B@        0055cf88     EVENT_DATA.obj
 0002:00001f90       ??_7?$CTypedPtrArray@VCPtrArray@@PAVLOGIC@@@@6B@ 0055cf90     EVENT_DATA.obj
 0002:00001fa0       ??_7?$CTypedPtrArray@VCPtrArray@@PAVEXEC@@@@6B@ 0055cfa0     EVENT_DATA.obj
 0002:00001fb0       ??_7?$CTypedPtrArray@VCPtrArray@@PAVLOGIC_ELSE@@@@6B@ 0055cfb0     EVENT_DATA.obj
 0002:00001fc0       ??_7CEventBlockingTable@@6B@ 0055cfc0     EventBlockingTable.obj
 0002:00001fc8       ??_7?$CTypedPtrArray@VCPtrArray@@PAU_EVENT@@@@6B@ 0055cfc8     EventBlockingTable.obj
 0002:00001fd8       ??_7CEventItemNew@@6B@     0055cfd8     EventItemNew.obj
 0002:00001fe0       ??_7CEventItemTable@@6B@   0055cfe0     EventItemTable.obj
 0002:00002074       ?classCEventItemTableSet@CEventItemTableSet@@2UCRuntimeClass@@B 0055d074     EventItemTableSet.obj
 0002:00002094       ??_7CEventItemTableSet@@6B@ 0055d094     EventItemTableSet.obj
 0002:0000210c       ??_7CEventZone@@6B@        0055d10c     EventZone.obj
 0002:00002718       ??_7EXEC@@6B@              0055d718     EXEC.obj
 0002:00002738       __real@40dfffc000000000    0055d738     global.obj
 0002:00002744       ??_7CGuild@@6B@            0055d744     Guild.obj
 0002:0000275c       ??_7CGuildFortress@@6B@    0055d75c     GuildFortress.obj
 0002:0000289c       ?classCGuildFortressSet@CGuildFortressSet@@2UCRuntimeClass@@B 0055d89c     GuildFortressSet.obj
 0002:000028bc       ??_7CGuildFortressSet@@6B@ 0055d8bc     GuildFortressSet.obj
 0002:00002a30       ?classCGuildFortressTaxSet@CGuildFortressTaxSet@@2UCRuntimeClass@@B 0055da30     GuildFortressTaxSet.obj
 0002:00002a54       ??_7CGuildFortressTaxSet@@6B@ 0055da54     GuildFortressTaxSet.obj
 0002:00002b04       ??_7CGuildHouse@@6B@       0055db04     GuildHouse.obj
 0002:00002bb0       ?classCGuildHouseRankSet@CGuildHouseRankSet@@2UCRuntimeClass@@B 0055dbb0     GuildHouseRankSet.obj
 0002:00002bd4       ??_7CGuildHouseRankSet@@6B@ 0055dbd4     GuildHouseRankSet.obj
 0002:00002cbc       ?classCGuildHouseSet@CGuildHouseSet@@2UCRuntimeClass@@B 0055dcbc     GuildHouseSet.obj
 0002:00002cdc       ??_7CGuildHouseSet@@6B@    0055dcdc     GuildHouseSet.obj
 0002:00002e04       ??_7CGuildHouseWar@@6B@    0055de04     GuildHouseWar.obj
 0002:00002e98       ?classCGuildMapInfoSet@CGuildMapInfoSet@@2UCRuntimeClass@@B 0055de98     GuildMapInfoSet.obj
 0002:00002ebc       ??_7CGuildMapInfoSet@@6B@  0055debc     GuildMapInfoSet.obj
 0002:00002f24       ??_7CGuildMapInfoTable@@6B@ 0055df24     GuildMapInfoTable.obj
 0002:0000300c       ?classCGuildStoreSet@CGuildStoreSet@@2UCRuntimeClass@@B 0055e00c     GuildStoreSet.obj
 0002:0000302c       ??_7CGuildStoreSet@@6B@    0055e02c     GuildStoreSet.obj
 0002:00003094       ??_7CGuildStoreTable@@6B@  0055e094     GuildStoreTable.obj
 0002:0000309c       ??_7CGuildUser@@6B@        0055e09c     GuildUser.obj
 0002:000030a4       ??_7CHyper@@6B@            0055e0a4     Hyper.obj
 0002:0000311c       ?classCInitItemTableSet@CInitItemTableSet@@2UCRuntimeClass@@B 0055e11c     InitItemTableSet.obj
 0002:0000313c       ??_7CInitItemTableSet@@6B@ 0055e13c     InitItemTableSet.obj
 0002:000031b4       ??_7?$CTypedPtrArray@VCPtrArray@@PAI@@6B@ 0055e1b4     IOCPBASE.obj
 0002:000031c4       ??_7?$CTypedPtrArray@VCPtrArray@@PAPAX@@6B@ 0055e1c4     IOCPBASE.obj
 0002:000031d4       ??_7?$CTypedPtrArray@VCPtrArray@@PAU_ThreadPacket@@@@6B@ 0055e1d4     IOCPBASE.obj
 0002:000031e8       ??_7CIOCPSocket@@6B@       0055e1e8     IOCPSocket.obj
 0002:00003204       ??_7Item@@6B@              0055e204     Item.obj
 0002:000033c0       ?classCItemTableSet@CItemTableSet@@2UCRuntimeClass@@B 0055e3c0     ItemTableSet.obj
 0002:000033e4       ??_7CItemTableSet@@6B@     0055e3e4     ItemTableSet.obj
 0002:000034b8       ?classCLevelUpTableSet@CLevelUpTableSet@@2UCRuntimeClass@@B 0055e4b8     LevelUpTableSet.obj
 0002:000034dc       ??_7CLevelUpTableSet@@6B@  0055e4dc     LevelUpTableSet.obj
 0002:00003550       ??_7LOGIC@@6B@             0055e550     LOGIC.obj
 0002:00003710       ??_7LOGIC_ELSE@@6B@        0055e710     LOGIC_ELSE.obj
 0002:00003718       ??_7CMagicItemTable@@6B@   0055e718     MagicItemTable.obj
 0002:000037f4       ?classCMagicItemTableSet@CMagicItemTableSet@@2UCRuntimeClass@@B 0055e7f4     MagicItemTableSet.obj
 0002:00003814       ??_7CMagicItemTableSet@@6B@ 0055e814     MagicItemTableSet.obj
 0002:000038cc       ??_7MapInfo@@6B@           0055e8cc     MAP.obj
 0002:000038d4       ??_7MAP@@6B@               0055e8d4     MAP.obj
 0002:000038dc       ??_7?$CTypedPtrArray@VCPtrArray@@PAH@@6B@ 0055e8dc     MAP.obj
 0002:000038ec       ??_7MarkChouJiang@@6B@     0055e8ec     MarkChouJiang.obj
 0002:000038f4       ??_7MarkGMIni@@6B@         0055e8f4     MarkGMIni.obj
 0002:000038fc       ??_7MarkGonggao@@6B@       0055e8fc     MarkGonggao.obj
 0002:00003904       ??_7MarkIni@@6B@           0055e904     MarkIni.obj
 0002:0000390c       ??_7MarkPay@@6B@           0055e90c     MarkPay.obj
 0002:00003978       ?classCMechanicStoreSet@CMechanicStoreSet@@2UCRuntimeClass@@B 0055e978     MechanicStoreSet.obj
 0002:0000399c       ??_7CMechanicStoreSet@@6B@ 0055e99c     MechanicStoreSet.obj
 0002:00003a98       ?classCMonsterPsiSet@CMonsterPsiSet@@2UCRuntimeClass@@B 0055ea98     MonsterPsiSet.obj
 0002:00003abc       ??_7CMonsterPsiSet@@6B@    0055eabc     MonsterPsiSet.obj
 0002:00003b28       ??_7CMyDB@@6B@             0055eb28     MyDB.obj
 0002:00003b30       ??_7?$CTypedPtrArray@VCPtrArray@@PAU_DB_CONNECTION@@@@6B@ 0055eb30     MyDB.obj
 0002:000040a4       ??_7CNpc@@6B@              0055f0a4     Npc.obj
 0002:000040a8       __real@4051800000000000    0055f0a8     Npc.obj
 0002:000040b0       __real@402e000000000000    0055f0b0     Npc.obj
 0002:000040b8       __real@403e000000000000    0055f0b8     Npc.obj
 0002:000040c0       __real@4024000000000000    0055f0c0     Npc.obj
 0002:000040c8       __real@3fe999999999999a    0055f0c8     Npc.obj
 0002:000040d0       __real@3f847ae147ae147b    0055f0d0     Npc.obj
 0002:000040d8       __real@3f9eb851eb851eb8    0055f0d8     Npc.obj
 0002:000040e0       __real@3f947ae147ae147b    0055f0e0     Npc.obj
 0002:000040e8       __real@3fa999999999999a    0055f0e8     Npc.obj
 0002:000040f0       __real@3fc3333333333333    0055f0f0     Npc.obj
 0002:000040f8       __real@3fb999999999999a    0055f0f8     Npc.obj
 0002:00004100       __real@3fd3333333333333    0055f100     Npc.obj
 0002:00004108       __real@3fc999999999999a    0055f108     Npc.obj
 0002:00004110       __real@3ff0000000000000    0055f110     Npc.obj
 0002:00004118       __real@4049000000000000    0055f118     Npc.obj
 0002:00004120       __real@3ff8000000000000    0055f120     Npc.obj
 0002:00004128       __real@3fd0000000000000    0055f128     Npc.obj
 0002:00004130       __real@3fd6666666666666    0055f130     Npc.obj
 0002:00004138       __real@4008000000000000    0055f138     Npc.obj
 0002:00004140       __real@4059000000000000    0055f140     Npc.obj
 0002:0000414c       ??_7CNpcChat@@6B@          0055f14c     NpcChat.obj
 0002:000041b8       ?classCNpcChatSet@CNpcChatSet@@2UCRuntimeClass@@B 0055f1b8     NpcChatSet.obj
 0002:000041dc       ??_7CNpcChatSet@@6B@       0055f1dc     NpcChatSet.obj
 0002:000044c8       ?classCNpcItemSet@CNpcItemSet@@2UCRuntimeClass@@B 0055f4c8     NpcItemSet.obj
 0002:000044ec       ??_7CNpcItemSet@@6B@       0055f4ec     NpcItemSet.obj
 0002:00004658       ?classCNpcPosSet@CNpcPosSet@@2UCRuntimeClass@@B 0055f658     NpcPosSet.obj
 0002:0000467c       ??_7CNpcPosSet@@6B@        0055f67c     NpcPosSet.obj
 0002:00004748       ?classCNpcSayEventSet@CNpcSayEventSet@@2UCRuntimeClass@@B 0055f748     NpcSayEventSet.obj
 0002:0000476c       ??_7CNpcSayEventSet@@6B@   0055f76c     NpcSayEventSet.obj
 0002:000047d8       ??_7CNpcSayTable@@6B@      0055f7d8     NpcSayTable.obj
 0002:000047e0       ??_7CNpcTable@@6B@         0055f7e0     NpcTable.obj
 0002:000049e8       ?classCNpcTableSet@CNpcTableSet@@2UCRuntimeClass@@B 0055f9e8     NpcTableSet.obj
 0002:00004a0c       ??_7CNpcTableSet@@6B@      0055fa0c     NpcTableSet.obj
 0002:00004a8c       ??_7CNpcThread@@6B@        0055fa8c     NpcThread.obj
 0002:00004a94       ??_7OnlineShop@@6B@        0055fa94     OnlineShop.obj
 0002:00004ae8       ?classCPAMAExpSet@CPAMAExpSet@@2UCRuntimeClass@@B 0055fae8     PAMAExpSet.obj
 0002:00004b0c       ??_7CPAMAExpSet@@6B@       0055fb0c     PAMAExpSet.obj
 0002:00004b74       ??_7?$CList@VCPoint@@V1@@@6B@ 0055fb74     Path.obj
 0002:00004b84       ??_7CPathFind@@6B@         0055fb84     PathFind.obj
 0002:00004b8c       ??_7CResourceArray@@6B@    0055fb8c     PoolBase.obj
 0002:00004c04       ?classCPsiStoreSet@CPsiStoreSet@@2UCRuntimeClass@@B 0055fc04     PsiStoreSet.obj
 0002:00004c24       ??_7CPsiStoreSet@@6B@      0055fc24     PsiStoreSet.obj
 0002:00004d88       ?classCPsiTableSet@CPsiTableSet@@2UCRuntimeClass@@B 0055fd88     PsiTableSet.obj
 0002:00004dac       ??_7CPsiTableSet@@6B@      0055fdac     PsiTableSet.obj
 0002:00004e14       ??_7CRecover@@6B@          0055fe14     Recover.obj
 0002:00004e1c       ??_7CRecoverRate@@6B@      0055fe1c     RecoverRate.obj
 0002:00004ef4       ?classCRecoverRateSet@CRecoverRateSet@@2UCRuntimeClass@@B 0055fef4     RecoverRateSet.obj
 0002:00004f14       ??_7CRecoverRateSet@@6B@   0055ff14     RecoverRateSet.obj
 0002:00005008       ?classCRecoverSet@CRecoverSet@@2UCRuntimeClass@@B 00560008     RecoverSet.obj
 0002:0000502c       ??_7CRecoverSet@@6B@       0056002c     RecoverSet.obj
 0002:0000514c       ?classCRemodeling02TableSet@CRemodeling02TableSet@@2UCRuntimeClass@@B 0056014c     Remodeling02TableSet.obj
 0002:0000516c       ??_7CRemodeling02TableSet@@6B@ 0056016c     Remodeling02TableSet.obj
 0002:0000528c       ?classCRemodeling03TableSet@CRemodeling03TableSet@@2UCRuntimeClass@@B 0056028c     Remodeling03TableSet.obj
 0002:000052ac       ??_7CRemodeling03TableSet@@6B@ 005602ac     Remodeling03TableSet.obj
 0002:00005314       ??_7CRemodelingTable@@6B@  00560314     RemodelingTable.obj
 0002:000053d4       ?classCRemodelingTableSet@CRemodelingTableSet@@2UCRuntimeClass@@B 005603d4     RemodelingTableSet.obj
 0002:000053f4       ??_7CRemodelingTableSet@@6B@ 005603f4     RemodelingTableSet.obj
 0002:000057e4       ??_7CRoyalRumble@@6B@      005607e4     RoyalRumble.obj
 0002:000057ec       ??_7?$CTypedPtrArray@VCPtrArray@@PAVCRoyalRumbleUser@@@@6B@ 005607ec     RoyalRumble.obj
 0002:000057fc       ??_7CRoyalRumbleUser@@6B@  005607fc     RoyalRumbleUser.obj
 0002:00005804       ??_7CSearch@@6B@           00560804     Search.obj
 0002:0000580c       ??_7?$CSearchBase@VUSER@@@@6B@ 0056080c     Search.obj
 0002:000058b4       ??_7CServerApp@@6B@        005608b4     Server.obj
 0002:00007fc4       ??_7CAboutDlg@@6B@         00562fc4     ServerDlg.obj
 0002:00008134       ??_7CServerDlg@@6B@        00563134     ServerDlg.obj
 0002:00008394       ??_7?$CTypedPtrArray@VCPtrArray@@PAU_StoreDB@@@@6B@ 00563394     ServerDlg.obj
 0002:000083a4       ??_7CStatic@@6B@           005633a4     ServerDlg.obj
 0002:000084ec       ??_7?$CTypedPtrArray@VCPtrArray@@PAVCSharedMemory@@@@6B@ 005634ec     ServerDlg.obj
 0002:000084fc       ??_7?$CTypedPtrArray@VCPtrArray@@PAVTableItem@@@@6B@ 005634fc     ServerDlg.obj
 0002:0000850c       ??_7?$CTypedPtrArray@VCPtrArray@@PAVMarkIni@@@@6B@ 0056350c     ServerDlg.obj
 0002:0000851c       ??_7?$CTypedPtrArray@VCPtrArray@@PAVMarkGMIni@@@@6B@ 0056351c     ServerDlg.obj
 0002:0000852c       ??_7?$CTypedPtrArray@VCPtrArray@@PAVSERVERINFO@@@@6B@ 0056352c     ServerDlg.obj
 0002:0000853c       ??_7?$CTypedPtrArray@VCPtrArray@@PAVMAP@@@@6B@ 0056353c     ServerDlg.obj
 0002:0000854c       ??_7?$CTypedPtrArray@VCPtrArray@@PAVCELL@@@@6B@ 0056354c     ServerDlg.obj
 0002:0000855c       ??_7?$CTypedPtrArray@VCPtrArray@@PAVEVENT@@@@6B@ 0056355c     ServerDlg.obj
 0002:0000856c       ??_7?$CTypedPtrArray@VCPtrArray@@PAVCNpcTable@@@@6B@ 0056356c     ServerDlg.obj
 0002:0000857c       ??_7?$CTypedPtrArray@VCPtrArray@@PAVCNpcThread@@@@6B@ 0056357c     ServerDlg.obj
 0002:0000858c       ??_7?$CTypedPtrArray@VCPtrArray@@PAVCItemTable@@@@6B@ 0056358c     ServerDlg.obj
 0002:0000859c       ??_7?$CTypedPtrArray@VCPtrArray@@PAVCSkillTable@@@@6B@ 0056359c     ServerDlg.obj
 0002:000085ac       ??_7?$CTypedPtrArray@VCPtrArray@@PAVCPsiTable@@@@6B@ 005635ac     ServerDlg.obj
 0002:000085bc       ??_7?$CTypedPtrArray@VCPtrArray@@PAVCLevelUpTable@@@@6B@ 005635bc     ServerDlg.obj
 0002:000085cc       ??_7?$CTypedPtrArray@VCPtrArray@@PAVCPAMAExp@@@@6B@ 005635cc     ServerDlg.obj
 0002:000085dc       ??_7?$CTypedPtrArray@VCPtrArray@@PAVCStore@@@@6B@ 005635dc     ServerDlg.obj
 0002:000085ec       ??_7?$CTypedPtrArray@VCPtrArray@@PAVCNpcChat@@@@6B@ 005635ec     ServerDlg.obj
 0002:000085fc       ??_7?$CTypedPtrArray@VCPtrArray@@PAU_WEATHER_INFO@@@@6B@ 005635fc     ServerDlg.obj
 0002:0000860c       ??_7?$CTypedPtrArray@VCPtrArray@@PAU_ZONEINFO@@@@6B@ 0056360c     ServerDlg.obj
 0002:0000861c       ??_7?$CTypedPtrArray@VCPtrArray@@PAU_TOWNPOTAL@@@@6B@ 0056361c     ServerDlg.obj
 0002:0000862c       ??_7?$CTypedPtrArray@VCPtrArray@@PAU_INITITEMTABLE@@@@6B@ 0056362c     ServerDlg.obj
 0002:0000863c       ??_7?$CTypedPtrArray@VCPtrArray@@PAVCMagicItemTable@@@@6B@ 0056363c     ServerDlg.obj
 0002:0000864c       ??_7?$CTypedPtrArray@VCPtrArray@@PAVCAccessoriUpTable@@@@6B@ 0056364c     ServerDlg.obj
 0002:0000865c       ??_7?$CTypedPtrArray@VCPtrArray@@PAVCRemodelingTable@@@@6B@ 0056365c     ServerDlg.obj
 0002:0000866c       ??_7?$CTypedPtrArray@VCPtrArray@@PAVCBoxEventTable@@@@6B@ 0056366c     ServerDlg.obj
 0002:0000867c       ??_7?$CTypedPtrArray@VCPtrArray@@PAVCSummonTable@@@@6B@ 0056367c     ServerDlg.obj
 0002:0000868c       ??_7?$CTypedPtrArray@VCPtrArray@@PAVCNpc@@@@6B@ 0056368c     ServerDlg.obj
 0002:0000869c       ??_7?$CTypedPtrArray@VCPtrArray@@PAVCRecover@@@@6B@ 0056369c     ServerDlg.obj
 0002:000086ac       ??_7?$CTypedPtrArray@VCPtrArray@@PAVCRecoverRate@@@@6B@ 005636ac     ServerDlg.obj
 0002:000086bc       ??_7?$CTypedPtrArray@VCPtrArray@@PAVCDNTable@@@@6B@ 005636bc     ServerDlg.obj
 0002:000086cc       ??_7?$CTypedPtrArray@VCPtrArray@@PAVCGuild@@@@6B@ 005636cc     ServerDlg.obj
 0002:000086dc       ??_7?$CTypedPtrArray@VCPtrArray@@PAVCGuildUser@@@@6B@ 005636dc     ServerDlg.obj
 0002:000086ec       ??_7?$CTypedPtrArray@VCPtrArray@@PAVCEBodyTable@@@@6B@ 005636ec     ServerDlg.obj
 0002:000086fc       ??_7?$CTypedPtrArray@VCPtrArray@@PAVCEBodyUpgradeTable@@@@6B@ 005636fc     ServerDlg.obj
 0002:0000870c       ??_7?$CTypedPtrArray@VCPtrArray@@PAVCEBodyIdentifyTable@@@@6B@ 0056370c     ServerDlg.obj
 0002:0000871c       ??_7?$CTypedPtrArray@VCPtrArray@@PAVOnlineShop@@@@6B@ 0056371c     ServerDlg.obj
 0002:0000872c       ??_7?$CTypedPtrArray@VCPtrArray@@PAVVIPPay@@@@6B@ 0056372c     ServerDlg.obj
 0002:0000873c       ??_7?$CTypedPtrArray@VCPtrArray@@PAVMarkPay@@@@6B@ 0056373c     ServerDlg.obj
 0002:0000874c       ??_7?$CTypedPtrArray@VCPtrArray@@PAVMarkGonggao@@@@6B@ 0056374c     ServerDlg.obj
 0002:0000875c       ??_7?$CTypedPtrArray@VCPtrArray@@PAVMarkChouJiang@@@@6B@ 0056375c     ServerDlg.obj
 0002:0000876c       ??_7?$CTypedPtrArray@VCPtrArray@@PAVCGuildMapInfoTable@@@@6B@ 0056376c     ServerDlg.obj
 0002:0000877c       ??_7?$CTypedPtrArray@VCPtrArray@@PAVCGuildHouseWar@@@@6B@ 0056377c     ServerDlg.obj
 0002:0000878c       ??_7?$CTypedPtrArray@VCPtrArray@@PAVCVirtualRoom@@@@6B@ 0056378c     ServerDlg.obj
 0002:0000879c       ??_7?$CTypedPtrArray@VCPtrArray@@PAVCGuildHouse@@@@6B@ 0056379c     ServerDlg.obj
 0002:000087ac       ??_7?$CTypedPtrArray@VCPtrArray@@PAVCUserLevelUpTable@@@@6B@ 005637ac     ServerDlg.obj
 0002:000087bc       ??_7?$CTypedPtrArray@VCPtrArray@@PAVCEventItemTable@@@@6B@ 005637bc     ServerDlg.obj
 0002:000087cc       ??_7?$CTypedPtrArray@VCPtrArray@@PAVCEventItemNew@@@@6B@ 005637cc     ServerDlg.obj
 0002:000087dc       ??_7?$CTypedPtrArray@VCPtrArray@@PAVCNpcSayTable@@@@6B@ 005637dc     ServerDlg.obj
 0002:000087ec       ??_7?$CTypedPtrArray@VCPtrArray@@PAVCGuildFortress@@@@6B@ 005637ec     ServerDlg.obj
 0002:000087fc       ??_7?$CTypedPtrArray@VCPtrArray@@PAVCMonsterPsi@@@@6B@ 005637fc     ServerDlg.obj
 0002:0000880c       ??_7?$CTypedPtrArray@VCPtrArray@@PAU_DRESSING_DATA@@@@6B@ 0056380c     ServerDlg.obj
 0002:00008854       ??_7SERVERINFO@@6B@        00563854     SERVERINFO.obj
 0002:0000885c       ??_7CSharedMemory@@6B@     0056385c     SharedMemory.obj
 0002:000088ac       ??_7CInstanceChecker@@6B@  005638ac     sinstance.obj
 0002:00008950       ?classCSkillTableSet@CSkillTableSet@@2UCRuntimeClass@@B 00563950     SkillTableSet.obj
 0002:00008974       ??_7CSkillTableSet@@6B@    00563974     SkillTableSet.obj
 0002:000089ec       ??_7CSockResourceArray@@6B@ 005639ec     SResourceArray.obj
 0002:00008a18       ??_7CSSocket@@6B@          00563a18     SSocket.obj
 0002:00008aa8       __real@414b964c80000000    00563aa8     Store.obj
 0002:00008ab0       __real@c14b964c80000000    00563ab0     Store.obj
 0002:00008b20       ?classCStoreRepairSet@CStoreRepairSet@@2UCRuntimeClass@@B 00563b20     StoreRepairSet.obj
 0002:00008b44       ??_7CStoreRepairSet@@6B@   00563b44     StoreRepairSet.obj
 0002:00008c0c       ?classCStoreSellSet@CStoreSellSet@@2UCRuntimeClass@@B 00563c0c     StoreSellSet.obj
 0002:00008c2c       ??_7CStoreSellSet@@6B@     00563c2c     StoreSellSet.obj
 0002:00008cec       ?classCStoreSet@CStoreSet@@2UCRuntimeClass@@B 00563cec     StoreSet.obj
 0002:00008d0c       ??_7CStoreSet@@6B@         00563d0c     StoreSet.obj
 0002:00008d78       ??_7CSummonTable@@6B@      00563d78     SummonTable.obj
 0002:00008d80       ??_7TableItem@@6B@         00563d80     TableItem.obj
 0002:00008d88       ??_7CThrowItem@@6B@        00563d88     ThrowItem.obj
 0002:00008e34       ?classCTownPotalTableSet@CTownPotalTableSet@@2UCRuntimeClass@@B 00563e34     TownPotalTableSet.obj
 0002:00008e54       ??_7CTownPotalTableSet@@6B@ 00563e54     TownPotalTableSet.obj
 0002:00008fcc       ??_7UNI_CHAR@@6B@          00563fcc     UNI_CHAR.obj
 0002:00008fe4       ??_7CUserResourceArray@@6B@ 00563fe4     UResourceArray.obj
 0002:0000b244       ??_7USER@@6B@              00566244     USER.obj
 0002:0000b264       ??_7?$CTypedPtrArray@VCPtrArray@@PAUExchangeItem@@@@6B@ 00566264     USER.obj
 0002:0000b274       ??_7?$CTypedPtrArray@VCPtrArray@@PAUShopItem@@@@6B@ 00566274     USER.obj
 0002:0000b284       ??_7?$CTypedPtrArray@VCPtrArray@@PAU_ITEMLOG@@@@6B@ 00566284     USER.obj
 0002:0000b290       __real@3fb70a3d70a3d70a    00566290     USER.obj
 0002:0000b298       __real@3fb47ae147ae147b    00566298     USER.obj
 0002:0000b2a0       __real@3fb1eb851eb851ec    005662a0     USER.obj
 0002:0000b2a8       __real@3faeb851eb851eb8    005662a8     USER.obj
 0002:0000b2b0       __real@3fa47ae147ae147b    005662b0     USER.obj
 0002:0000b2b8       __real@3fe6666666666666    005662b8     USER.obj
 0002:0000b2c0       __real@4014000000000000    005662c0     USER.obj
 0002:0000b2c8       __real@3fd999999999999a    005662c8     USER.obj
 0002:0000b2d0       __real@4000000000000000    005662d0     USER.obj
 0002:0000b2d8       __real@404e000000000000    005662d8     USER.obj
 0002:0000b2e0       __real@3feff7ced916872b    005662e0     USER.obj
 0002:0000b2e8       __real@3feccccccccccccd    005662e8     USER.obj
 0002:0000b2f0       __real@3ff999999999999a    005662f0     USER.obj
 0002:0000b2f8       __real@3ff3333333333333    005662f8     USER.obj
 0002:0000b300       __real@4011333333333333    00566300     USER.obj
 0002:0000b308       __real@400199999999999a    00566308     USER.obj
 0002:0000b310       __real@3fdccccccccccccd    00566310     USER.obj
 0002:0000b318       __real@3ff6666666666666    00566318     USER.obj
 0002:0000b320       __real@4010000000000000    00566320     USER.obj
 0002:0000b328       __real@4004000000000000    00566328     USER.obj
 0002:0000b330       __real@3ff0cccccccccccd    00566330     USER.obj
 0002:0000fc24       ??_7?$CTypedPtrArray@VCPtrArray@@PAU_DRESSING_RESULT@@@@6B@ 0056ac24     USER2.obj
 0002:0000fc30       __real@3fc70a3d70a3d70a    0056ac30     USER2.obj
 0002:0000fc38       __real@4069000000000000    0056ac38     USER2.obj
 0002:0000fc40       __real@4039000000000000    0056ac40     USER2.obj
 0002:0000fc48       __real@4032000000000000    0056ac48     USER2.obj
 0002:0000fc50       __real@4028000000000000    0056ac50     USER2.obj
 0002:0000fc58       __real@4034000000000000    0056ac58     USER2.obj
 0002:0000fcf0       ?classCUserLevelUpSet@CUserLevelUpSet@@2UCRuntimeClass@@B 0056acf0     UserLevelUpSet.obj
 0002:0000fd14       ??_7CUserLevelUpSet@@6B@   0056ad14     UserLevelUpSet.obj
 0002:0000fd7c       ??_7CUserLevelUpTable@@6B@ 0056ad7c     UserLevelUpTable.obj
 0002:0000fd84       ??_7CValItemTable@@6B@     0056ad84     ValItemTable.obj
 0002:0000fea0       ?classCValItemTableSet@CValItemTableSet@@2UCRuntimeClass@@B 0056aea0     ValItemTableSet.obj
 0002:0000fec4       ??_7CValItemTableSet@@6B@  0056aec4     ValItemTableSet.obj
 0002:0000ff2c       ??_7VIPPay@@6B@            0056af2c     VIPPay.obj
 0002:0000ff34       ??_7CVirtualRoom@@6B@      0056af34     VirtualRoom.obj
 0002:0000ffec       ?classCZoneInfoSet@CZoneInfoSet@@2UCRuntimeClass@@B 0056afec     ZoneInfoSet.obj
 0002:0001000c       ??_7CZoneInfoSet@@6B@      0056b00c     ZoneInfoSet.obj
 0002:00010070       ??_C@_0L@KDIEHNHL@CWordArray?$AA@ 0056b070     nafxcw:array_w.obj
 0002:00010080       ??_7CWordArray@@6B@        0056b080     nafxcw:array_w.obj
 0002:0001008c       ??_C@_0L@FMAPPDL@CRecordset?$AA@ 0056b08c     nafxcw:dbcore.obj
 0002:00010098       ??_C@_09DBNAMGD@CDatabase?$AA@ 0056b098     nafxcw:dbcore.obj
 0002:000100a4       ??_C@_0N@CEDIPJ@CDBException?$AA@ 0056b0a4     nafxcw:dbcore.obj
 0002:000100b4       ?_afxODBCTrail@@3QBDB      0056b0b4     nafxcw:dbcore.obj
 0002:000100bc       ?_afxComma@@3QBDB          0056b0bc     nafxcw:dbcore.obj
 0002:000100bc       ??_C@_01IHBHIGKO@?0?$AA@   0056b0bc     nafxcw:dbcore.obj
 0002:000100c0       ?_afxCall@@3QBDB           0056b0c0     nafxcw:dbcore.obj
 0002:000100c8       ?_afxParamCall@@3QBDB      0056b0c8     nafxcw:dbcore.obj
 0002:000100cc       ?_afxSelect@@3QBDB         0056b0cc     nafxcw:dbcore.obj
 0002:000100d4       ?_afxFrom@@3QBDB           0056b0d4     nafxcw:dbcore.obj
 0002:000100dc       ?_afxWhere@@3QBDB          0056b0dc     nafxcw:dbcore.obj
 0002:000100e4       ?_afxOrderBy@@3QBDB        0056b0e4     nafxcw:dbcore.obj
 0002:000100f0       ?_afxForUpdate@@3QBDB      0056b0f0     nafxcw:dbcore.obj
 0002:00010100       ?_afxRowFetch@@3QBDB       0056b100     nafxcw:dbcore.obj
 0002:0001010c       ?_afxDataTruncated@@3QBDB  0056b10c     nafxcw:dbcore.obj
 0002:00010118       ?_afxOutOfSequence@@3QBDB  0056b118     nafxcw:dbcore.obj
 0002:00010124       ?_afxDriverNotCapable@@3QBDB 0056b124     nafxcw:dbcore.obj
 0002:00010170       ?classCDBException@CDBException@@2UCRuntimeClass@@B 0056b170     nafxcw:dbcore.obj
 0002:0001018c       ?classCDatabase@CDatabase@@2UCRuntimeClass@@B 0056b18c     nafxcw:dbcore.obj
 0002:000101a8       ?classCRecordset@CRecordset@@2UCRuntimeClass@@B 0056b1a8     nafxcw:dbcore.obj
 0002:000101c8       ??_7_AFX_DB_STATE@@6B@     0056b1c8     nafxcw:dbcore.obj
 0002:000101d0       ??_7CDBException@@6B@      0056b1d0     nafxcw:dbcore.obj
 0002:000101f0       ??_7CDatabase@@6B@         0056b1f0     nafxcw:dbcore.obj
 0002:00010218       ??_C@_0L@LBHJMCDF@?$CFs?5?$CI?$CFs?3?$CFd?$CJ?$AA@ 0056b218     nafxcw:dbcore.obj
 0002:00010224       ??_C@_0O@KHJMBFME@?$CFs?5?$CI?$CFs?3?$CFd?$CJ?6?$CFs?$AA@ 0056b224     nafxcw:dbcore.obj
 0002:00010234       ??_C@_0BP@OIEOKIDM@Exception?5thrown?5in?5destructor?$AA@ 0056b234     nafxcw:dbcore.obj
 0002:00010254       ??_C@_0DF@HCIJKPIA@f?3?2dd?2vctools?2vc7libs?2ship?2atlmf@ 0056b254     nafxcw:dbcore.obj
 0002:00010294       ??_7CRecordset@@6B@        0056b294     nafxcw:dbcore.obj
 0002:000102f8       ??_C@_00CNPNBAHC@?$AA@     0056b2f8     nafxcw:dbcore.obj
 0002:000102fc       ??_C@_06MLKHCCPI@State?3?$AA@ 0056b2fc     nafxcw:dbcore.obj
 0002:00010304       ??_C@_0BE@MCIMJKJH@?0Native?3?$CFld?0Origin?3?$AA@ 0056b304     nafxcw:dbcore.obj
 0002:00010318       ??_C@_05OAGAMKLF@00000?$AA@ 0056b318     nafxcw:dbcore.obj
 0002:00010320       ??_C@_01EEMJAFIK@?6?$AA@   0056b320     nafxcw:dbcore.obj
 0002:00010324       ??_C@_05EEKHBPID@?$DLDSN?$DN?$AA@ 0056b324     nafxcw:dbcore.obj
 0002:0001032c       ??_C@_0BD@GHFLPBME@?5WHERE?5CURRENT?5OF?5?$AA@ 0056b32c     nafxcw:dbcore.obj
 0002:00010340       ??_C@_0N@LFKDCHID@DELETE?5FROM?5?$AA@ 0056b340     nafxcw:dbcore.obj
 0002:00010350       ??_C@_05GENJOELA@?5SET?5?$AA@ 0056b350     nafxcw:dbcore.obj
 0002:00010358       ??_C@_07PCCOPOHM@UPDATE?5?$AA@ 0056b358     nafxcw:dbcore.obj
 0002:00010360       ??_C@_09EEAEHHKA@?5VALUES?5?$CI?$AA@ 0056b360     nafxcw:dbcore.obj
 0002:0001036c       ??_C@_02GFKOMOKH@?5?$CI?$AA@ 0056b36c     nafxcw:dbcore.obj
 0002:00010370       ??_C@_0N@KNMCFHGH@INSERT?5INTO?5?$AA@ 0056b370     nafxcw:dbcore.obj
 0002:00010380       ??_C@_06NANCGMFA@?5JOIN?5?$AA@ 0056b380     nafxcw:dbcore.obj
 0002:00010388       ??_C@_07FOAABJPH@?5UNION?5?$AA@ 0056b388     nafxcw:dbcore.obj
 0002:00010390       ??_C@_0L@LJMNCEGE@?5GROUP?5BY?5?$AA@ 0056b390     nafxcw:dbcore.obj
 0002:0001039c       ??_C@_0O@MIBDFLDP@COleException?$AA@ 0056b39c     nafxcw:olemisc.obj
 0002:000103ac       ?classCOleException@COleException@@2UCRuntimeClass@@B 0056b3ac     nafxcw:olemisc.obj
 0002:000103cc       ??_7COleException@@6B@     0056b3cc     nafxcw:olemisc.obj
 0002:000103e4       ??_C@_07JPHDIPNG@DISPLAY?$AA@ 0056b3e4     nafxcw:olemisc.obj
 0002:000103ec       ??_C@_0BF@JDJEAIOB@CInvalidArgException?$AA@ 0056b3ec     nafxcw:except.obj
 0002:00010404       ??_C@_0BH@EAGMGDLP@CNotSupportedException?$AA@ 0056b404     nafxcw:except.obj
 0002:0001041c       ??_C@_0BB@HMFCKMLN@CMemoryException?$AA@ 0056b41c     nafxcw:except.obj
 0002:00010430       ??_C@_0BB@CNLANGGN@CSimpleException?$AA@ 0056b430     nafxcw:except.obj
 0002:00010444       ??_C@_0L@JGHLGBLN@CException?$AA@ 0056b444     nafxcw:except.obj
 0002:00010450       ?classCException@CException@@2UCRuntimeClass@@B 0056b450     nafxcw:except.obj
 0002:0001046c       ?classCSimpleException@CSimpleException@@2UCRuntimeClass@@B 0056b46c     nafxcw:except.obj
 0002:00010488       ?classCMemoryException@CMemoryException@@2UCRuntimeClass@@B 0056b488     nafxcw:except.obj
 0002:000104a4       ?classCNotSupportedException@CNotSupportedException@@2UCRuntimeClass@@B 0056b4a4     nafxcw:except.obj
 0002:000104c0       ?classCInvalidArgException@CInvalidArgException@@2UCRuntimeClass@@B 0056b4c0     nafxcw:except.obj
 0002:000104e0       ??_7CSimpleException@@6B@  0056b4e0     nafxcw:except.obj
 0002:000104fc       ??_7CMemoryException@@6B@  0056b4fc     nafxcw:except.obj
 0002:00010518       ??_7CNotSupportedException@@6B@ 0056b518     nafxcw:except.obj
 0002:00010534       ??_7CInvalidArgException@@6B@ 0056b534     nafxcw:except.obj
 0002:00010550       ??_7CAfxStringMgr@@6B@     0056b550     nafxcw:strcore.obj
 0002:00010564       ??_C@_07BEAIOPAP@CObject?$AA@ 0056b564     nafxcw:objcore.obj
 0002:0001056c       ??_C@_06JBKGCNBB@Delete?$AA@ 0056b56c     nafxcw:objcore.obj
 0002:00010574       ??_C@_08KAAPDIAN@NoRemove?$AA@ 0056b574     nafxcw:objcore.obj
 0002:00010580       ??_C@_0M@DBGDLGLL@ForceRemove?$AA@ 0056b580     nafxcw:objcore.obj
 0002:0001058c       ??_C@_03LAIAPFCB@Val?$AA@  0056b58c     nafxcw:objcore.obj
 0002:00010590       ??_C@_01HMGJMAIH@B?$AA@    0056b590     nafxcw:objcore.obj
 0002:00010594       ??_C@_01CKDDGHAB@D?$AA@    0056b594     nafxcw:objcore.obj
 0002:00010598       ??_C@_01PLPBNMEI@M?$AA@    0056b598     nafxcw:objcore.obj
 0002:0001059c       ??_C@_01CPLAODJH@S?$AA@    0056b59c     nafxcw:objcore.obj
 0002:000105c0       ?classCObject@CObject@@2UCRuntimeClass@@B 0056b5c0     nafxcw:objcore.obj
 0002:000105dc       ??_C@_09HJIPFFON@CPtrArray?$AA@ 0056b5dc     nafxcw:array_p.obj
 0002:000105e8       ?classCPtrArray@CPtrArray@@2UCRuntimeClass@@B 0056b5e8     nafxcw:array_p.obj
 0002:00010608       ??_7CPtrArray@@6B@         0056b608     nafxcw:array_p.obj
 0002:00010614       ??_C@_0BC@IIDFIFGA@CArchiveException?$AA@ 0056b614     nafxcw:arcex.obj
 0002:00010628       ?classCArchiveException@CArchiveException@@2UCRuntimeClass@@B 0056b628     nafxcw:arcex.obj
 0002:00010648       ??_7CArchiveException@@6B@ 0056b648     nafxcw:arcex.obj
 0002:00010660       ??_C@_08DDMLBIJN@CPtrList?$AA@ 0056b660     nafxcw:list_p.obj
 0002:0001066c       ?classCPtrList@CPtrList@@2UCRuntimeClass@@B 0056b66c     nafxcw:list_p.obj
 0002:0001068c       ??_7CPtrList@@6B@          0056b68c     nafxcw:list_p.obj
 0002:00010698       ??_C@_0L@EBOINCAD@CWinThread?$AA@ 0056b698     nafxcw:thrdcore.obj
 0002:000106a4       ?classCWinThread@CWinThread@@2UCRuntimeClass@@B 0056b6a4     nafxcw:thrdcore.obj
 0002:000106c4       ??_7CWinThread@@6B@        0056b6c4     nafxcw:thrdcore.obj
 0002:00010740       ??_C@_0M@NNBAHKHL@CDWordArray?$AA@ 0056b740     nafxcw:array_d.obj
 0002:00010750       ??_7CDWordArray@@6B@       0056b750     nafxcw:array_d.obj
 0002:0001075c       ??_C@_07MHJCJGD@CObList?$AA@ 0056b75c     nafxcw:list_o.obj
 0002:00010768       ??_7CObList@@6B@           0056b768     nafxcw:list_o.obj
 0002:00010774       ??_C@_0L@FPEJDMFB@CStdioFile?$AA@ 0056b774     nafxcw:filetxt.obj
 0002:00010780       ?classCStdioFile@CStdioFile@@2UCRuntimeClass@@B 0056b780     nafxcw:filetxt.obj
 0002:000107a4       ??_7CStdioFile@@6B@        0056b7a4     nafxcw:filetxt.obj
 0002:00010808       ??_7CFileException@@6B@    0056b808     nafxcw:filetxt.obj
 0002:00010820       ??_C@_0DG@OGHGAACA@f?3?2dd?2vctools?2vc7libs?2ship?2atlmf@ 0056b820     nafxcw:filetxt.obj
 0002:00010858       ??_C@_05PCLJOFI@CFile?$AA@ 0056b858     nafxcw:filecore.obj
 0002:00010860       ?hFileNull@CFile@@2QAXA    0056b860     nafxcw:filecore.obj
 0002:00010864       ?classCFile@CFile@@2UCRuntimeClass@@B 0056b864     nafxcw:filecore.obj
 0002:00010884       ??_7CFile@@6B@             0056b884     nafxcw:filecore.obj
 0002:000108d8       ??_C@_0DH@EOOIJDKI@f?3?2dd?2vctools?2vc7libs?2ship?2atlmf@ 0056b8d8     nafxcw:filecore.obj
 0002:00010910       ??_C@_0BB@NPIOCCPF@DeactivateActCtx?$AA@ 0056b910     nafxcw:afxstate.obj
 0002:00010924       ??_C@_0P@CECBPMJL@ActivateActCtx?$AA@ 0056b924     nafxcw:afxstate.obj
 0002:00010934       ??_C@_0O@MFNHEEKA@ReleaseActCtx?$AA@ 0056b934     nafxcw:afxstate.obj
 0002:00010944       ??_C@_0O@JKAFBCMB@CreateActCtxW?$AA@ 0056b944     nafxcw:afxstate.obj
 0002:00010954       ??_C@_08CPNIBGIE@KERNEL32?$AA@ 0056b954     nafxcw:afxstate.obj
 0002:00010964       ??_7_AFX_THREAD_STATE@@6B@ 0056b964     nafxcw:afxstate.obj
 0002:0001096c       ??_7AFX_MODULE_THREAD_STATE@@6B@ 0056b96c     nafxcw:afxstate.obj
 0002:00010974       ??_7AFX_MODULE_STATE@@6B@  0056b974     nafxcw:afxstate.obj
 0002:0001097c       ??_7CDllIsolationWrapperBase@@6B@ 0056b97c     nafxcw:afxstate.obj
 0002:00010984       ??_7CComCtlWrapper@@6B@    0056b984     nafxcw:afxstate.obj
 0002:00010988       ??_C@_0N@OGEBEC@comctl32?4dll?$AA@ 0056b988     nafxcw:afxstate.obj
 0002:0001099c       ??_7CCommDlgWrapper@@6B@   0056b99c     nafxcw:afxstate.obj
 0002:000109a0       ??_C@_0N@KIEIKGAE@comdlg32?4dll?$AA@ 0056b9a0     nafxcw:afxstate.obj
 0002:000109b4       ??_7CShellWrapper@@6B@     0056b9b4     nafxcw:afxstate.obj
 0002:000109b8       ??_C@_0M@KFDNOLCO@shell32?4dll?$AA@ 0056b9b8     nafxcw:afxstate.obj
 0002:000109c8       ??_7_AFX_BASE_MODULE_STATE@@6B@ 0056b9c8     nafxcw:afxstate.obj
 0002:000109cc       ??_C@_0L@NNMBAOBP@CByteArray?$AA@ 0056b9cc     nafxcw:array_b.obj
 0002:000109dc       ??_7CByteArray@@6B@        0056b9dc     nafxcw:array_b.obj
 0002:000109e8       ??_C@_07IKCCILOB@CWinApp?$AA@ 0056b9e8     nafxcw:appcore.obj
 0002:000109f0       ?_afxPreviewSection@@3QBDB 0056b9f0     nafxcw:appcore.obj
 0002:000109fc       ?_afxPreviewEntry@@3QBDB   0056b9fc     nafxcw:appcore.obj
 0002:00010a0c       ?classCWinApp@CWinApp@@2UCRuntimeClass@@B 0056ba0c     nafxcw:appcore.obj
 0002:00010a90       ??_C@_0O@IGJNKHBG@CreateActCtxA?$AA@ 0056ba90     nafxcw:appcore.obj
 0002:00010aa0       ??_C@_0DM@GGDFFNEK@Software?2Microsoft?2Windows?2Curre@ 0056baa0     nafxcw:appcore.obj
 0002:00010adc       ??_C@_05KIENPOGH@NoRun?$AA@ 0056badc     nafxcw:appcore.obj
 0002:00010ae4       ??_C@_08GALLLFPB@NoDrives?$AA@ 0056bae4     nafxcw:appcore.obj
 0002:00010af0       ??_C@_0M@HPPBOEKA@RestrictRun?$AA@ 0056baf0     nafxcw:appcore.obj
 0002:00010afc       ??_C@_0BH@DOFDNNBH@NoNetConnectDisconnect?$AA@ 0056bafc     nafxcw:appcore.obj
 0002:00010b14       ??_C@_0BE@BCHLKPOG@NoRecentDocsHistory?$AA@ 0056bb14     nafxcw:appcore.obj
 0002:00010b28       ??_C@_07CDECIAHF@NoClose?$AA@ 0056bb28     nafxcw:appcore.obj
 0002:00010b30       ??_C@_0DL@MECMLIJJ@Software?2Microsoft?2Windows?2Curre@ 0056bb30     nafxcw:appcore.obj
 0002:00010b6c       ??_C@_0BA@FOHNNHBN@NoEntireNetwork?$AA@ 0056bb6c     nafxcw:appcore.obj
 0002:00010b7c       ??_C@_0DM@DBCEKDOL@Software?2Microsoft?2Windows?2Curre@ 0056bb7c     nafxcw:appcore.obj
 0002:00010bb8       ??_C@_0M@LIECBDAG@NoPlacesBar?$AA@ 0056bbb8     nafxcw:appcore.obj
 0002:00010bc4       ??_C@_0N@GNMJFKCB@NoBackButton?$AA@ 0056bbc4     nafxcw:appcore.obj
 0002:00010bd4       ??_C@_09KMKHKKMC@NoFileMru?$AA@ 0056bbd4     nafxcw:appcore.obj
 0002:00010be0       ??_C@_03KPOLBBFN@LOC?$AA@  0056bbe0     nafxcw:appcore.obj
 0002:00010be4       ??_C@_09FLKFJBLM@ntdll?4dll?$AA@ 0056bbe4     nafxcw:appcore.obj
 0002:00010bf0       ??_C@_0BL@ILHANBAM@GetSystemDefaultUILanguage?$AA@ 0056bbf0     nafxcw:appcore.obj
 0002:00010c0c       ??_C@_0BJ@DKKDGADA@GetUserDefaultUILanguage?$AA@ 0056bc0c     nafxcw:appcore.obj
 0002:00010c28       ??_C@_0N@MDJJJHMB@kernel32?4dll?$AA@ 0056bc28     nafxcw:appcore.obj
 0002:00010c38       ??_C@_08KBEMDEEE@?$CFs?$CFs?4dll?$AA@ 0056bc38     nafxcw:appcore.obj
 0002:00010c4c       ??_7CWinApp@@6B@           0056bc4c     nafxcw:appcore.obj
 0002:00010d04       ??_C@_0DG@EEPGKIAA@f?3?2dd?2vctools?2vc7libs?2ship?2atlmf@ 0056bd04     nafxcw:appcore.obj
 0002:00010d3c       ??_C@_0L@GDEMJNJL@CCmdTarget?$AA@ 0056bd3c     nafxcw:cmdtarg.obj
 0002:00010d48       ?_dispatchEntries@CCmdTarget@@0QBUAFX_DISPMAP_ENTRY@@B 0056bd48     nafxcw:cmdtarg.obj
 0002:00010d68       ?dispatchMap@CCmdTarget@@1UAFX_DISPMAP@@B 0056bd68     nafxcw:cmdtarg.obj
 0002:00010d78       ?_eventsinkEntries@CCmdTarget@@0QBUAFX_EVENTSINKMAP_ENTRY@@B 0056bd78     nafxcw:cmdtarg.obj
 0002:00010da0       ?eventsinkMap@CCmdTarget@@1UAFX_EVENTSINKMAP@@B 0056bda0     nafxcw:cmdtarg.obj
 0002:00010dac       ?_interfaceEntries@CCmdTarget@@0QBUAFX_INTERFACEMAP_ENTRY@@B 0056bdac     nafxcw:cmdtarg.obj
 0002:00010dbc       ?interfaceMap@CCmdTarget@@1UAFX_INTERFACEMAP@@B 0056bdbc     nafxcw:cmdtarg.obj
